opt subtitle "Microchip Technology Omniscient Code Generator (Lite mode) build 59893"

opt pagewidth 120

	opt lm

	processor	16F877A
clrc	macro
	bcf	3,0
	endm
clrz	macro
	bcf	3,2
	endm
setc	macro
	bsf	3,0
	endm
setz	macro
	bsf	3,2
	endm
skipc	macro
	btfss	3,0
	endm
skipz	macro
	btfss	3,2
	endm
skipnc	macro
	btfsc	3,0
	endm
skipnz	macro
	btfsc	3,2
	endm
indf	equ	0
indf0	equ	0
pc	equ	2
pcl	equ	2
status	equ	3
fsr	equ	4
fsr0	equ	4
c	equ	1
z	equ	0
pclath	equ	10
# 49 "C:\Program Files (x86)\Microchip\xc8\v1.33\include\pic16f877a.h"
INDF equ 00h ;# 
# 55 "C:\Program Files (x86)\Microchip\xc8\v1.33\include\pic16f877a.h"
TMR0 equ 01h ;# 
# 61 "C:\Program Files (x86)\Microchip\xc8\v1.33\include\pic16f877a.h"
PCL equ 02h ;# 
# 67 "C:\Program Files (x86)\Microchip\xc8\v1.33\include\pic16f877a.h"
STATUS equ 03h ;# 
# 154 "C:\Program Files (x86)\Microchip\xc8\v1.33\include\pic16f877a.h"
FSR equ 04h ;# 
# 160 "C:\Program Files (x86)\Microchip\xc8\v1.33\include\pic16f877a.h"
PORTA equ 05h ;# 
# 209 "C:\Program Files (x86)\Microchip\xc8\v1.33\include\pic16f877a.h"
PORTB equ 06h ;# 
# 270 "C:\Program Files (x86)\Microchip\xc8\v1.33\include\pic16f877a.h"
PORTC equ 07h ;# 
# 331 "C:\Program Files (x86)\Microchip\xc8\v1.33\include\pic16f877a.h"
PORTD equ 08h ;# 
# 392 "C:\Program Files (x86)\Microchip\xc8\v1.33\include\pic16f877a.h"
PORTE equ 09h ;# 
# 423 "C:\Program Files (x86)\Microchip\xc8\v1.33\include\pic16f877a.h"
PCLATH equ 0Ah ;# 
# 442 "C:\Program Files (x86)\Microchip\xc8\v1.33\include\pic16f877a.h"
INTCON equ 0Bh ;# 
# 519 "C:\Program Files (x86)\Microchip\xc8\v1.33\include\pic16f877a.h"
PIR1 equ 0Ch ;# 
# 580 "C:\Program Files (x86)\Microchip\xc8\v1.33\include\pic16f877a.h"
PIR2 equ 0Dh ;# 
# 619 "C:\Program Files (x86)\Microchip\xc8\v1.33\include\pic16f877a.h"
TMR1 equ 0Eh ;# 
# 625 "C:\Program Files (x86)\Microchip\xc8\v1.33\include\pic16f877a.h"
TMR1L equ 0Eh ;# 
# 631 "C:\Program Files (x86)\Microchip\xc8\v1.33\include\pic16f877a.h"
TMR1H equ 0Fh ;# 
# 637 "C:\Program Files (x86)\Microchip\xc8\v1.33\include\pic16f877a.h"
T1CON equ 010h ;# 
# 711 "C:\Program Files (x86)\Microchip\xc8\v1.33\include\pic16f877a.h"
TMR2 equ 011h ;# 
# 717 "C:\Program Files (x86)\Microchip\xc8\v1.33\include\pic16f877a.h"
T2CON equ 012h ;# 
# 787 "C:\Program Files (x86)\Microchip\xc8\v1.33\include\pic16f877a.h"
SSPBUF equ 013h ;# 
# 793 "C:\Program Files (x86)\Microchip\xc8\v1.33\include\pic16f877a.h"
SSPCON equ 014h ;# 
# 862 "C:\Program Files (x86)\Microchip\xc8\v1.33\include\pic16f877a.h"
CCPR1 equ 015h ;# 
# 868 "C:\Program Files (x86)\Microchip\xc8\v1.33\include\pic16f877a.h"
CCPR1L equ 015h ;# 
# 874 "C:\Program Files (x86)\Microchip\xc8\v1.33\include\pic16f877a.h"
CCPR1H equ 016h ;# 
# 880 "C:\Program Files (x86)\Microchip\xc8\v1.33\include\pic16f877a.h"
CCP1CON equ 017h ;# 
# 937 "C:\Program Files (x86)\Microchip\xc8\v1.33\include\pic16f877a.h"
RCSTA equ 018h ;# 
# 1031 "C:\Program Files (x86)\Microchip\xc8\v1.33\include\pic16f877a.h"
TXREG equ 019h ;# 
# 1037 "C:\Program Files (x86)\Microchip\xc8\v1.33\include\pic16f877a.h"
RCREG equ 01Ah ;# 
# 1043 "C:\Program Files (x86)\Microchip\xc8\v1.33\include\pic16f877a.h"
CCPR2 equ 01Bh ;# 
# 1049 "C:\Program Files (x86)\Microchip\xc8\v1.33\include\pic16f877a.h"
CCPR2L equ 01Bh ;# 
# 1055 "C:\Program Files (x86)\Microchip\xc8\v1.33\include\pic16f877a.h"
CCPR2H equ 01Ch ;# 
# 1061 "C:\Program Files (x86)\Microchip\xc8\v1.33\include\pic16f877a.h"
CCP2CON equ 01Dh ;# 
# 1118 "C:\Program Files (x86)\Microchip\xc8\v1.33\include\pic16f877a.h"
ADRESH equ 01Eh ;# 
# 1124 "C:\Program Files (x86)\Microchip\xc8\v1.33\include\pic16f877a.h"
ADCON0 equ 01Fh ;# 
# 1219 "C:\Program Files (x86)\Microchip\xc8\v1.33\include\pic16f877a.h"
OPTION_REG equ 081h ;# 
# 1288 "C:\Program Files (x86)\Microchip\xc8\v1.33\include\pic16f877a.h"
TRISA equ 085h ;# 
# 1337 "C:\Program Files (x86)\Microchip\xc8\v1.33\include\pic16f877a.h"
TRISB equ 086h ;# 
# 1398 "C:\Program Files (x86)\Microchip\xc8\v1.33\include\pic16f877a.h"
TRISC equ 087h ;# 
# 1459 "C:\Program Files (x86)\Microchip\xc8\v1.33\include\pic16f877a.h"
TRISD equ 088h ;# 
# 1520 "C:\Program Files (x86)\Microchip\xc8\v1.33\include\pic16f877a.h"
TRISE equ 089h ;# 
# 1576 "C:\Program Files (x86)\Microchip\xc8\v1.33\include\pic16f877a.h"
PIE1 equ 08Ch ;# 
# 1637 "C:\Program Files (x86)\Microchip\xc8\v1.33\include\pic16f877a.h"
PIE2 equ 08Dh ;# 
# 1676 "C:\Program Files (x86)\Microchip\xc8\v1.33\include\pic16f877a.h"
PCON equ 08Eh ;# 
# 1709 "C:\Program Files (x86)\Microchip\xc8\v1.33\include\pic16f877a.h"
SSPCON2 equ 091h ;# 
# 1770 "C:\Program Files (x86)\Microchip\xc8\v1.33\include\pic16f877a.h"
PR2 equ 092h ;# 
# 1776 "C:\Program Files (x86)\Microchip\xc8\v1.33\include\pic16f877a.h"
SSPADD equ 093h ;# 
# 1782 "C:\Program Files (x86)\Microchip\xc8\v1.33\include\pic16f877a.h"
SSPSTAT equ 094h ;# 
# 1950 "C:\Program Files (x86)\Microchip\xc8\v1.33\include\pic16f877a.h"
TXSTA equ 098h ;# 
# 2030 "C:\Program Files (x86)\Microchip\xc8\v1.33\include\pic16f877a.h"
SPBRG equ 099h ;# 
# 2036 "C:\Program Files (x86)\Microchip\xc8\v1.33\include\pic16f877a.h"
CMCON equ 09Ch ;# 
# 2105 "C:\Program Files (x86)\Microchip\xc8\v1.33\include\pic16f877a.h"
CVRCON equ 09Dh ;# 
# 2169 "C:\Program Files (x86)\Microchip\xc8\v1.33\include\pic16f877a.h"
ADRESL equ 09Eh ;# 
# 2175 "C:\Program Files (x86)\Microchip\xc8\v1.33\include\pic16f877a.h"
ADCON1 equ 09Fh ;# 
# 2233 "C:\Program Files (x86)\Microchip\xc8\v1.33\include\pic16f877a.h"
EEDATA equ 010Ch ;# 
# 2239 "C:\Program Files (x86)\Microchip\xc8\v1.33\include\pic16f877a.h"
EEADR equ 010Dh ;# 
# 2245 "C:\Program Files (x86)\Microchip\xc8\v1.33\include\pic16f877a.h"
EEDATH equ 010Eh ;# 
# 2251 "C:\Program Files (x86)\Microchip\xc8\v1.33\include\pic16f877a.h"
EEADRH equ 010Fh ;# 
# 2257 "C:\Program Files (x86)\Microchip\xc8\v1.33\include\pic16f877a.h"
EECON1 equ 018Ch ;# 
# 2301 "C:\Program Files (x86)\Microchip\xc8\v1.33\include\pic16f877a.h"
EECON2 equ 018Dh ;# 
# 49 "C:\Program Files (x86)\Microchip\xc8\v1.33\include\pic16f877a.h"
INDF equ 00h ;# 
# 55 "C:\Program Files (x86)\Microchip\xc8\v1.33\include\pic16f877a.h"
TMR0 equ 01h ;# 
# 61 "C:\Program Files (x86)\Microchip\xc8\v1.33\include\pic16f877a.h"
PCL equ 02h ;# 
# 67 "C:\Program Files (x86)\Microchip\xc8\v1.33\include\pic16f877a.h"
STATUS equ 03h ;# 
# 154 "C:\Program Files (x86)\Microchip\xc8\v1.33\include\pic16f877a.h"
FSR equ 04h ;# 
# 160 "C:\Program Files (x86)\Microchip\xc8\v1.33\include\pic16f877a.h"
PORTA equ 05h ;# 
# 209 "C:\Program Files (x86)\Microchip\xc8\v1.33\include\pic16f877a.h"
PORTB equ 06h ;# 
# 270 "C:\Program Files (x86)\Microchip\xc8\v1.33\include\pic16f877a.h"
PORTC equ 07h ;# 
# 331 "C:\Program Files (x86)\Microchip\xc8\v1.33\include\pic16f877a.h"
PORTD equ 08h ;# 
# 392 "C:\Program Files (x86)\Microchip\xc8\v1.33\include\pic16f877a.h"
PORTE equ 09h ;# 
# 423 "C:\Program Files (x86)\Microchip\xc8\v1.33\include\pic16f877a.h"
PCLATH equ 0Ah ;# 
# 442 "C:\Program Files (x86)\Microchip\xc8\v1.33\include\pic16f877a.h"
INTCON equ 0Bh ;# 
# 519 "C:\Program Files (x86)\Microchip\xc8\v1.33\include\pic16f877a.h"
PIR1 equ 0Ch ;# 
# 580 "C:\Program Files (x86)\Microchip\xc8\v1.33\include\pic16f877a.h"
PIR2 equ 0Dh ;# 
# 619 "C:\Program Files (x86)\Microchip\xc8\v1.33\include\pic16f877a.h"
TMR1 equ 0Eh ;# 
# 625 "C:\Program Files (x86)\Microchip\xc8\v1.33\include\pic16f877a.h"
TMR1L equ 0Eh ;# 
# 631 "C:\Program Files (x86)\Microchip\xc8\v1.33\include\pic16f877a.h"
TMR1H equ 0Fh ;# 
# 637 "C:\Program Files (x86)\Microchip\xc8\v1.33\include\pic16f877a.h"
T1CON equ 010h ;# 
# 711 "C:\Program Files (x86)\Microchip\xc8\v1.33\include\pic16f877a.h"
TMR2 equ 011h ;# 
# 717 "C:\Program Files (x86)\Microchip\xc8\v1.33\include\pic16f877a.h"
T2CON equ 012h ;# 
# 787 "C:\Program Files (x86)\Microchip\xc8\v1.33\include\pic16f877a.h"
SSPBUF equ 013h ;# 
# 793 "C:\Program Files (x86)\Microchip\xc8\v1.33\include\pic16f877a.h"
SSPCON equ 014h ;# 
# 862 "C:\Program Files (x86)\Microchip\xc8\v1.33\include\pic16f877a.h"
CCPR1 equ 015h ;# 
# 868 "C:\Program Files (x86)\Microchip\xc8\v1.33\include\pic16f877a.h"
CCPR1L equ 015h ;# 
# 874 "C:\Program Files (x86)\Microchip\xc8\v1.33\include\pic16f877a.h"
CCPR1H equ 016h ;# 
# 880 "C:\Program Files (x86)\Microchip\xc8\v1.33\include\pic16f877a.h"
CCP1CON equ 017h ;# 
# 937 "C:\Program Files (x86)\Microchip\xc8\v1.33\include\pic16f877a.h"
RCSTA equ 018h ;# 
# 1031 "C:\Program Files (x86)\Microchip\xc8\v1.33\include\pic16f877a.h"
TXREG equ 019h ;# 
# 1037 "C:\Program Files (x86)\Microchip\xc8\v1.33\include\pic16f877a.h"
RCREG equ 01Ah ;# 
# 1043 "C:\Program Files (x86)\Microchip\xc8\v1.33\include\pic16f877a.h"
CCPR2 equ 01Bh ;# 
# 1049 "C:\Program Files (x86)\Microchip\xc8\v1.33\include\pic16f877a.h"
CCPR2L equ 01Bh ;# 
# 1055 "C:\Program Files (x86)\Microchip\xc8\v1.33\include\pic16f877a.h"
CCPR2H equ 01Ch ;# 
# 1061 "C:\Program Files (x86)\Microchip\xc8\v1.33\include\pic16f877a.h"
CCP2CON equ 01Dh ;# 
# 1118 "C:\Program Files (x86)\Microchip\xc8\v1.33\include\pic16f877a.h"
ADRESH equ 01Eh ;# 
# 1124 "C:\Program Files (x86)\Microchip\xc8\v1.33\include\pic16f877a.h"
ADCON0 equ 01Fh ;# 
# 1219 "C:\Program Files (x86)\Microchip\xc8\v1.33\include\pic16f877a.h"
OPTION_REG equ 081h ;# 
# 1288 "C:\Program Files (x86)\Microchip\xc8\v1.33\include\pic16f877a.h"
TRISA equ 085h ;# 
# 1337 "C:\Program Files (x86)\Microchip\xc8\v1.33\include\pic16f877a.h"
TRISB equ 086h ;# 
# 1398 "C:\Program Files (x86)\Microchip\xc8\v1.33\include\pic16f877a.h"
TRISC equ 087h ;# 
# 1459 "C:\Program Files (x86)\Microchip\xc8\v1.33\include\pic16f877a.h"
TRISD equ 088h ;# 
# 1520 "C:\Program Files (x86)\Microchip\xc8\v1.33\include\pic16f877a.h"
TRISE equ 089h ;# 
# 1576 "C:\Program Files (x86)\Microchip\xc8\v1.33\include\pic16f877a.h"
PIE1 equ 08Ch ;# 
# 1637 "C:\Program Files (x86)\Microchip\xc8\v1.33\include\pic16f877a.h"
PIE2 equ 08Dh ;# 
# 1676 "C:\Program Files (x86)\Microchip\xc8\v1.33\include\pic16f877a.h"
PCON equ 08Eh ;# 
# 1709 "C:\Program Files (x86)\Microchip\xc8\v1.33\include\pic16f877a.h"
SSPCON2 equ 091h ;# 
# 1770 "C:\Program Files (x86)\Microchip\xc8\v1.33\include\pic16f877a.h"
PR2 equ 092h ;# 
# 1776 "C:\Program Files (x86)\Microchip\xc8\v1.33\include\pic16f877a.h"
SSPADD equ 093h ;# 
# 1782 "C:\Program Files (x86)\Microchip\xc8\v1.33\include\pic16f877a.h"
SSPSTAT equ 094h ;# 
# 1950 "C:\Program Files (x86)\Microchip\xc8\v1.33\include\pic16f877a.h"
TXSTA equ 098h ;# 
# 2030 "C:\Program Files (x86)\Microchip\xc8\v1.33\include\pic16f877a.h"
SPBRG equ 099h ;# 
# 2036 "C:\Program Files (x86)\Microchip\xc8\v1.33\include\pic16f877a.h"
CMCON equ 09Ch ;# 
# 2105 "C:\Program Files (x86)\Microchip\xc8\v1.33\include\pic16f877a.h"
CVRCON equ 09Dh ;# 
# 2169 "C:\Program Files (x86)\Microchip\xc8\v1.33\include\pic16f877a.h"
ADRESL equ 09Eh ;# 
# 2175 "C:\Program Files (x86)\Microchip\xc8\v1.33\include\pic16f877a.h"
ADCON1 equ 09Fh ;# 
# 2233 "C:\Program Files (x86)\Microchip\xc8\v1.33\include\pic16f877a.h"
EEDATA equ 010Ch ;# 
# 2239 "C:\Program Files (x86)\Microchip\xc8\v1.33\include\pic16f877a.h"
EEADR equ 010Dh ;# 
# 2245 "C:\Program Files (x86)\Microchip\xc8\v1.33\include\pic16f877a.h"
EEDATH equ 010Eh ;# 
# 2251 "C:\Program Files (x86)\Microchip\xc8\v1.33\include\pic16f877a.h"
EEADRH equ 010Fh ;# 
# 2257 "C:\Program Files (x86)\Microchip\xc8\v1.33\include\pic16f877a.h"
EECON1 equ 018Ch ;# 
# 2301 "C:\Program Files (x86)\Microchip\xc8\v1.33\include\pic16f877a.h"
EECON2 equ 018Dh ;# 
# 49 "C:\Program Files (x86)\Microchip\xc8\v1.33\include\pic16f877a.h"
INDF equ 00h ;# 
# 55 "C:\Program Files (x86)\Microchip\xc8\v1.33\include\pic16f877a.h"
TMR0 equ 01h ;# 
# 61 "C:\Program Files (x86)\Microchip\xc8\v1.33\include\pic16f877a.h"
PCL equ 02h ;# 
# 67 "C:\Program Files (x86)\Microchip\xc8\v1.33\include\pic16f877a.h"
STATUS equ 03h ;# 
# 154 "C:\Program Files (x86)\Microchip\xc8\v1.33\include\pic16f877a.h"
FSR equ 04h ;# 
# 160 "C:\Program Files (x86)\Microchip\xc8\v1.33\include\pic16f877a.h"
PORTA equ 05h ;# 
# 209 "C:\Program Files (x86)\Microchip\xc8\v1.33\include\pic16f877a.h"
PORTB equ 06h ;# 
# 270 "C:\Program Files (x86)\Microchip\xc8\v1.33\include\pic16f877a.h"
PORTC equ 07h ;# 
# 331 "C:\Program Files (x86)\Microchip\xc8\v1.33\include\pic16f877a.h"
PORTD equ 08h ;# 
# 392 "C:\Program Files (x86)\Microchip\xc8\v1.33\include\pic16f877a.h"
PORTE equ 09h ;# 
# 423 "C:\Program Files (x86)\Microchip\xc8\v1.33\include\pic16f877a.h"
PCLATH equ 0Ah ;# 
# 442 "C:\Program Files (x86)\Microchip\xc8\v1.33\include\pic16f877a.h"
INTCON equ 0Bh ;# 
# 519 "C:\Program Files (x86)\Microchip\xc8\v1.33\include\pic16f877a.h"
PIR1 equ 0Ch ;# 
# 580 "C:\Program Files (x86)\Microchip\xc8\v1.33\include\pic16f877a.h"
PIR2 equ 0Dh ;# 
# 619 "C:\Program Files (x86)\Microchip\xc8\v1.33\include\pic16f877a.h"
TMR1 equ 0Eh ;# 
# 625 "C:\Program Files (x86)\Microchip\xc8\v1.33\include\pic16f877a.h"
TMR1L equ 0Eh ;# 
# 631 "C:\Program Files (x86)\Microchip\xc8\v1.33\include\pic16f877a.h"
TMR1H equ 0Fh ;# 
# 637 "C:\Program Files (x86)\Microchip\xc8\v1.33\include\pic16f877a.h"
T1CON equ 010h ;# 
# 711 "C:\Program Files (x86)\Microchip\xc8\v1.33\include\pic16f877a.h"
TMR2 equ 011h ;# 
# 717 "C:\Program Files (x86)\Microchip\xc8\v1.33\include\pic16f877a.h"
T2CON equ 012h ;# 
# 787 "C:\Program Files (x86)\Microchip\xc8\v1.33\include\pic16f877a.h"
SSPBUF equ 013h ;# 
# 793 "C:\Program Files (x86)\Microchip\xc8\v1.33\include\pic16f877a.h"
SSPCON equ 014h ;# 
# 862 "C:\Program Files (x86)\Microchip\xc8\v1.33\include\pic16f877a.h"
CCPR1 equ 015h ;# 
# 868 "C:\Program Files (x86)\Microchip\xc8\v1.33\include\pic16f877a.h"
CCPR1L equ 015h ;# 
# 874 "C:\Program Files (x86)\Microchip\xc8\v1.33\include\pic16f877a.h"
CCPR1H equ 016h ;# 
# 880 "C:\Program Files (x86)\Microchip\xc8\v1.33\include\pic16f877a.h"
CCP1CON equ 017h ;# 
# 937 "C:\Program Files (x86)\Microchip\xc8\v1.33\include\pic16f877a.h"
RCSTA equ 018h ;# 
# 1031 "C:\Program Files (x86)\Microchip\xc8\v1.33\include\pic16f877a.h"
TXREG equ 019h ;# 
# 1037 "C:\Program Files (x86)\Microchip\xc8\v1.33\include\pic16f877a.h"
RCREG equ 01Ah ;# 
# 1043 "C:\Program Files (x86)\Microchip\xc8\v1.33\include\pic16f877a.h"
CCPR2 equ 01Bh ;# 
# 1049 "C:\Program Files (x86)\Microchip\xc8\v1.33\include\pic16f877a.h"
CCPR2L equ 01Bh ;# 
# 1055 "C:\Program Files (x86)\Microchip\xc8\v1.33\include\pic16f877a.h"
CCPR2H equ 01Ch ;# 
# 1061 "C:\Program Files (x86)\Microchip\xc8\v1.33\include\pic16f877a.h"
CCP2CON equ 01Dh ;# 
# 1118 "C:\Program Files (x86)\Microchip\xc8\v1.33\include\pic16f877a.h"
ADRESH equ 01Eh ;# 
# 1124 "C:\Program Files (x86)\Microchip\xc8\v1.33\include\pic16f877a.h"
ADCON0 equ 01Fh ;# 
# 1219 "C:\Program Files (x86)\Microchip\xc8\v1.33\include\pic16f877a.h"
OPTION_REG equ 081h ;# 
# 1288 "C:\Program Files (x86)\Microchip\xc8\v1.33\include\pic16f877a.h"
TRISA equ 085h ;# 
# 1337 "C:\Program Files (x86)\Microchip\xc8\v1.33\include\pic16f877a.h"
TRISB equ 086h ;# 
# 1398 "C:\Program Files (x86)\Microchip\xc8\v1.33\include\pic16f877a.h"
TRISC equ 087h ;# 
# 1459 "C:\Program Files (x86)\Microchip\xc8\v1.33\include\pic16f877a.h"
TRISD equ 088h ;# 
# 1520 "C:\Program Files (x86)\Microchip\xc8\v1.33\include\pic16f877a.h"
TRISE equ 089h ;# 
# 1576 "C:\Program Files (x86)\Microchip\xc8\v1.33\include\pic16f877a.h"
PIE1 equ 08Ch ;# 
# 1637 "C:\Program Files (x86)\Microchip\xc8\v1.33\include\pic16f877a.h"
PIE2 equ 08Dh ;# 
# 1676 "C:\Program Files (x86)\Microchip\xc8\v1.33\include\pic16f877a.h"
PCON equ 08Eh ;# 
# 1709 "C:\Program Files (x86)\Microchip\xc8\v1.33\include\pic16f877a.h"
SSPCON2 equ 091h ;# 
# 1770 "C:\Program Files (x86)\Microchip\xc8\v1.33\include\pic16f877a.h"
PR2 equ 092h ;# 
# 1776 "C:\Program Files (x86)\Microchip\xc8\v1.33\include\pic16f877a.h"
SSPADD equ 093h ;# 
# 1782 "C:\Program Files (x86)\Microchip\xc8\v1.33\include\pic16f877a.h"
SSPSTAT equ 094h ;# 
# 1950 "C:\Program Files (x86)\Microchip\xc8\v1.33\include\pic16f877a.h"
TXSTA equ 098h ;# 
# 2030 "C:\Program Files (x86)\Microchip\xc8\v1.33\include\pic16f877a.h"
SPBRG equ 099h ;# 
# 2036 "C:\Program Files (x86)\Microchip\xc8\v1.33\include\pic16f877a.h"
CMCON equ 09Ch ;# 
# 2105 "C:\Program Files (x86)\Microchip\xc8\v1.33\include\pic16f877a.h"
CVRCON equ 09Dh ;# 
# 2169 "C:\Program Files (x86)\Microchip\xc8\v1.33\include\pic16f877a.h"
ADRESL equ 09Eh ;# 
# 2175 "C:\Program Files (x86)\Microchip\xc8\v1.33\include\pic16f877a.h"
ADCON1 equ 09Fh ;# 
# 2233 "C:\Program Files (x86)\Microchip\xc8\v1.33\include\pic16f877a.h"
EEDATA equ 010Ch ;# 
# 2239 "C:\Program Files (x86)\Microchip\xc8\v1.33\include\pic16f877a.h"
EEADR equ 010Dh ;# 
# 2245 "C:\Program Files (x86)\Microchip\xc8\v1.33\include\pic16f877a.h"
EEDATH equ 010Eh ;# 
# 2251 "C:\Program Files (x86)\Microchip\xc8\v1.33\include\pic16f877a.h"
EEADRH equ 010Fh ;# 
# 2257 "C:\Program Files (x86)\Microchip\xc8\v1.33\include\pic16f877a.h"
EECON1 equ 018Ch ;# 
# 2301 "C:\Program Files (x86)\Microchip\xc8\v1.33\include\pic16f877a.h"
EECON2 equ 018Dh ;# 
# 49 "C:\Program Files (x86)\Microchip\xc8\v1.33\include\pic16f877a.h"
INDF equ 00h ;# 
# 55 "C:\Program Files (x86)\Microchip\xc8\v1.33\include\pic16f877a.h"
TMR0 equ 01h ;# 
# 61 "C:\Program Files (x86)\Microchip\xc8\v1.33\include\pic16f877a.h"
PCL equ 02h ;# 
# 67 "C:\Program Files (x86)\Microchip\xc8\v1.33\include\pic16f877a.h"
STATUS equ 03h ;# 
# 154 "C:\Program Files (x86)\Microchip\xc8\v1.33\include\pic16f877a.h"
FSR equ 04h ;# 
# 160 "C:\Program Files (x86)\Microchip\xc8\v1.33\include\pic16f877a.h"
PORTA equ 05h ;# 
# 209 "C:\Program Files (x86)\Microchip\xc8\v1.33\include\pic16f877a.h"
PORTB equ 06h ;# 
# 270 "C:\Program Files (x86)\Microchip\xc8\v1.33\include\pic16f877a.h"
PORTC equ 07h ;# 
# 331 "C:\Program Files (x86)\Microchip\xc8\v1.33\include\pic16f877a.h"
PORTD equ 08h ;# 
# 392 "C:\Program Files (x86)\Microchip\xc8\v1.33\include\pic16f877a.h"
PORTE equ 09h ;# 
# 423 "C:\Program Files (x86)\Microchip\xc8\v1.33\include\pic16f877a.h"
PCLATH equ 0Ah ;# 
# 442 "C:\Program Files (x86)\Microchip\xc8\v1.33\include\pic16f877a.h"
INTCON equ 0Bh ;# 
# 519 "C:\Program Files (x86)\Microchip\xc8\v1.33\include\pic16f877a.h"
PIR1 equ 0Ch ;# 
# 580 "C:\Program Files (x86)\Microchip\xc8\v1.33\include\pic16f877a.h"
PIR2 equ 0Dh ;# 
# 619 "C:\Program Files (x86)\Microchip\xc8\v1.33\include\pic16f877a.h"
TMR1 equ 0Eh ;# 
# 625 "C:\Program Files (x86)\Microchip\xc8\v1.33\include\pic16f877a.h"
TMR1L equ 0Eh ;# 
# 631 "C:\Program Files (x86)\Microchip\xc8\v1.33\include\pic16f877a.h"
TMR1H equ 0Fh ;# 
# 637 "C:\Program Files (x86)\Microchip\xc8\v1.33\include\pic16f877a.h"
T1CON equ 010h ;# 
# 711 "C:\Program Files (x86)\Microchip\xc8\v1.33\include\pic16f877a.h"
TMR2 equ 011h ;# 
# 717 "C:\Program Files (x86)\Microchip\xc8\v1.33\include\pic16f877a.h"
T2CON equ 012h ;# 
# 787 "C:\Program Files (x86)\Microchip\xc8\v1.33\include\pic16f877a.h"
SSPBUF equ 013h ;# 
# 793 "C:\Program Files (x86)\Microchip\xc8\v1.33\include\pic16f877a.h"
SSPCON equ 014h ;# 
# 862 "C:\Program Files (x86)\Microchip\xc8\v1.33\include\pic16f877a.h"
CCPR1 equ 015h ;# 
# 868 "C:\Program Files (x86)\Microchip\xc8\v1.33\include\pic16f877a.h"
CCPR1L equ 015h ;# 
# 874 "C:\Program Files (x86)\Microchip\xc8\v1.33\include\pic16f877a.h"
CCPR1H equ 016h ;# 
# 880 "C:\Program Files (x86)\Microchip\xc8\v1.33\include\pic16f877a.h"
CCP1CON equ 017h ;# 
# 937 "C:\Program Files (x86)\Microchip\xc8\v1.33\include\pic16f877a.h"
RCSTA equ 018h ;# 
# 1031 "C:\Program Files (x86)\Microchip\xc8\v1.33\include\pic16f877a.h"
TXREG equ 019h ;# 
# 1037 "C:\Program Files (x86)\Microchip\xc8\v1.33\include\pic16f877a.h"
RCREG equ 01Ah ;# 
# 1043 "C:\Program Files (x86)\Microchip\xc8\v1.33\include\pic16f877a.h"
CCPR2 equ 01Bh ;# 
# 1049 "C:\Program Files (x86)\Microchip\xc8\v1.33\include\pic16f877a.h"
CCPR2L equ 01Bh ;# 
# 1055 "C:\Program Files (x86)\Microchip\xc8\v1.33\include\pic16f877a.h"
CCPR2H equ 01Ch ;# 
# 1061 "C:\Program Files (x86)\Microchip\xc8\v1.33\include\pic16f877a.h"
CCP2CON equ 01Dh ;# 
# 1118 "C:\Program Files (x86)\Microchip\xc8\v1.33\include\pic16f877a.h"
ADRESH equ 01Eh ;# 
# 1124 "C:\Program Files (x86)\Microchip\xc8\v1.33\include\pic16f877a.h"
ADCON0 equ 01Fh ;# 
# 1219 "C:\Program Files (x86)\Microchip\xc8\v1.33\include\pic16f877a.h"
OPTION_REG equ 081h ;# 
# 1288 "C:\Program Files (x86)\Microchip\xc8\v1.33\include\pic16f877a.h"
TRISA equ 085h ;# 
# 1337 "C:\Program Files (x86)\Microchip\xc8\v1.33\include\pic16f877a.h"
TRISB equ 086h ;# 
# 1398 "C:\Program Files (x86)\Microchip\xc8\v1.33\include\pic16f877a.h"
TRISC equ 087h ;# 
# 1459 "C:\Program Files (x86)\Microchip\xc8\v1.33\include\pic16f877a.h"
TRISD equ 088h ;# 
# 1520 "C:\Program Files (x86)\Microchip\xc8\v1.33\include\pic16f877a.h"
TRISE equ 089h ;# 
# 1576 "C:\Program Files (x86)\Microchip\xc8\v1.33\include\pic16f877a.h"
PIE1 equ 08Ch ;# 
# 1637 "C:\Program Files (x86)\Microchip\xc8\v1.33\include\pic16f877a.h"
PIE2 equ 08Dh ;# 
# 1676 "C:\Program Files (x86)\Microchip\xc8\v1.33\include\pic16f877a.h"
PCON equ 08Eh ;# 
# 1709 "C:\Program Files (x86)\Microchip\xc8\v1.33\include\pic16f877a.h"
SSPCON2 equ 091h ;# 
# 1770 "C:\Program Files (x86)\Microchip\xc8\v1.33\include\pic16f877a.h"
PR2 equ 092h ;# 
# 1776 "C:\Program Files (x86)\Microchip\xc8\v1.33\include\pic16f877a.h"
SSPADD equ 093h ;# 
# 1782 "C:\Program Files (x86)\Microchip\xc8\v1.33\include\pic16f877a.h"
SSPSTAT equ 094h ;# 
# 1950 "C:\Program Files (x86)\Microchip\xc8\v1.33\include\pic16f877a.h"
TXSTA equ 098h ;# 
# 2030 "C:\Program Files (x86)\Microchip\xc8\v1.33\include\pic16f877a.h"
SPBRG equ 099h ;# 
# 2036 "C:\Program Files (x86)\Microchip\xc8\v1.33\include\pic16f877a.h"
CMCON equ 09Ch ;# 
# 2105 "C:\Program Files (x86)\Microchip\xc8\v1.33\include\pic16f877a.h"
CVRCON equ 09Dh ;# 
# 2169 "C:\Program Files (x86)\Microchip\xc8\v1.33\include\pic16f877a.h"
ADRESL equ 09Eh ;# 
# 2175 "C:\Program Files (x86)\Microchip\xc8\v1.33\include\pic16f877a.h"
ADCON1 equ 09Fh ;# 
# 2233 "C:\Program Files (x86)\Microchip\xc8\v1.33\include\pic16f877a.h"
EEDATA equ 010Ch ;# 
# 2239 "C:\Program Files (x86)\Microchip\xc8\v1.33\include\pic16f877a.h"
EEADR equ 010Dh ;# 
# 2245 "C:\Program Files (x86)\Microchip\xc8\v1.33\include\pic16f877a.h"
EEDATH equ 010Eh ;# 
# 2251 "C:\Program Files (x86)\Microchip\xc8\v1.33\include\pic16f877a.h"
EEADRH equ 010Fh ;# 
# 2257 "C:\Program Files (x86)\Microchip\xc8\v1.33\include\pic16f877a.h"
EECON1 equ 018Ch ;# 
# 2301 "C:\Program Files (x86)\Microchip\xc8\v1.33\include\pic16f877a.h"
EECON2 equ 018Dh ;# 
# 49 "C:\Program Files (x86)\Microchip\xc8\v1.33\include\pic16f877a.h"
INDF equ 00h ;# 
# 55 "C:\Program Files (x86)\Microchip\xc8\v1.33\include\pic16f877a.h"
TMR0 equ 01h ;# 
# 61 "C:\Program Files (x86)\Microchip\xc8\v1.33\include\pic16f877a.h"
PCL equ 02h ;# 
# 67 "C:\Program Files (x86)\Microchip\xc8\v1.33\include\pic16f877a.h"
STATUS equ 03h ;# 
# 154 "C:\Program Files (x86)\Microchip\xc8\v1.33\include\pic16f877a.h"
FSR equ 04h ;# 
# 160 "C:\Program Files (x86)\Microchip\xc8\v1.33\include\pic16f877a.h"
PORTA equ 05h ;# 
# 209 "C:\Program Files (x86)\Microchip\xc8\v1.33\include\pic16f877a.h"
PORTB equ 06h ;# 
# 270 "C:\Program Files (x86)\Microchip\xc8\v1.33\include\pic16f877a.h"
PORTC equ 07h ;# 
# 331 "C:\Program Files (x86)\Microchip\xc8\v1.33\include\pic16f877a.h"
PORTD equ 08h ;# 
# 392 "C:\Program Files (x86)\Microchip\xc8\v1.33\include\pic16f877a.h"
PORTE equ 09h ;# 
# 423 "C:\Program Files (x86)\Microchip\xc8\v1.33\include\pic16f877a.h"
PCLATH equ 0Ah ;# 
# 442 "C:\Program Files (x86)\Microchip\xc8\v1.33\include\pic16f877a.h"
INTCON equ 0Bh ;# 
# 519 "C:\Program Files (x86)\Microchip\xc8\v1.33\include\pic16f877a.h"
PIR1 equ 0Ch ;# 
# 580 "C:\Program Files (x86)\Microchip\xc8\v1.33\include\pic16f877a.h"
PIR2 equ 0Dh ;# 
# 619 "C:\Program Files (x86)\Microchip\xc8\v1.33\include\pic16f877a.h"
TMR1 equ 0Eh ;# 
# 625 "C:\Program Files (x86)\Microchip\xc8\v1.33\include\pic16f877a.h"
TMR1L equ 0Eh ;# 
# 631 "C:\Program Files (x86)\Microchip\xc8\v1.33\include\pic16f877a.h"
TMR1H equ 0Fh ;# 
# 637 "C:\Program Files (x86)\Microchip\xc8\v1.33\include\pic16f877a.h"
T1CON equ 010h ;# 
# 711 "C:\Program Files (x86)\Microchip\xc8\v1.33\include\pic16f877a.h"
TMR2 equ 011h ;# 
# 717 "C:\Program Files (x86)\Microchip\xc8\v1.33\include\pic16f877a.h"
T2CON equ 012h ;# 
# 787 "C:\Program Files (x86)\Microchip\xc8\v1.33\include\pic16f877a.h"
SSPBUF equ 013h ;# 
# 793 "C:\Program Files (x86)\Microchip\xc8\v1.33\include\pic16f877a.h"
SSPCON equ 014h ;# 
# 862 "C:\Program Files (x86)\Microchip\xc8\v1.33\include\pic16f877a.h"
CCPR1 equ 015h ;# 
# 868 "C:\Program Files (x86)\Microchip\xc8\v1.33\include\pic16f877a.h"
CCPR1L equ 015h ;# 
# 874 "C:\Program Files (x86)\Microchip\xc8\v1.33\include\pic16f877a.h"
CCPR1H equ 016h ;# 
# 880 "C:\Program Files (x86)\Microchip\xc8\v1.33\include\pic16f877a.h"
CCP1CON equ 017h ;# 
# 937 "C:\Program Files (x86)\Microchip\xc8\v1.33\include\pic16f877a.h"
RCSTA equ 018h ;# 
# 1031 "C:\Program Files (x86)\Microchip\xc8\v1.33\include\pic16f877a.h"
TXREG equ 019h ;# 
# 1037 "C:\Program Files (x86)\Microchip\xc8\v1.33\include\pic16f877a.h"
RCREG equ 01Ah ;# 
# 1043 "C:\Program Files (x86)\Microchip\xc8\v1.33\include\pic16f877a.h"
CCPR2 equ 01Bh ;# 
# 1049 "C:\Program Files (x86)\Microchip\xc8\v1.33\include\pic16f877a.h"
CCPR2L equ 01Bh ;# 
# 1055 "C:\Program Files (x86)\Microchip\xc8\v1.33\include\pic16f877a.h"
CCPR2H equ 01Ch ;# 
# 1061 "C:\Program Files (x86)\Microchip\xc8\v1.33\include\pic16f877a.h"
CCP2CON equ 01Dh ;# 
# 1118 "C:\Program Files (x86)\Microchip\xc8\v1.33\include\pic16f877a.h"
ADRESH equ 01Eh ;# 
# 1124 "C:\Program Files (x86)\Microchip\xc8\v1.33\include\pic16f877a.h"
ADCON0 equ 01Fh ;# 
# 1219 "C:\Program Files (x86)\Microchip\xc8\v1.33\include\pic16f877a.h"
OPTION_REG equ 081h ;# 
# 1288 "C:\Program Files (x86)\Microchip\xc8\v1.33\include\pic16f877a.h"
TRISA equ 085h ;# 
# 1337 "C:\Program Files (x86)\Microchip\xc8\v1.33\include\pic16f877a.h"
TRISB equ 086h ;# 
# 1398 "C:\Program Files (x86)\Microchip\xc8\v1.33\include\pic16f877a.h"
TRISC equ 087h ;# 
# 1459 "C:\Program Files (x86)\Microchip\xc8\v1.33\include\pic16f877a.h"
TRISD equ 088h ;# 
# 1520 "C:\Program Files (x86)\Microchip\xc8\v1.33\include\pic16f877a.h"
TRISE equ 089h ;# 
# 1576 "C:\Program Files (x86)\Microchip\xc8\v1.33\include\pic16f877a.h"
PIE1 equ 08Ch ;# 
# 1637 "C:\Program Files (x86)\Microchip\xc8\v1.33\include\pic16f877a.h"
PIE2 equ 08Dh ;# 
# 1676 "C:\Program Files (x86)\Microchip\xc8\v1.33\include\pic16f877a.h"
PCON equ 08Eh ;# 
# 1709 "C:\Program Files (x86)\Microchip\xc8\v1.33\include\pic16f877a.h"
SSPCON2 equ 091h ;# 
# 1770 "C:\Program Files (x86)\Microchip\xc8\v1.33\include\pic16f877a.h"
PR2 equ 092h ;# 
# 1776 "C:\Program Files (x86)\Microchip\xc8\v1.33\include\pic16f877a.h"
SSPADD equ 093h ;# 
# 1782 "C:\Program Files (x86)\Microchip\xc8\v1.33\include\pic16f877a.h"
SSPSTAT equ 094h ;# 
# 1950 "C:\Program Files (x86)\Microchip\xc8\v1.33\include\pic16f877a.h"
TXSTA equ 098h ;# 
# 2030 "C:\Program Files (x86)\Microchip\xc8\v1.33\include\pic16f877a.h"
SPBRG equ 099h ;# 
# 2036 "C:\Program Files (x86)\Microchip\xc8\v1.33\include\pic16f877a.h"
CMCON equ 09Ch ;# 
# 2105 "C:\Program Files (x86)\Microchip\xc8\v1.33\include\pic16f877a.h"
CVRCON equ 09Dh ;# 
# 2169 "C:\Program Files (x86)\Microchip\xc8\v1.33\include\pic16f877a.h"
ADRESL equ 09Eh ;# 
# 2175 "C:\Program Files (x86)\Microchip\xc8\v1.33\include\pic16f877a.h"
ADCON1 equ 09Fh ;# 
# 2233 "C:\Program Files (x86)\Microchip\xc8\v1.33\include\pic16f877a.h"
EEDATA equ 010Ch ;# 
# 2239 "C:\Program Files (x86)\Microchip\xc8\v1.33\include\pic16f877a.h"
EEADR equ 010Dh ;# 
# 2245 "C:\Program Files (x86)\Microchip\xc8\v1.33\include\pic16f877a.h"
EEDATH equ 010Eh ;# 
# 2251 "C:\Program Files (x86)\Microchip\xc8\v1.33\include\pic16f877a.h"
EEADRH equ 010Fh ;# 
# 2257 "C:\Program Files (x86)\Microchip\xc8\v1.33\include\pic16f877a.h"
EECON1 equ 018Ch ;# 
# 2301 "C:\Program Files (x86)\Microchip\xc8\v1.33\include\pic16f877a.h"
EECON2 equ 018Dh ;# 
# 49 "C:\Program Files (x86)\Microchip\xc8\v1.33\include\pic16f877a.h"
INDF equ 00h ;# 
# 55 "C:\Program Files (x86)\Microchip\xc8\v1.33\include\pic16f877a.h"
TMR0 equ 01h ;# 
# 61 "C:\Program Files (x86)\Microchip\xc8\v1.33\include\pic16f877a.h"
PCL equ 02h ;# 
# 67 "C:\Program Files (x86)\Microchip\xc8\v1.33\include\pic16f877a.h"
STATUS equ 03h ;# 
# 154 "C:\Program Files (x86)\Microchip\xc8\v1.33\include\pic16f877a.h"
FSR equ 04h ;# 
# 160 "C:\Program Files (x86)\Microchip\xc8\v1.33\include\pic16f877a.h"
PORTA equ 05h ;# 
# 209 "C:\Program Files (x86)\Microchip\xc8\v1.33\include\pic16f877a.h"
PORTB equ 06h ;# 
# 270 "C:\Program Files (x86)\Microchip\xc8\v1.33\include\pic16f877a.h"
PORTC equ 07h ;# 
# 331 "C:\Program Files (x86)\Microchip\xc8\v1.33\include\pic16f877a.h"
PORTD equ 08h ;# 
# 392 "C:\Program Files (x86)\Microchip\xc8\v1.33\include\pic16f877a.h"
PORTE equ 09h ;# 
# 423 "C:\Program Files (x86)\Microchip\xc8\v1.33\include\pic16f877a.h"
PCLATH equ 0Ah ;# 
# 442 "C:\Program Files (x86)\Microchip\xc8\v1.33\include\pic16f877a.h"
INTCON equ 0Bh ;# 
# 519 "C:\Program Files (x86)\Microchip\xc8\v1.33\include\pic16f877a.h"
PIR1 equ 0Ch ;# 
# 580 "C:\Program Files (x86)\Microchip\xc8\v1.33\include\pic16f877a.h"
PIR2 equ 0Dh ;# 
# 619 "C:\Program Files (x86)\Microchip\xc8\v1.33\include\pic16f877a.h"
TMR1 equ 0Eh ;# 
# 625 "C:\Program Files (x86)\Microchip\xc8\v1.33\include\pic16f877a.h"
TMR1L equ 0Eh ;# 
# 631 "C:\Program Files (x86)\Microchip\xc8\v1.33\include\pic16f877a.h"
TMR1H equ 0Fh ;# 
# 637 "C:\Program Files (x86)\Microchip\xc8\v1.33\include\pic16f877a.h"
T1CON equ 010h ;# 
# 711 "C:\Program Files (x86)\Microchip\xc8\v1.33\include\pic16f877a.h"
TMR2 equ 011h ;# 
# 717 "C:\Program Files (x86)\Microchip\xc8\v1.33\include\pic16f877a.h"
T2CON equ 012h ;# 
# 787 "C:\Program Files (x86)\Microchip\xc8\v1.33\include\pic16f877a.h"
SSPBUF equ 013h ;# 
# 793 "C:\Program Files (x86)\Microchip\xc8\v1.33\include\pic16f877a.h"
SSPCON equ 014h ;# 
# 862 "C:\Program Files (x86)\Microchip\xc8\v1.33\include\pic16f877a.h"
CCPR1 equ 015h ;# 
# 868 "C:\Program Files (x86)\Microchip\xc8\v1.33\include\pic16f877a.h"
CCPR1L equ 015h ;# 
# 874 "C:\Program Files (x86)\Microchip\xc8\v1.33\include\pic16f877a.h"
CCPR1H equ 016h ;# 
# 880 "C:\Program Files (x86)\Microchip\xc8\v1.33\include\pic16f877a.h"
CCP1CON equ 017h ;# 
# 937 "C:\Program Files (x86)\Microchip\xc8\v1.33\include\pic16f877a.h"
RCSTA equ 018h ;# 
# 1031 "C:\Program Files (x86)\Microchip\xc8\v1.33\include\pic16f877a.h"
TXREG equ 019h ;# 
# 1037 "C:\Program Files (x86)\Microchip\xc8\v1.33\include\pic16f877a.h"
RCREG equ 01Ah ;# 
# 1043 "C:\Program Files (x86)\Microchip\xc8\v1.33\include\pic16f877a.h"
CCPR2 equ 01Bh ;# 
# 1049 "C:\Program Files (x86)\Microchip\xc8\v1.33\include\pic16f877a.h"
CCPR2L equ 01Bh ;# 
# 1055 "C:\Program Files (x86)\Microchip\xc8\v1.33\include\pic16f877a.h"
CCPR2H equ 01Ch ;# 
# 1061 "C:\Program Files (x86)\Microchip\xc8\v1.33\include\pic16f877a.h"
CCP2CON equ 01Dh ;# 
# 1118 "C:\Program Files (x86)\Microchip\xc8\v1.33\include\pic16f877a.h"
ADRESH equ 01Eh ;# 
# 1124 "C:\Program Files (x86)\Microchip\xc8\v1.33\include\pic16f877a.h"
ADCON0 equ 01Fh ;# 
# 1219 "C:\Program Files (x86)\Microchip\xc8\v1.33\include\pic16f877a.h"
OPTION_REG equ 081h ;# 
# 1288 "C:\Program Files (x86)\Microchip\xc8\v1.33\include\pic16f877a.h"
TRISA equ 085h ;# 
# 1337 "C:\Program Files (x86)\Microchip\xc8\v1.33\include\pic16f877a.h"
TRISB equ 086h ;# 
# 1398 "C:\Program Files (x86)\Microchip\xc8\v1.33\include\pic16f877a.h"
TRISC equ 087h ;# 
# 1459 "C:\Program Files (x86)\Microchip\xc8\v1.33\include\pic16f877a.h"
TRISD equ 088h ;# 
# 1520 "C:\Program Files (x86)\Microchip\xc8\v1.33\include\pic16f877a.h"
TRISE equ 089h ;# 
# 1576 "C:\Program Files (x86)\Microchip\xc8\v1.33\include\pic16f877a.h"
PIE1 equ 08Ch ;# 
# 1637 "C:\Program Files (x86)\Microchip\xc8\v1.33\include\pic16f877a.h"
PIE2 equ 08Dh ;# 
# 1676 "C:\Program Files (x86)\Microchip\xc8\v1.33\include\pic16f877a.h"
PCON equ 08Eh ;# 
# 1709 "C:\Program Files (x86)\Microchip\xc8\v1.33\include\pic16f877a.h"
SSPCON2 equ 091h ;# 
# 1770 "C:\Program Files (x86)\Microchip\xc8\v1.33\include\pic16f877a.h"
PR2 equ 092h ;# 
# 1776 "C:\Program Files (x86)\Microchip\xc8\v1.33\include\pic16f877a.h"
SSPADD equ 093h ;# 
# 1782 "C:\Program Files (x86)\Microchip\xc8\v1.33\include\pic16f877a.h"
SSPSTAT equ 094h ;# 
# 1950 "C:\Program Files (x86)\Microchip\xc8\v1.33\include\pic16f877a.h"
TXSTA equ 098h ;# 
# 2030 "C:\Program Files (x86)\Microchip\xc8\v1.33\include\pic16f877a.h"
SPBRG equ 099h ;# 
# 2036 "C:\Program Files (x86)\Microchip\xc8\v1.33\include\pic16f877a.h"
CMCON equ 09Ch ;# 
# 2105 "C:\Program Files (x86)\Microchip\xc8\v1.33\include\pic16f877a.h"
CVRCON equ 09Dh ;# 
# 2169 "C:\Program Files (x86)\Microchip\xc8\v1.33\include\pic16f877a.h"
ADRESL equ 09Eh ;# 
# 2175 "C:\Program Files (x86)\Microchip\xc8\v1.33\include\pic16f877a.h"
ADCON1 equ 09Fh ;# 
# 2233 "C:\Program Files (x86)\Microchip\xc8\v1.33\include\pic16f877a.h"
EEDATA equ 010Ch ;# 
# 2239 "C:\Program Files (x86)\Microchip\xc8\v1.33\include\pic16f877a.h"
EEADR equ 010Dh ;# 
# 2245 "C:\Program Files (x86)\Microchip\xc8\v1.33\include\pic16f877a.h"
EEDATH equ 010Eh ;# 
# 2251 "C:\Program Files (x86)\Microchip\xc8\v1.33\include\pic16f877a.h"
EEADRH equ 010Fh ;# 
# 2257 "C:\Program Files (x86)\Microchip\xc8\v1.33\include\pic16f877a.h"
EECON1 equ 018Ch ;# 
# 2301 "C:\Program Files (x86)\Microchip\xc8\v1.33\include\pic16f877a.h"
EECON2 equ 018Dh ;# 
# 49 "C:\Program Files (x86)\Microchip\xc8\v1.33\include\pic16f877a.h"
INDF equ 00h ;# 
# 55 "C:\Program Files (x86)\Microchip\xc8\v1.33\include\pic16f877a.h"
TMR0 equ 01h ;# 
# 61 "C:\Program Files (x86)\Microchip\xc8\v1.33\include\pic16f877a.h"
PCL equ 02h ;# 
# 67 "C:\Program Files (x86)\Microchip\xc8\v1.33\include\pic16f877a.h"
STATUS equ 03h ;# 
# 154 "C:\Program Files (x86)\Microchip\xc8\v1.33\include\pic16f877a.h"
FSR equ 04h ;# 
# 160 "C:\Program Files (x86)\Microchip\xc8\v1.33\include\pic16f877a.h"
PORTA equ 05h ;# 
# 209 "C:\Program Files (x86)\Microchip\xc8\v1.33\include\pic16f877a.h"
PORTB equ 06h ;# 
# 270 "C:\Program Files (x86)\Microchip\xc8\v1.33\include\pic16f877a.h"
PORTC equ 07h ;# 
# 331 "C:\Program Files (x86)\Microchip\xc8\v1.33\include\pic16f877a.h"
PORTD equ 08h ;# 
# 392 "C:\Program Files (x86)\Microchip\xc8\v1.33\include\pic16f877a.h"
PORTE equ 09h ;# 
# 423 "C:\Program Files (x86)\Microchip\xc8\v1.33\include\pic16f877a.h"
PCLATH equ 0Ah ;# 
# 442 "C:\Program Files (x86)\Microchip\xc8\v1.33\include\pic16f877a.h"
INTCON equ 0Bh ;# 
# 519 "C:\Program Files (x86)\Microchip\xc8\v1.33\include\pic16f877a.h"
PIR1 equ 0Ch ;# 
# 580 "C:\Program Files (x86)\Microchip\xc8\v1.33\include\pic16f877a.h"
PIR2 equ 0Dh ;# 
# 619 "C:\Program Files (x86)\Microchip\xc8\v1.33\include\pic16f877a.h"
TMR1 equ 0Eh ;# 
# 625 "C:\Program Files (x86)\Microchip\xc8\v1.33\include\pic16f877a.h"
TMR1L equ 0Eh ;# 
# 631 "C:\Program Files (x86)\Microchip\xc8\v1.33\include\pic16f877a.h"
TMR1H equ 0Fh ;# 
# 637 "C:\Program Files (x86)\Microchip\xc8\v1.33\include\pic16f877a.h"
T1CON equ 010h ;# 
# 711 "C:\Program Files (x86)\Microchip\xc8\v1.33\include\pic16f877a.h"
TMR2 equ 011h ;# 
# 717 "C:\Program Files (x86)\Microchip\xc8\v1.33\include\pic16f877a.h"
T2CON equ 012h ;# 
# 787 "C:\Program Files (x86)\Microchip\xc8\v1.33\include\pic16f877a.h"
SSPBUF equ 013h ;# 
# 793 "C:\Program Files (x86)\Microchip\xc8\v1.33\include\pic16f877a.h"
SSPCON equ 014h ;# 
# 862 "C:\Program Files (x86)\Microchip\xc8\v1.33\include\pic16f877a.h"
CCPR1 equ 015h ;# 
# 868 "C:\Program Files (x86)\Microchip\xc8\v1.33\include\pic16f877a.h"
CCPR1L equ 015h ;# 
# 874 "C:\Program Files (x86)\Microchip\xc8\v1.33\include\pic16f877a.h"
CCPR1H equ 016h ;# 
# 880 "C:\Program Files (x86)\Microchip\xc8\v1.33\include\pic16f877a.h"
CCP1CON equ 017h ;# 
# 937 "C:\Program Files (x86)\Microchip\xc8\v1.33\include\pic16f877a.h"
RCSTA equ 018h ;# 
# 1031 "C:\Program Files (x86)\Microchip\xc8\v1.33\include\pic16f877a.h"
TXREG equ 019h ;# 
# 1037 "C:\Program Files (x86)\Microchip\xc8\v1.33\include\pic16f877a.h"
RCREG equ 01Ah ;# 
# 1043 "C:\Program Files (x86)\Microchip\xc8\v1.33\include\pic16f877a.h"
CCPR2 equ 01Bh ;# 
# 1049 "C:\Program Files (x86)\Microchip\xc8\v1.33\include\pic16f877a.h"
CCPR2L equ 01Bh ;# 
# 1055 "C:\Program Files (x86)\Microchip\xc8\v1.33\include\pic16f877a.h"
CCPR2H equ 01Ch ;# 
# 1061 "C:\Program Files (x86)\Microchip\xc8\v1.33\include\pic16f877a.h"
CCP2CON equ 01Dh ;# 
# 1118 "C:\Program Files (x86)\Microchip\xc8\v1.33\include\pic16f877a.h"
ADRESH equ 01Eh ;# 
# 1124 "C:\Program Files (x86)\Microchip\xc8\v1.33\include\pic16f877a.h"
ADCON0 equ 01Fh ;# 
# 1219 "C:\Program Files (x86)\Microchip\xc8\v1.33\include\pic16f877a.h"
OPTION_REG equ 081h ;# 
# 1288 "C:\Program Files (x86)\Microchip\xc8\v1.33\include\pic16f877a.h"
TRISA equ 085h ;# 
# 1337 "C:\Program Files (x86)\Microchip\xc8\v1.33\include\pic16f877a.h"
TRISB equ 086h ;# 
# 1398 "C:\Program Files (x86)\Microchip\xc8\v1.33\include\pic16f877a.h"
TRISC equ 087h ;# 
# 1459 "C:\Program Files (x86)\Microchip\xc8\v1.33\include\pic16f877a.h"
TRISD equ 088h ;# 
# 1520 "C:\Program Files (x86)\Microchip\xc8\v1.33\include\pic16f877a.h"
TRISE equ 089h ;# 
# 1576 "C:\Program Files (x86)\Microchip\xc8\v1.33\include\pic16f877a.h"
PIE1 equ 08Ch ;# 
# 1637 "C:\Program Files (x86)\Microchip\xc8\v1.33\include\pic16f877a.h"
PIE2 equ 08Dh ;# 
# 1676 "C:\Program Files (x86)\Microchip\xc8\v1.33\include\pic16f877a.h"
PCON equ 08Eh ;# 
# 1709 "C:\Program Files (x86)\Microchip\xc8\v1.33\include\pic16f877a.h"
SSPCON2 equ 091h ;# 
# 1770 "C:\Program Files (x86)\Microchip\xc8\v1.33\include\pic16f877a.h"
PR2 equ 092h ;# 
# 1776 "C:\Program Files (x86)\Microchip\xc8\v1.33\include\pic16f877a.h"
SSPADD equ 093h ;# 
# 1782 "C:\Program Files (x86)\Microchip\xc8\v1.33\include\pic16f877a.h"
SSPSTAT equ 094h ;# 
# 1950 "C:\Program Files (x86)\Microchip\xc8\v1.33\include\pic16f877a.h"
TXSTA equ 098h ;# 
# 2030 "C:\Program Files (x86)\Microchip\xc8\v1.33\include\pic16f877a.h"
SPBRG equ 099h ;# 
# 2036 "C:\Program Files (x86)\Microchip\xc8\v1.33\include\pic16f877a.h"
CMCON equ 09Ch ;# 
# 2105 "C:\Program Files (x86)\Microchip\xc8\v1.33\include\pic16f877a.h"
CVRCON equ 09Dh ;# 
# 2169 "C:\Program Files (x86)\Microchip\xc8\v1.33\include\pic16f877a.h"
ADRESL equ 09Eh ;# 
# 2175 "C:\Program Files (x86)\Microchip\xc8\v1.33\include\pic16f877a.h"
ADCON1 equ 09Fh ;# 
# 2233 "C:\Program Files (x86)\Microchip\xc8\v1.33\include\pic16f877a.h"
EEDATA equ 010Ch ;# 
# 2239 "C:\Program Files (x86)\Microchip\xc8\v1.33\include\pic16f877a.h"
EEADR equ 010Dh ;# 
# 2245 "C:\Program Files (x86)\Microchip\xc8\v1.33\include\pic16f877a.h"
EEDATH equ 010Eh ;# 
# 2251 "C:\Program Files (x86)\Microchip\xc8\v1.33\include\pic16f877a.h"
EEADRH equ 010Fh ;# 
# 2257 "C:\Program Files (x86)\Microchip\xc8\v1.33\include\pic16f877a.h"
EECON1 equ 018Ch ;# 
# 2301 "C:\Program Files (x86)\Microchip\xc8\v1.33\include\pic16f877a.h"
EECON2 equ 018Dh ;# 
# 49 "C:\Program Files (x86)\Microchip\xc8\v1.33\include\pic16f877a.h"
INDF equ 00h ;# 
# 55 "C:\Program Files (x86)\Microchip\xc8\v1.33\include\pic16f877a.h"
TMR0 equ 01h ;# 
# 61 "C:\Program Files (x86)\Microchip\xc8\v1.33\include\pic16f877a.h"
PCL equ 02h ;# 
# 67 "C:\Program Files (x86)\Microchip\xc8\v1.33\include\pic16f877a.h"
STATUS equ 03h ;# 
# 154 "C:\Program Files (x86)\Microchip\xc8\v1.33\include\pic16f877a.h"
FSR equ 04h ;# 
# 160 "C:\Program Files (x86)\Microchip\xc8\v1.33\include\pic16f877a.h"
PORTA equ 05h ;# 
# 209 "C:\Program Files (x86)\Microchip\xc8\v1.33\include\pic16f877a.h"
PORTB equ 06h ;# 
# 270 "C:\Program Files (x86)\Microchip\xc8\v1.33\include\pic16f877a.h"
PORTC equ 07h ;# 
# 331 "C:\Program Files (x86)\Microchip\xc8\v1.33\include\pic16f877a.h"
PORTD equ 08h ;# 
# 392 "C:\Program Files (x86)\Microchip\xc8\v1.33\include\pic16f877a.h"
PORTE equ 09h ;# 
# 423 "C:\Program Files (x86)\Microchip\xc8\v1.33\include\pic16f877a.h"
PCLATH equ 0Ah ;# 
# 442 "C:\Program Files (x86)\Microchip\xc8\v1.33\include\pic16f877a.h"
INTCON equ 0Bh ;# 
# 519 "C:\Program Files (x86)\Microchip\xc8\v1.33\include\pic16f877a.h"
PIR1 equ 0Ch ;# 
# 580 "C:\Program Files (x86)\Microchip\xc8\v1.33\include\pic16f877a.h"
PIR2 equ 0Dh ;# 
# 619 "C:\Program Files (x86)\Microchip\xc8\v1.33\include\pic16f877a.h"
TMR1 equ 0Eh ;# 
# 625 "C:\Program Files (x86)\Microchip\xc8\v1.33\include\pic16f877a.h"
TMR1L equ 0Eh ;# 
# 631 "C:\Program Files (x86)\Microchip\xc8\v1.33\include\pic16f877a.h"
TMR1H equ 0Fh ;# 
# 637 "C:\Program Files (x86)\Microchip\xc8\v1.33\include\pic16f877a.h"
T1CON equ 010h ;# 
# 711 "C:\Program Files (x86)\Microchip\xc8\v1.33\include\pic16f877a.h"
TMR2 equ 011h ;# 
# 717 "C:\Program Files (x86)\Microchip\xc8\v1.33\include\pic16f877a.h"
T2CON equ 012h ;# 
# 787 "C:\Program Files (x86)\Microchip\xc8\v1.33\include\pic16f877a.h"
SSPBUF equ 013h ;# 
# 793 "C:\Program Files (x86)\Microchip\xc8\v1.33\include\pic16f877a.h"
SSPCON equ 014h ;# 
# 862 "C:\Program Files (x86)\Microchip\xc8\v1.33\include\pic16f877a.h"
CCPR1 equ 015h ;# 
# 868 "C:\Program Files (x86)\Microchip\xc8\v1.33\include\pic16f877a.h"
CCPR1L equ 015h ;# 
# 874 "C:\Program Files (x86)\Microchip\xc8\v1.33\include\pic16f877a.h"
CCPR1H equ 016h ;# 
# 880 "C:\Program Files (x86)\Microchip\xc8\v1.33\include\pic16f877a.h"
CCP1CON equ 017h ;# 
# 937 "C:\Program Files (x86)\Microchip\xc8\v1.33\include\pic16f877a.h"
RCSTA equ 018h ;# 
# 1031 "C:\Program Files (x86)\Microchip\xc8\v1.33\include\pic16f877a.h"
TXREG equ 019h ;# 
# 1037 "C:\Program Files (x86)\Microchip\xc8\v1.33\include\pic16f877a.h"
RCREG equ 01Ah ;# 
# 1043 "C:\Program Files (x86)\Microchip\xc8\v1.33\include\pic16f877a.h"
CCPR2 equ 01Bh ;# 
# 1049 "C:\Program Files (x86)\Microchip\xc8\v1.33\include\pic16f877a.h"
CCPR2L equ 01Bh ;# 
# 1055 "C:\Program Files (x86)\Microchip\xc8\v1.33\include\pic16f877a.h"
CCPR2H equ 01Ch ;# 
# 1061 "C:\Program Files (x86)\Microchip\xc8\v1.33\include\pic16f877a.h"
CCP2CON equ 01Dh ;# 
# 1118 "C:\Program Files (x86)\Microchip\xc8\v1.33\include\pic16f877a.h"
ADRESH equ 01Eh ;# 
# 1124 "C:\Program Files (x86)\Microchip\xc8\v1.33\include\pic16f877a.h"
ADCON0 equ 01Fh ;# 
# 1219 "C:\Program Files (x86)\Microchip\xc8\v1.33\include\pic16f877a.h"
OPTION_REG equ 081h ;# 
# 1288 "C:\Program Files (x86)\Microchip\xc8\v1.33\include\pic16f877a.h"
TRISA equ 085h ;# 
# 1337 "C:\Program Files (x86)\Microchip\xc8\v1.33\include\pic16f877a.h"
TRISB equ 086h ;# 
# 1398 "C:\Program Files (x86)\Microchip\xc8\v1.33\include\pic16f877a.h"
TRISC equ 087h ;# 
# 1459 "C:\Program Files (x86)\Microchip\xc8\v1.33\include\pic16f877a.h"
TRISD equ 088h ;# 
# 1520 "C:\Program Files (x86)\Microchip\xc8\v1.33\include\pic16f877a.h"
TRISE equ 089h ;# 
# 1576 "C:\Program Files (x86)\Microchip\xc8\v1.33\include\pic16f877a.h"
PIE1 equ 08Ch ;# 
# 1637 "C:\Program Files (x86)\Microchip\xc8\v1.33\include\pic16f877a.h"
PIE2 equ 08Dh ;# 
# 1676 "C:\Program Files (x86)\Microchip\xc8\v1.33\include\pic16f877a.h"
PCON equ 08Eh ;# 
# 1709 "C:\Program Files (x86)\Microchip\xc8\v1.33\include\pic16f877a.h"
SSPCON2 equ 091h ;# 
# 1770 "C:\Program Files (x86)\Microchip\xc8\v1.33\include\pic16f877a.h"
PR2 equ 092h ;# 
# 1776 "C:\Program Files (x86)\Microchip\xc8\v1.33\include\pic16f877a.h"
SSPADD equ 093h ;# 
# 1782 "C:\Program Files (x86)\Microchip\xc8\v1.33\include\pic16f877a.h"
SSPSTAT equ 094h ;# 
# 1950 "C:\Program Files (x86)\Microchip\xc8\v1.33\include\pic16f877a.h"
TXSTA equ 098h ;# 
# 2030 "C:\Program Files (x86)\Microchip\xc8\v1.33\include\pic16f877a.h"
SPBRG equ 099h ;# 
# 2036 "C:\Program Files (x86)\Microchip\xc8\v1.33\include\pic16f877a.h"
CMCON equ 09Ch ;# 
# 2105 "C:\Program Files (x86)\Microchip\xc8\v1.33\include\pic16f877a.h"
CVRCON equ 09Dh ;# 
# 2169 "C:\Program Files (x86)\Microchip\xc8\v1.33\include\pic16f877a.h"
ADRESL equ 09Eh ;# 
# 2175 "C:\Program Files (x86)\Microchip\xc8\v1.33\include\pic16f877a.h"
ADCON1 equ 09Fh ;# 
# 2233 "C:\Program Files (x86)\Microchip\xc8\v1.33\include\pic16f877a.h"
EEDATA equ 010Ch ;# 
# 2239 "C:\Program Files (x86)\Microchip\xc8\v1.33\include\pic16f877a.h"
EEADR equ 010Dh ;# 
# 2245 "C:\Program Files (x86)\Microchip\xc8\v1.33\include\pic16f877a.h"
EEDATH equ 010Eh ;# 
# 2251 "C:\Program Files (x86)\Microchip\xc8\v1.33\include\pic16f877a.h"
EEADRH equ 010Fh ;# 
# 2257 "C:\Program Files (x86)\Microchip\xc8\v1.33\include\pic16f877a.h"
EECON1 equ 018Ch ;# 
# 2301 "C:\Program Files (x86)\Microchip\xc8\v1.33\include\pic16f877a.h"
EECON2 equ 018Dh ;# 
# 49 "C:\Program Files (x86)\Microchip\xc8\v1.33\include\pic16f877a.h"
INDF equ 00h ;# 
# 55 "C:\Program Files (x86)\Microchip\xc8\v1.33\include\pic16f877a.h"
TMR0 equ 01h ;# 
# 61 "C:\Program Files (x86)\Microchip\xc8\v1.33\include\pic16f877a.h"
PCL equ 02h ;# 
# 67 "C:\Program Files (x86)\Microchip\xc8\v1.33\include\pic16f877a.h"
STATUS equ 03h ;# 
# 154 "C:\Program Files (x86)\Microchip\xc8\v1.33\include\pic16f877a.h"
FSR equ 04h ;# 
# 160 "C:\Program Files (x86)\Microchip\xc8\v1.33\include\pic16f877a.h"
PORTA equ 05h ;# 
# 209 "C:\Program Files (x86)\Microchip\xc8\v1.33\include\pic16f877a.h"
PORTB equ 06h ;# 
# 270 "C:\Program Files (x86)\Microchip\xc8\v1.33\include\pic16f877a.h"
PORTC equ 07h ;# 
# 331 "C:\Program Files (x86)\Microchip\xc8\v1.33\include\pic16f877a.h"
PORTD equ 08h ;# 
# 392 "C:\Program Files (x86)\Microchip\xc8\v1.33\include\pic16f877a.h"
PORTE equ 09h ;# 
# 423 "C:\Program Files (x86)\Microchip\xc8\v1.33\include\pic16f877a.h"
PCLATH equ 0Ah ;# 
# 442 "C:\Program Files (x86)\Microchip\xc8\v1.33\include\pic16f877a.h"
INTCON equ 0Bh ;# 
# 519 "C:\Program Files (x86)\Microchip\xc8\v1.33\include\pic16f877a.h"
PIR1 equ 0Ch ;# 
# 580 "C:\Program Files (x86)\Microchip\xc8\v1.33\include\pic16f877a.h"
PIR2 equ 0Dh ;# 
# 619 "C:\Program Files (x86)\Microchip\xc8\v1.33\include\pic16f877a.h"
TMR1 equ 0Eh ;# 
# 625 "C:\Program Files (x86)\Microchip\xc8\v1.33\include\pic16f877a.h"
TMR1L equ 0Eh ;# 
# 631 "C:\Program Files (x86)\Microchip\xc8\v1.33\include\pic16f877a.h"
TMR1H equ 0Fh ;# 
# 637 "C:\Program Files (x86)\Microchip\xc8\v1.33\include\pic16f877a.h"
T1CON equ 010h ;# 
# 711 "C:\Program Files (x86)\Microchip\xc8\v1.33\include\pic16f877a.h"
TMR2 equ 011h ;# 
# 717 "C:\Program Files (x86)\Microchip\xc8\v1.33\include\pic16f877a.h"
T2CON equ 012h ;# 
# 787 "C:\Program Files (x86)\Microchip\xc8\v1.33\include\pic16f877a.h"
SSPBUF equ 013h ;# 
# 793 "C:\Program Files (x86)\Microchip\xc8\v1.33\include\pic16f877a.h"
SSPCON equ 014h ;# 
# 862 "C:\Program Files (x86)\Microchip\xc8\v1.33\include\pic16f877a.h"
CCPR1 equ 015h ;# 
# 868 "C:\Program Files (x86)\Microchip\xc8\v1.33\include\pic16f877a.h"
CCPR1L equ 015h ;# 
# 874 "C:\Program Files (x86)\Microchip\xc8\v1.33\include\pic16f877a.h"
CCPR1H equ 016h ;# 
# 880 "C:\Program Files (x86)\Microchip\xc8\v1.33\include\pic16f877a.h"
CCP1CON equ 017h ;# 
# 937 "C:\Program Files (x86)\Microchip\xc8\v1.33\include\pic16f877a.h"
RCSTA equ 018h ;# 
# 1031 "C:\Program Files (x86)\Microchip\xc8\v1.33\include\pic16f877a.h"
TXREG equ 019h ;# 
# 1037 "C:\Program Files (x86)\Microchip\xc8\v1.33\include\pic16f877a.h"
RCREG equ 01Ah ;# 
# 1043 "C:\Program Files (x86)\Microchip\xc8\v1.33\include\pic16f877a.h"
CCPR2 equ 01Bh ;# 
# 1049 "C:\Program Files (x86)\Microchip\xc8\v1.33\include\pic16f877a.h"
CCPR2L equ 01Bh ;# 
# 1055 "C:\Program Files (x86)\Microchip\xc8\v1.33\include\pic16f877a.h"
CCPR2H equ 01Ch ;# 
# 1061 "C:\Program Files (x86)\Microchip\xc8\v1.33\include\pic16f877a.h"
CCP2CON equ 01Dh ;# 
# 1118 "C:\Program Files (x86)\Microchip\xc8\v1.33\include\pic16f877a.h"
ADRESH equ 01Eh ;# 
# 1124 "C:\Program Files (x86)\Microchip\xc8\v1.33\include\pic16f877a.h"
ADCON0 equ 01Fh ;# 
# 1219 "C:\Program Files (x86)\Microchip\xc8\v1.33\include\pic16f877a.h"
OPTION_REG equ 081h ;# 
# 1288 "C:\Program Files (x86)\Microchip\xc8\v1.33\include\pic16f877a.h"
TRISA equ 085h ;# 
# 1337 "C:\Program Files (x86)\Microchip\xc8\v1.33\include\pic16f877a.h"
TRISB equ 086h ;# 
# 1398 "C:\Program Files (x86)\Microchip\xc8\v1.33\include\pic16f877a.h"
TRISC equ 087h ;# 
# 1459 "C:\Program Files (x86)\Microchip\xc8\v1.33\include\pic16f877a.h"
TRISD equ 088h ;# 
# 1520 "C:\Program Files (x86)\Microchip\xc8\v1.33\include\pic16f877a.h"
TRISE equ 089h ;# 
# 1576 "C:\Program Files (x86)\Microchip\xc8\v1.33\include\pic16f877a.h"
PIE1 equ 08Ch ;# 
# 1637 "C:\Program Files (x86)\Microchip\xc8\v1.33\include\pic16f877a.h"
PIE2 equ 08Dh ;# 
# 1676 "C:\Program Files (x86)\Microchip\xc8\v1.33\include\pic16f877a.h"
PCON equ 08Eh ;# 
# 1709 "C:\Program Files (x86)\Microchip\xc8\v1.33\include\pic16f877a.h"
SSPCON2 equ 091h ;# 
# 1770 "C:\Program Files (x86)\Microchip\xc8\v1.33\include\pic16f877a.h"
PR2 equ 092h ;# 
# 1776 "C:\Program Files (x86)\Microchip\xc8\v1.33\include\pic16f877a.h"
SSPADD equ 093h ;# 
# 1782 "C:\Program Files (x86)\Microchip\xc8\v1.33\include\pic16f877a.h"
SSPSTAT equ 094h ;# 
# 1950 "C:\Program Files (x86)\Microchip\xc8\v1.33\include\pic16f877a.h"
TXSTA equ 098h ;# 
# 2030 "C:\Program Files (x86)\Microchip\xc8\v1.33\include\pic16f877a.h"
SPBRG equ 099h ;# 
# 2036 "C:\Program Files (x86)\Microchip\xc8\v1.33\include\pic16f877a.h"
CMCON equ 09Ch ;# 
# 2105 "C:\Program Files (x86)\Microchip\xc8\v1.33\include\pic16f877a.h"
CVRCON equ 09Dh ;# 
# 2169 "C:\Program Files (x86)\Microchip\xc8\v1.33\include\pic16f877a.h"
ADRESL equ 09Eh ;# 
# 2175 "C:\Program Files (x86)\Microchip\xc8\v1.33\include\pic16f877a.h"
ADCON1 equ 09Fh ;# 
# 2233 "C:\Program Files (x86)\Microchip\xc8\v1.33\include\pic16f877a.h"
EEDATA equ 010Ch ;# 
# 2239 "C:\Program Files (x86)\Microchip\xc8\v1.33\include\pic16f877a.h"
EEADR equ 010Dh ;# 
# 2245 "C:\Program Files (x86)\Microchip\xc8\v1.33\include\pic16f877a.h"
EEDATH equ 010Eh ;# 
# 2251 "C:\Program Files (x86)\Microchip\xc8\v1.33\include\pic16f877a.h"
EEADRH equ 010Fh ;# 
# 2257 "C:\Program Files (x86)\Microchip\xc8\v1.33\include\pic16f877a.h"
EECON1 equ 018Ch ;# 
# 2301 "C:\Program Files (x86)\Microchip\xc8\v1.33\include\pic16f877a.h"
EECON2 equ 018Dh ;# 
	FNCALL	_main,_PWM_DutyCycle1
	FNCALL	_main,_PWM_DutyCycle2
	FNCALL	_main,_PWM_Init
	FNCALL	_main,_TIMER0_Init
	FNCALL	_main,_TIMER0_Set
	FNCALL	_main,_USART_Init
	FNCALL	_USART_Init,___aldiv
	FNROOT	_main
	FNCALL	_ISR,_USART_ReceiveChar
	FNCALL	_ISR,_USART_WriteChar
	FNCALL	_ISR,___awdiv
	FNCALL	_ISR,___awmod
	FNCALL	_ISR,___awtoft
	FNCALL	_ISR,___bmul
	FNCALL	_ISR,___ftadd
	FNCALL	_ISR,___ftdiv
	FNCALL	_ISR,___ftge
	FNCALL	_ISR,___ftmul
	FNCALL	_ISR,___ftneg
	FNCALL	_ISR,___fttol
	FNCALL	_ISR,___lwdiv
	FNCALL	_ISR,___lwtoft
	FNCALL	_ISR,___wmul
	FNCALL	_ISR,_abs
	FNCALL	_ISR,_maximo
	FNCALL	_ISR,_minimo
	FNCALL	_ISR,_trapmf
	FNCALL	_ISR,i1_PWM_DutyCycle2
	FNCALL	_ISR,i1_TIMER0_Set
	FNCALL	_trapmf,___ftadd
	FNCALL	_trapmf,___ftdiv
	FNCALL	_trapmf,___ftge
	FNCALL	_trapmf,___ftneg
	FNCALL	___ftdiv,___ftpack
	FNCALL	___ftadd,___ftpack
	FNCALL	_minimo,___ftge
	FNCALL	_maximo,___ftge
	FNCALL	___lwtoft,___ftpack
	FNCALL	___ftmul,___ftpack
	FNCALL	___awtoft,___ftpack
	FNCALL	_USART_ReceiveChar,_USART_WriteString
	FNCALL	_USART_WriteString,_USART_WriteChar
	FNCALL	intlevel1,_ISR
	global	intlevel1
	FNROOT	intlevel1
	global	_setpoint
psect	idataBANK1,class=CODE,space=0,delta=2,noexec
global __pidataBANK1
__pidataBANK1:
	file	"C:\Users\filip\programs\FuzzySI\firmware - Copia\main.c"
	line	46

;initializer for _setpoint
	retlw	088h
	retlw	013h

	global	_contador_rb6
	global	_receiveIndex
	global	_tempo_rb6
	global	_buffer
	global	_contagens_tm0
	global	_erro_anterior
	global	_erro_atual
	global	_pulsos
	global	_pwm
	global	_rpm
	global	_rGrande
	global	_rMedio
	global	_rBaixo
	global	_TMR1
_TMR1	set	0xE
	global	_ADCON0bits
_ADCON0bits	set	0x1F
	global	_ADRESH
_ADRESH	set	0x1E
	global	_CCP1CON
_CCP1CON	set	0x17
	global	_CCP1CONbits
_CCP1CONbits	set	0x17
	global	_CCP2CON
_CCP2CON	set	0x1D
	global	_CCP2CONbits
_CCP2CONbits	set	0x1D
	global	_CCPR1L
_CCPR1L	set	0x15
	global	_CCPR2L
_CCPR2L	set	0x1B
	global	_INTCONbits
_INTCONbits	set	0xB
	global	_PIR1bits
_PIR1bits	set	0xC
	global	_PIR2bits
_PIR2bits	set	0xD
	global	_PORTA
_PORTA	set	0x5
	global	_PORTB
_PORTB	set	0x6
	global	_PORTBbits
_PORTBbits	set	0x6
	global	_PORTC
_PORTC	set	0x7
	global	_PORTD
_PORTD	set	0x8
	global	_PORTE
_PORTE	set	0x9
	global	_PORTEbits
_PORTEbits	set	0x9
	global	_RCREG
_RCREG	set	0x1A
	global	_RCSTAbits
_RCSTAbits	set	0x18
	global	_SSPBUF
_SSPBUF	set	0x13
	global	_SSPCONbits
_SSPCONbits	set	0x14
	global	_T1CON
_T1CON	set	0x10
	global	_T1CONbits
_T1CONbits	set	0x10
	global	_T2CONbits
_T2CONbits	set	0x12
	global	_TMR0
_TMR0	set	0x1
	global	_TMR1H
_TMR1H	set	0xF
	global	_TMR1L
_TMR1L	set	0xE
	global	_TXREG
_TXREG	set	0x19
	global	_OERR
_OERR	set	0xC1
	global	_ADCON1bits
_ADCON1bits	set	0x9F
	global	_ADRESL
_ADRESL	set	0x9E
	global	_OPTION_REGbits
_OPTION_REGbits	set	0x81
	global	_PIE1bits
_PIE1bits	set	0x8C
	global	_PIE2bits
_PIE2bits	set	0x8D
	global	_PR2
_PR2	set	0x92
	global	_SPBRG
_SPBRG	set	0x99
	global	_SSPADD
_SSPADD	set	0x93
	global	_SSPCON2
_SSPCON2	set	0x91
	global	_SSPCON2bits
_SSPCON2bits	set	0x91
	global	_SSPSTATbits
_SSPSTATbits	set	0x94
	global	_TRISA
_TRISA	set	0x85
	global	_TRISB
_TRISB	set	0x86
	global	_TRISC
_TRISC	set	0x87
	global	_TRISD
_TRISD	set	0x88
	global	_TRISE
_TRISE	set	0x89
	global	_TXSTAbits
_TXSTAbits	set	0x98
	global	_EEADR
_EEADR	set	0x10D
	global	_EEDATA
_EEDATA	set	0x10C
	global	_EECON1bits
_EECON1bits	set	0x18C
	global	_EECON2
_EECON2	set	0x18D
psect	strings,class=STRING,delta=2,noexec
global __pstrings
__pstrings:
stringtab:
	global    __stringtab
__stringtab:
;	String table - string pointers are 1 byte each
stringcode:stringdir:
movlw high(stringdir)
movwf pclath
movf fsr,w
incf fsr
	addwf pc
	global __stringbase
__stringbase:
	retlw	0
psect	strings
	global    __end_of__stringtab
__end_of__stringtab:
	global __stringdata
__stringdata:
	
STR_1:	
	retlw	10
	retlw	13
	retlw	32	;' '
	retlw	45	;'-'
	retlw	45	;'-'
	retlw	45	;'-'
	retlw	45	;'-'
	retlw	45	;'-'
	retlw	45	;'-'
	retlw	45	;'-'
	retlw	32	;' '
	retlw	69	;'E'
	retlw	83	;'S'
	retlw	84	;'T'
	retlw	79	;'O'
	retlw	85	;'U'
	retlw	82	;'R'
	retlw	79	;'O'
	retlw	32	;' '
	retlw	68	;'D'
	retlw	69	;'E'
	retlw	32	;' '
	retlw	80	;'P'
	retlw	73	;'I'
	retlw	76	;'L'
	retlw	72	;'H'
	retlw	65	;'A'
	retlw	32	;' '
	retlw	45	;'-'
	retlw	45	;'-'
	retlw	45	;'-'
	retlw	45	;'-'
	retlw	45	;'-'
	retlw	45	;'-'
	retlw	45	;'-'
	retlw	32	;' '
	retlw	10
	retlw	13
	retlw	32	;' '
	retlw	0
psect	strings
	global __end_of__stringdata
__end_of__stringdata:
; #config settings
global __CFG_WDTE$OFF
__CFG_WDTE$OFF equ 0x0
global __CFG_PWRTE$ON
__CFG_PWRTE$ON equ 0x0
global __CFG_CP$OFF
__CFG_CP$OFF equ 0x0
global __CFG_BOREN$OFF
__CFG_BOREN$OFF equ 0x0
global __CFG_LVP$OFF
__CFG_LVP$OFF equ 0x0
global __CFG_CPD$OFF
__CFG_CPD$OFF equ 0x0
global __CFG_FOSC$HS
__CFG_FOSC$HS equ 0x0
	file	"PIC16F877A.as"
	line	#
psect cinit,class=CODE,delta=2
global start_initialization
start_initialization:

global __initialization
__initialization:
psect	bssBANK0,class=BANK0,space=1,noexec
global __pbssBANK0
__pbssBANK0:
_contador_rb6:
       ds      2

_receiveIndex:
       ds      2

_tempo_rb6:
       ds      2

psect	bssBANK1,class=BANK1,space=1,noexec
global __pbssBANK1
__pbssBANK1:
_buffer:
       ds      7

_contagens_tm0:
       ds      2

_erro_anterior:
       ds      2

_erro_atual:
       ds      2

_pulsos:
       ds      2

_pwm:
       ds      2

_rpm:
       ds      2

psect	dataBANK1,class=BANK1,space=1,noexec
global __pdataBANK1
__pdataBANK1:
	file	"C:\Users\filip\programs\FuzzySI\firmware - Copia\main.c"
	line	46
_setpoint:
       ds      2

psect	bssBANK3,class=BANK3,space=1,noexec
global __pbssBANK3
__pbssBANK3:
_rBaixo:
       ds      48

psect	bssBANK2,class=BANK2,space=1,noexec
global __pbssBANK2
__pbssBANK2:
_rGrande:
       ds      48

_rMedio:
       ds      48

	file	"PIC16F877A.as"
	line	#
psect clrtext,class=CODE,delta=2
global clear_ram0
;	Called with FSR containing the base address, and
;	W with the last address+1
clear_ram0:
	clrwdt			;clear the watchdog before getting into this loop
clrloop0:
	clrf	indf		;clear RAM location pointed to by FSR
	incf	fsr,f		;increment pointer
	xorwf	fsr,w		;XOR with final address
	btfsc	status,2	;have we reached the end yet?
	retlw	0		;all done for this memory range, return
	xorwf	fsr,w		;XOR again to restore value
	goto	clrloop0		;do the next byte

; Clear objects allocated to BANK0
psect cinit,class=CODE,delta=2,merge=1
	clrf	((__pbssBANK0)+0)&07Fh
	clrf	((__pbssBANK0)+1)&07Fh
	clrf	((__pbssBANK0)+2)&07Fh
	clrf	((__pbssBANK0)+3)&07Fh
	clrf	((__pbssBANK0)+4)&07Fh
	clrf	((__pbssBANK0)+5)&07Fh
; Clear objects allocated to BANK1
psect cinit,class=CODE,delta=2,merge=1
	bcf	status, 7	;select IRP bank0
	movlw	low(__pbssBANK1)
	movwf	fsr
	movlw	low((__pbssBANK1)+013h)
	fcall	clear_ram0
; Clear objects allocated to BANK3
psect cinit,class=CODE,delta=2,merge=1
	bsf	status, 7	;select IRP bank2
	movlw	low(__pbssBANK3)
	movwf	fsr
	movlw	low((__pbssBANK3)+030h)
	fcall	clear_ram0
; Clear objects allocated to BANK2
psect cinit,class=CODE,delta=2,merge=1
	movlw	low(__pbssBANK2)
	movwf	fsr
	movlw	low((__pbssBANK2)+060h)
	fcall	clear_ram0
	line	#
; Initialize objects allocated to BANK1
	global __pidataBANK1
psect cinit,class=CODE,delta=2,merge=1
	bsf	status, 5	;RP0=1, select bank1
	bcf	status, 6	;RP1=0, select bank1
	fcall	__pidataBANK1+0		;fetch initializer
	movwf	__pdataBANK1+0&07fh		
	fcall	__pidataBANK1+1		;fetch initializer
	movwf	__pdataBANK1+1&07fh		
psect cinit,class=CODE,delta=2,merge=1
global end_of_initialization,__end_of__initialization

;End of C runtime variable initialization code

end_of_initialization:
__end_of__initialization:clrf status
ljmp _main	;jump to C main() function
psect	cstackBANK3,class=BANK3,space=1,noexec
global __pcstackBANK3
__pcstackBANK3:
??_TIMER0_Set:	; 0 bytes @ 0x0
?_PWM_DutyCycle2:	; 0 bytes @ 0x0
??_TIMER0_Init:	; 0 bytes @ 0x0
??_PWM_Init:	; 0 bytes @ 0x0
?_PWM_DutyCycle1:	; 0 bytes @ 0x0
	global	?___aldiv
?___aldiv:	; 4 bytes @ 0x0
	global	TIMER0_Set@contagens
TIMER0_Set@contagens:	; 1 bytes @ 0x0
	global	PWM_DutyCycle1@valor
PWM_DutyCycle1@valor:	; 2 bytes @ 0x0
	global	PWM_DutyCycle2@valor
PWM_DutyCycle2@valor:	; 2 bytes @ 0x0
	global	___aldiv@divisor
___aldiv@divisor:	; 4 bytes @ 0x0
	ds	2
??_PWM_DutyCycle2:	; 0 bytes @ 0x2
??_PWM_DutyCycle1:	; 0 bytes @ 0x2
	ds	2
	global	___aldiv@dividend
___aldiv@dividend:	; 4 bytes @ 0x4
	ds	4
??___aldiv:	; 0 bytes @ 0x8
	ds	1
	global	___aldiv@counter
___aldiv@counter:	; 1 bytes @ 0x9
	ds	1
	global	___aldiv@sign
___aldiv@sign:	; 1 bytes @ 0xA
	ds	1
	global	___aldiv@quotient
___aldiv@quotient:	; 4 bytes @ 0xB
	ds	4
?_USART_Init:	; 0 bytes @ 0xF
	global	USART_Init@BaudRate
USART_Init@BaudRate:	; 4 bytes @ 0xF
	ds	4
??_USART_Init:	; 0 bytes @ 0x13
	ds	4
??_main:	; 0 bytes @ 0x17
	ds	3
psect	cstackBANK1,class=BANK1,space=1,noexec
global __pcstackBANK1
__pcstackBANK1:
	global	_ISR$1636
_ISR$1636:	; 3 bytes @ 0x0
	ds	3
	global	_ISR$1637
_ISR$1637:	; 3 bytes @ 0x3
	ds	3
	global	ISR@reajuste
ISR@reajuste:	; 3 bytes @ 0x6
	ds	3
	global	_ISR$218
_ISR$218:	; 2 bytes @ 0x9
	ds	2
	global	ISR@delta
ISR@delta:	; 2 bytes @ 0xB
	ds	2
	global	ISR@soma
ISR@soma:	; 3 bytes @ 0xD
	ds	3
	global	ISR@a
ISR@a:	; 2 bytes @ 0x10
	ds	2
	global	ISR@a_211
ISR@a_211:	; 2 bytes @ 0x12
	ds	2
	global	ISR@a_212
ISR@a_212:	; 2 bytes @ 0x14
	ds	2
	global	ISR@a_213
ISR@a_213:	; 2 bytes @ 0x16
	ds	2
	global	ISR@total_area
ISR@total_area:	; 3 bytes @ 0x18
	ds	3
	global	ISR@rule
ISR@rule:	; 3 bytes @ 0x1B
	ds	3
	global	ISR@a_216
ISR@a_216:	; 2 bytes @ 0x1E
	ds	2
	global	ISR@rpmAux
ISR@rpmAux:	; 2 bytes @ 0x20
	ds	2
	global	ISR@x
ISR@x:	; 3 bytes @ 0x22
	ds	3
psect	cstackCOMMON,class=COMMON,space=1,noexec
global __pcstackCOMMON
__pcstackCOMMON:
?_TIMER0_Set:	; 0 bytes @ 0x0
?_USART_WriteChar:	; 0 bytes @ 0x0
??_USART_WriteChar:	; 0 bytes @ 0x0
?_TIMER0_Init:	; 0 bytes @ 0x0
?_PWM_Init:	; 0 bytes @ 0x0
?_ISR:	; 0 bytes @ 0x0
?_main:	; 0 bytes @ 0x0
?_USART_WriteString:	; 0 bytes @ 0x0
?i1_TIMER0_Set:	; 0 bytes @ 0x0
??i1_TIMER0_Set:	; 0 bytes @ 0x0
?i1_PWM_DutyCycle2:	; 0 bytes @ 0x0
?_USART_ReceiveChar:	; 1 bytes @ 0x0
?___bmul:	; 1 bytes @ 0x0
	global	?_abs
?_abs:	; 2 bytes @ 0x0
	global	?___awdiv
?___awdiv:	; 2 bytes @ 0x0
	global	?___awmod
?___awmod:	; 2 bytes @ 0x0
	global	?___lwdiv
?___lwdiv:	; 2 bytes @ 0x0
	global	?___ftpack
?___ftpack:	; 3 bytes @ 0x0
	global	USART_WriteChar@byte
USART_WriteChar@byte:	; 1 bytes @ 0x0
	global	___bmul@multiplicand
___bmul@multiplicand:	; 1 bytes @ 0x0
	global	i1TIMER0_Set@contagens
i1TIMER0_Set@contagens:	; 1 bytes @ 0x0
	global	abs@a
abs@a:	; 2 bytes @ 0x0
	global	___awdiv@divisor
___awdiv@divisor:	; 2 bytes @ 0x0
	global	___awmod@divisor
___awmod@divisor:	; 2 bytes @ 0x0
	global	___lwdiv@divisor
___lwdiv@divisor:	; 2 bytes @ 0x0
	global	i1PWM_DutyCycle2@valor
i1PWM_DutyCycle2@valor:	; 2 bytes @ 0x0
	global	___ftpack@arg
___ftpack@arg:	; 3 bytes @ 0x0
	ds	1
??_USART_WriteString:	; 0 bytes @ 0x1
??___bmul:	; 0 bytes @ 0x1
	ds	1
??_abs:	; 0 bytes @ 0x2
??i1_PWM_DutyCycle2:	; 0 bytes @ 0x2
	global	USART_WriteString@str
USART_WriteString@str:	; 1 bytes @ 0x2
	global	___bmul@product
___bmul@product:	; 1 bytes @ 0x2
	global	___awdiv@dividend
___awdiv@dividend:	; 2 bytes @ 0x2
	global	___awmod@dividend
___awmod@dividend:	; 2 bytes @ 0x2
	global	___lwdiv@dividend
___lwdiv@dividend:	; 2 bytes @ 0x2
	ds	1
??_USART_ReceiveChar:	; 0 bytes @ 0x3
	global	___bmul@multiplier
___bmul@multiplier:	; 1 bytes @ 0x3
	global	___ftpack@exp
___ftpack@exp:	; 1 bytes @ 0x3
	ds	1
??___awdiv:	; 0 bytes @ 0x4
??___awmod:	; 0 bytes @ 0x4
?___ftge:	; 1 bit 
??___lwdiv:	; 0 bytes @ 0x4
	global	USART_ReceiveChar@byte
USART_ReceiveChar@byte:	; 1 bytes @ 0x4
	global	___ftpack@sign
___ftpack@sign:	; 1 bytes @ 0x4
	global	___ftge@ff1
___ftge@ff1:	; 3 bytes @ 0x4
	ds	1
??___ftpack:	; 0 bytes @ 0x5
	global	___awdiv@counter
___awdiv@counter:	; 1 bytes @ 0x5
	global	___awmod@counter
___awmod@counter:	; 1 bytes @ 0x5
	global	___lwdiv@quotient
___lwdiv@quotient:	; 2 bytes @ 0x5
	ds	1
	global	___awdiv@sign
___awdiv@sign:	; 1 bytes @ 0x6
	global	___awmod@sign
___awmod@sign:	; 1 bytes @ 0x6
	ds	1
	global	___lwdiv@counter
___lwdiv@counter:	; 1 bytes @ 0x7
	global	___awdiv@quotient
___awdiv@quotient:	; 2 bytes @ 0x7
	global	___ftge@ff2
___ftge@ff2:	; 3 bytes @ 0x7
	ds	1
	global	?___awtoft
?___awtoft:	; 3 bytes @ 0x8
	global	___awtoft@c
___awtoft@c:	; 2 bytes @ 0x8
	ds	3
??___awtoft:	; 0 bytes @ 0xB
	ds	2
	global	___awtoft@sign
___awtoft@sign:	; 1 bytes @ 0xD
	ds	1
??_maximo:	; 0 bytes @ 0xE
??_minimo:	; 0 bytes @ 0xE
??_trapmf:	; 0 bytes @ 0xE
??___wmul:	; 0 bytes @ 0xE
??___ftneg:	; 0 bytes @ 0xE
psect	cstackBANK0,class=BANK0,space=1,noexec
global __pcstackBANK0
__pcstackBANK0:
??___ftge:	; 0 bytes @ 0x0
	global	?___ftneg
?___ftneg:	; 3 bytes @ 0x0
	global	___ftneg@f1
___ftneg@f1:	; 3 bytes @ 0x0
	ds	3
	global	?___ftadd
?___ftadd:	; 3 bytes @ 0x3
	global	___ftadd@f1
___ftadd@f1:	; 3 bytes @ 0x3
	ds	3
	global	?_minimo
?_minimo:	; 3 bytes @ 0x6
	global	minimo@a
minimo@a:	; 3 bytes @ 0x6
	global	___ftadd@f2
___ftadd@f2:	; 3 bytes @ 0x6
	ds	3
??___ftadd:	; 0 bytes @ 0x9
	global	minimo@b
minimo@b:	; 3 bytes @ 0x9
	ds	3
	global	?_maximo
?_maximo:	; 3 bytes @ 0xC
	global	maximo@a
maximo@a:	; 3 bytes @ 0xC
	ds	1
	global	___ftadd@sign
___ftadd@sign:	; 1 bytes @ 0xD
	ds	1
	global	___ftadd@exp2
___ftadd@exp2:	; 1 bytes @ 0xE
	ds	1
	global	___ftadd@exp1
___ftadd@exp1:	; 1 bytes @ 0xF
	global	maximo@b
maximo@b:	; 3 bytes @ 0xF
	ds	1
	global	?___ftdiv
?___ftdiv:	; 3 bytes @ 0x10
	global	___ftdiv@f2
___ftdiv@f2:	; 3 bytes @ 0x10
	ds	2
	global	?___fttol
?___fttol:	; 4 bytes @ 0x12
	global	___fttol@f1
___fttol@f1:	; 3 bytes @ 0x12
	ds	1
	global	___ftdiv@f1
___ftdiv@f1:	; 3 bytes @ 0x13
	ds	3
??___ftdiv:	; 0 bytes @ 0x16
??___fttol:	; 0 bytes @ 0x16
	ds	4
	global	___ftdiv@cntr
___ftdiv@cntr:	; 1 bytes @ 0x1A
	global	___fttol@sign1
___fttol@sign1:	; 1 bytes @ 0x1A
	ds	1
	global	___ftdiv@f3
___ftdiv@f3:	; 3 bytes @ 0x1B
	global	___fttol@lval
___fttol@lval:	; 4 bytes @ 0x1B
	ds	3
	global	___ftdiv@exp
___ftdiv@exp:	; 1 bytes @ 0x1E
	ds	1
	global	___ftdiv@sign
___ftdiv@sign:	; 1 bytes @ 0x1F
	global	___fttol@exp1
___fttol@exp1:	; 1 bytes @ 0x1F
	ds	1
	global	?___wmul
?___wmul:	; 2 bytes @ 0x20
	global	?_trapmf
?_trapmf:	; 3 bytes @ 0x20
	global	___wmul@multiplier
___wmul@multiplier:	; 2 bytes @ 0x20
	global	trapmf@x
trapmf@x:	; 3 bytes @ 0x20
	ds	2
	global	___wmul@multiplicand
___wmul@multiplicand:	; 2 bytes @ 0x22
	ds	1
	global	trapmf@a
trapmf@a:	; 3 bytes @ 0x23
	ds	1
	global	___wmul@product
___wmul@product:	; 2 bytes @ 0x24
	ds	2
	global	?___lwtoft
?___lwtoft:	; 3 bytes @ 0x26
	global	___lwtoft@c
___lwtoft@c:	; 2 bytes @ 0x26
	global	trapmf@b
trapmf@b:	; 3 bytes @ 0x26
	ds	3
??___lwtoft:	; 0 bytes @ 0x29
	global	trapmf@c
trapmf@c:	; 3 bytes @ 0x29
	ds	3
	global	trapmf@d
trapmf@d:	; 3 bytes @ 0x2C
	ds	3
	global	trapmf@ua
trapmf@ua:	; 3 bytes @ 0x2F
	ds	3
	global	?___ftmul
?___ftmul:	; 3 bytes @ 0x32
	global	___ftmul@f1
___ftmul@f1:	; 3 bytes @ 0x32
	ds	3
	global	___ftmul@f2
___ftmul@f2:	; 3 bytes @ 0x35
	ds	3
??___ftmul:	; 0 bytes @ 0x38
	ds	4
	global	___ftmul@exp
___ftmul@exp:	; 1 bytes @ 0x3C
	ds	1
	global	___ftmul@f3_as_product
___ftmul@f3_as_product:	; 3 bytes @ 0x3D
	ds	3
	global	___ftmul@cntr
___ftmul@cntr:	; 1 bytes @ 0x40
	ds	1
	global	___ftmul@sign
___ftmul@sign:	; 1 bytes @ 0x41
	ds	1
??_ISR:	; 0 bytes @ 0x42
	ds	6
;!
;!Data Sizes:
;!    Strings     40
;!    Constant    0
;!    Data        2
;!    BSS         169
;!    Persistent  0
;!    Stack       0
;!
;!Auto Spaces:
;!    Space          Size  Autos    Used
;!    COMMON           14     14      14
;!    BANK0            80     72      78
;!    BANK1            80     37      58
;!    BANK3            96     26      74
;!    BANK2            96      0      96

;!
;!Pointer List with Targets:
;!
;!    USART_WriteString@str	PTR const unsigned char  size(1) Largest target is 40
;!		 -> STR_1(CODE[40]), 
;!


;!
;!Critical Paths under _main in COMMON
;!
;!    None.
;!
;!Critical Paths under _ISR in COMMON
;!
;!    _ISR->___awtoft
;!    _trapmf->___awtoft
;!    ___ftneg->___awtoft
;!    ___ftadd->___awtoft
;!    _minimo->___awtoft
;!    _maximo->___awtoft
;!    ___ftge->___bmul
;!    ___wmul->___awtoft
;!    ___lwtoft->___awtoft
;!    ___fttol->___awtoft
;!    ___ftmul->___awtoft
;!    ___awtoft->___ftpack
;!    _USART_ReceiveChar->_USART_WriteString
;!    _USART_WriteString->_USART_WriteChar
;!
;!Critical Paths under _main in BANK0
;!
;!    None.
;!
;!Critical Paths under _ISR in BANK0
;!
;!    _ISR->___ftmul
;!    _trapmf->___ftdiv
;!    ___ftdiv->___ftadd
;!    ___ftadd->___ftneg
;!    _minimo->___ftge
;!    _maximo->_minimo
;!    ___wmul->___fttol
;!    ___lwtoft->___wmul
;!    ___fttol->_maximo
;!    ___ftmul->_trapmf
;!
;!Critical Paths under _main in BANK1
;!
;!    None.
;!
;!Critical Paths under _ISR in BANK1
;!
;!    None.
;!
;!Critical Paths under _main in BANK3
;!
;!    _main->_USART_Init
;!    _USART_Init->___aldiv
;!
;!Critical Paths under _ISR in BANK3
;!
;!    None.
;!
;!Critical Paths under _main in BANK2
;!
;!    None.
;!
;!Critical Paths under _ISR in BANK2
;!
;!    None.

;;
;;Main: autosize = 0, tempsize = 3, incstack = 0, save=0
;;

;!
;!Call Graph Tables:
;!
;! ---------------------------------------------------------------------------------
;! (Depth) Function   	        Calls       Base Space   Used Autos Params    Refs
;! ---------------------------------------------------------------------------------
;! (0) _main                                                 3     3      0    1058
;!                                             23 BANK3      3     3      0
;!                     _PWM_DutyCycle1
;!                     _PWM_DutyCycle2
;!                           _PWM_Init
;!                        _TIMER0_Init
;!                         _TIMER0_Set
;!                         _USART_Init
;! ---------------------------------------------------------------------------------
;! (1) _USART_Init                                           8     4      4     707
;!                                             15 BANK3      8     4      4
;!                            ___aldiv
;! ---------------------------------------------------------------------------------
;! (2) ___aldiv                                             15     7      8     599
;!                                              0 BANK3     15     7      8
;! ---------------------------------------------------------------------------------
;! (1) _TIMER0_Set                                           1     1      0      31
;!                                              0 BANK3      1     1      0
;! ---------------------------------------------------------------------------------
;! (1) _TIMER0_Init                                          0     0      0       0
;! ---------------------------------------------------------------------------------
;! (1) _PWM_Init                                             0     0      0       0
;! ---------------------------------------------------------------------------------
;! (1) _PWM_DutyCycle2                                       4     2      2     181
;!                                              0 BANK3      4     2      2
;! ---------------------------------------------------------------------------------
;! (1) _PWM_DutyCycle1                                       4     2      2     139
;!                                              0 BANK3      4     2      2
;! ---------------------------------------------------------------------------------
;! Estimated maximum stack depth 2
;! ---------------------------------------------------------------------------------
;! (Depth) Function   	        Calls       Base Space   Used Autos Params    Refs
;! ---------------------------------------------------------------------------------
;! (3) _ISR                                                 43    43      0   51995
;!                                             66 BANK0      6     6      0
;!                                              0 BANK1     37    37      0
;!                  _USART_ReceiveChar
;!                    _USART_WriteChar
;!                            ___awdiv
;!                            ___awmod
;!                           ___awtoft
;!                             ___bmul
;!                            ___ftadd
;!                            ___ftdiv
;!                             ___ftge
;!                            ___ftmul
;!                            ___ftneg
;!                            ___fttol
;!                            ___lwdiv
;!                           ___lwtoft
;!                             ___wmul
;!                                _abs
;!                             _maximo
;!                             _minimo
;!                             _trapmf
;!                   i1_PWM_DutyCycle2
;!                       i1_TIMER0_Set
;! ---------------------------------------------------------------------------------
;! (4) i1_TIMER0_Set                                         1     1      0      22
;!                                              0 COMMON     1     1      0
;! ---------------------------------------------------------------------------------
;! (4) i1_PWM_DutyCycle2                                     4     2      2      70
;!                                              0 COMMON     4     2      2
;! ---------------------------------------------------------------------------------
;! (4) _trapmf                                              18     3     15   17597
;!                                             32 BANK0     18     3     15
;!                           ___awtoft (ARG)
;!                            ___ftadd
;!                            ___ftdiv
;!                             ___ftge
;!                            ___ftneg
;! ---------------------------------------------------------------------------------
;! (5) ___ftneg                                              3     0      3     365
;!                                              0 BANK0      3     0      3
;!                           ___awtoft (ARG)
;! ---------------------------------------------------------------------------------
;! (5) ___ftdiv                                             16    10      6    2751
;!                                             16 BANK0     16    10      6
;!                            ___ftadd (ARG)
;!                            ___ftneg (ARG)
;!                           ___ftpack
;! ---------------------------------------------------------------------------------
;! (5) ___ftadd                                             13     7      6    6867
;!                                              3 BANK0     13     7      6
;!                           ___awtoft (ARG)
;!                             ___bmul (ARG)
;!                            ___ftneg (ARG)
;!                           ___ftpack
;! ---------------------------------------------------------------------------------
;! (4) _minimo                                               6     0      6    2528
;!                                              6 BANK0      6     0      6
;!                           ___awtoft (ARG)
;!                             ___ftge
;!                                _abs (ARG)
;! ---------------------------------------------------------------------------------
;! (4) _maximo                                               6     0      6    2272
;!                                             12 BANK0      6     0      6
;!                           ___awtoft (ARG)
;!                             ___ftge
;!                                _abs (ARG)
;!                             _minimo (ARG)
;! ---------------------------------------------------------------------------------
;! (5) ___ftge                                              12     6      6    1928
;!                                              4 COMMON     6     0      6
;!                                              0 BANK0      6     6      0
;!                             ___bmul (ARG)
;! ---------------------------------------------------------------------------------
;! (4) _abs                                                  4     2      2     194
;!                                              0 COMMON     4     2      2
;! ---------------------------------------------------------------------------------
;! (4) ___wmul                                               6     2      4    1844
;!                                             32 BANK0      6     2      4
;!                  _USART_ReceiveChar (ARG)
;!                           ___awtoft (ARG)
;!                            ___fttol (ARG)
;!                            ___lwdiv (ARG)
;!                             _maximo (ARG)
;!                             _minimo (ARG)
;! ---------------------------------------------------------------------------------
;! (4) ___lwtoft                                             4     1      3    2173
;!                                             38 BANK0      4     1      3
;!                           ___awtoft (ARG)
;!                           ___ftpack
;!                            ___fttol (ARG)
;!                             ___wmul (ARG)
;!                             _maximo (ARG)
;!                             _minimo (ARG)
;! ---------------------------------------------------------------------------------
;! (4) ___lwdiv                                              8     4      4     290
;!                                              0 COMMON     8     4      4
;! ---------------------------------------------------------------------------------
;! (4) ___fttol                                             14    10      4     508
;!                                             18 BANK0     14    10      4
;!                           ___awtoft (ARG)
;!                                _abs (ARG)
;!                             _maximo (ARG)
;!                             _minimo (ARG)
;! ---------------------------------------------------------------------------------
;! (4) ___ftmul                                             16    10      6    3053
;!                                             50 BANK0     16    10      6
;!                           ___awtoft (ARG)
;!                             ___bmul (ARG)
;!                            ___ftadd (ARG)
;!                            ___ftneg (ARG)
;!                           ___ftpack
;!                             _trapmf (ARG)
;! ---------------------------------------------------------------------------------
;! (4) ___bmul                                               4     3      1     560
;!                                              0 COMMON     4     3      1
;! ---------------------------------------------------------------------------------
;! (4) ___awtoft                                             6     3      3    2754
;!                                              8 COMMON     6     3      3
;!                           ___ftpack
;!                                _abs (ARG)
;! ---------------------------------------------------------------------------------
;! (6) ___ftpack                                             8     3      5    2087
;!                                              0 COMMON     8     3      5
;! ---------------------------------------------------------------------------------
;! (4) ___awmod                                              7     3      4    1192
;!                                              0 COMMON     7     3      4
;! ---------------------------------------------------------------------------------
;! (4) ___awdiv                                              9     5      4    1068
;!                                              0 COMMON     9     5      4
;! ---------------------------------------------------------------------------------
;! (4) _USART_ReceiveChar                                    2     2      0     121
;!                                              3 COMMON     2     2      0
;!                  _USART_WriteString
;! ---------------------------------------------------------------------------------
;! (5) _USART_WriteString                                    2     2      0      97
;!                                              1 COMMON     2     2      0
;!                    _USART_WriteChar
;! ---------------------------------------------------------------------------------
;! (4) _USART_WriteChar                                      1     1      0      22
;!                                              0 COMMON     1     1      0
;! ---------------------------------------------------------------------------------
;! Estimated maximum stack depth 6
;! ---------------------------------------------------------------------------------
;!
;! Call Graph Graphs:
;!
;! _main (ROOT)
;!   _PWM_DutyCycle1
;!   _PWM_DutyCycle2
;!   _PWM_Init
;!   _TIMER0_Init
;!   _TIMER0_Set
;!   _USART_Init
;!     ___aldiv
;!
;! _ISR (ROOT)
;!   _USART_ReceiveChar
;!     _USART_WriteString
;!       _USART_WriteChar
;!   _USART_WriteChar
;!   ___awdiv
;!   ___awmod
;!   ___awtoft
;!     ___ftpack
;!     _abs (ARG)
;!   ___bmul
;!   ___ftadd
;!     ___awtoft (ARG)
;!       ___ftpack
;!       _abs (ARG)
;!     ___bmul (ARG)
;!     ___ftneg (ARG)
;!       ___awtoft (ARG)
;!         ___ftpack
;!         _abs (ARG)
;!     ___ftpack (ARG)
;!   ___ftdiv
;!     ___ftadd (ARG)
;!       ___awtoft (ARG)
;!         ___ftpack
;!         _abs (ARG)
;!       ___bmul (ARG)
;!       ___ftneg (ARG)
;!         ___awtoft (ARG)
;!           ___ftpack
;!           _abs (ARG)
;!       ___ftpack (ARG)
;!     ___ftneg (ARG)
;!       ___awtoft (ARG)
;!         ___ftpack
;!         _abs (ARG)
;!     ___ftpack (ARG)
;!   ___ftge
;!     ___bmul (ARG)
;!   ___ftmul
;!     ___awtoft (ARG)
;!       ___ftpack
;!       _abs (ARG)
;!     ___bmul (ARG)
;!     ___ftadd (ARG)
;!       ___awtoft (ARG)
;!         ___ftpack
;!         _abs (ARG)
;!       ___bmul (ARG)
;!       ___ftneg (ARG)
;!         ___awtoft (ARG)
;!           ___ftpack
;!           _abs (ARG)
;!       ___ftpack (ARG)
;!     ___ftneg (ARG)
;!       ___awtoft (ARG)
;!         ___ftpack
;!         _abs (ARG)
;!     ___ftpack (ARG)
;!     _trapmf (ARG)
;!       ___awtoft (ARG)
;!         ___ftpack
;!         _abs (ARG)
;!       ___ftadd (ARG)
;!         ___awtoft (ARG)
;!           ___ftpack
;!           _abs (ARG)
;!         ___bmul (ARG)
;!         ___ftneg (ARG)
;!           ___awtoft (ARG)
;!             ___ftpack
;!             _abs (ARG)
;!         ___ftpack (ARG)
;!       ___ftdiv (ARG)
;!         ___ftadd (ARG)
;!           ___awtoft (ARG)
;!             ___ftpack
;!             _abs (ARG)
;!           ___bmul (ARG)
;!           ___ftneg (ARG)
;!             ___awtoft (ARG)
;!               ___ftpack
;!               _abs (ARG)
;!           ___ftpack (ARG)
;!         ___ftneg (ARG)
;!           ___awtoft (ARG)
;!             ___ftpack
;!             _abs (ARG)
;!         ___ftpack (ARG)
;!       ___ftge (ARG)
;!         ___bmul (ARG)
;!       ___ftneg (ARG)
;!         ___awtoft (ARG)
;!           ___ftpack
;!           _abs (ARG)
;!   ___ftneg
;!     ___awtoft (ARG)
;!       ___ftpack
;!       _abs (ARG)
;!   ___fttol
;!     ___awtoft (ARG)
;!       ___ftpack
;!       _abs (ARG)
;!     _abs (ARG)
;!     _maximo (ARG)
;!       ___awtoft (ARG)
;!         ___ftpack
;!         _abs (ARG)
;!       ___ftge (ARG)
;!         ___bmul (ARG)
;!       _abs (ARG)
;!       _minimo (ARG)
;!         ___awtoft (ARG)
;!           ___ftpack
;!           _abs (ARG)
;!         ___ftge (ARG)
;!           ___bmul (ARG)
;!         _abs (ARG)
;!     _minimo (ARG)
;!       ___awtoft (ARG)
;!         ___ftpack
;!         _abs (ARG)
;!       ___ftge (ARG)
;!         ___bmul (ARG)
;!       _abs (ARG)
;!   ___lwdiv
;!   ___lwtoft
;!     ___awtoft (ARG)
;!       ___ftpack
;!       _abs (ARG)
;!     ___ftpack (ARG)
;!     ___fttol (ARG)
;!       ___awtoft (ARG)
;!         ___ftpack
;!         _abs (ARG)
;!       _abs (ARG)
;!       _maximo (ARG)
;!         ___awtoft (ARG)
;!           ___ftpack
;!           _abs (ARG)
;!         ___ftge (ARG)
;!           ___bmul (ARG)
;!         _abs (ARG)
;!         _minimo (ARG)
;!           ___awtoft (ARG)
;!             ___ftpack
;!             _abs (ARG)
;!           ___ftge (ARG)
;!             ___bmul (ARG)
;!           _abs (ARG)
;!       _minimo (ARG)
;!         ___awtoft (ARG)
;!           ___ftpack
;!           _abs (ARG)
;!         ___ftge (ARG)
;!           ___bmul (ARG)
;!         _abs (ARG)
;!     ___wmul (ARG)
;!       _USART_ReceiveChar (ARG)
;!         _USART_WriteString
;!           _USART_WriteChar
;!       ___awtoft (ARG)
;!         ___ftpack
;!         _abs (ARG)
;!       ___fttol (ARG)
;!         ___awtoft (ARG)
;!           ___ftpack
;!           _abs (ARG)
;!         _abs (ARG)
;!         _maximo (ARG)
;!           ___awtoft (ARG)
;!             ___ftpack
;!             _abs (ARG)
;!           ___ftge (ARG)
;!             ___bmul (ARG)
;!           _abs (ARG)
;!           _minimo (ARG)
;!             ___awtoft (ARG)
;!               ___ftpack
;!               _abs (ARG)
;!             ___ftge (ARG)
;!               ___bmul (ARG)
;!             _abs (ARG)
;!         _minimo (ARG)
;!           ___awtoft (ARG)
;!             ___ftpack
;!             _abs (ARG)
;!           ___ftge (ARG)
;!             ___bmul (ARG)
;!           _abs (ARG)
;!       ___lwdiv (ARG)
;!       _maximo (ARG)
;!         ___awtoft (ARG)
;!           ___ftpack
;!           _abs (ARG)
;!         ___ftge (ARG)
;!           ___bmul (ARG)
;!         _abs (ARG)
;!         _minimo (ARG)
;!           ___awtoft (ARG)
;!             ___ftpack
;!             _abs (ARG)
;!           ___ftge (ARG)
;!             ___bmul (ARG)
;!           _abs (ARG)
;!       _minimo (ARG)
;!         ___awtoft (ARG)
;!           ___ftpack
;!           _abs (ARG)
;!         ___ftge (ARG)
;!           ___bmul (ARG)
;!         _abs (ARG)
;!     _maximo (ARG)
;!       ___awtoft (ARG)
;!         ___ftpack
;!         _abs (ARG)
;!       ___ftge (ARG)
;!         ___bmul (ARG)
;!       _abs (ARG)
;!       _minimo (ARG)
;!         ___awtoft (ARG)
;!           ___ftpack
;!           _abs (ARG)
;!         ___ftge (ARG)
;!           ___bmul (ARG)
;!         _abs (ARG)
;!     _minimo (ARG)
;!       ___awtoft (ARG)
;!         ___ftpack
;!         _abs (ARG)
;!       ___ftge (ARG)
;!         ___bmul (ARG)
;!       _abs (ARG)
;!   ___wmul
;!     _USART_ReceiveChar (ARG)
;!       _USART_WriteString
;!         _USART_WriteChar
;!     ___awtoft (ARG)
;!       ___ftpack
;!       _abs (ARG)
;!     ___fttol (ARG)
;!       ___awtoft (ARG)
;!         ___ftpack
;!         _abs (ARG)
;!       _abs (ARG)
;!       _maximo (ARG)
;!         ___awtoft (ARG)
;!           ___ftpack
;!           _abs (ARG)
;!         ___ftge (ARG)
;!           ___bmul (ARG)
;!         _abs (ARG)
;!         _minimo (ARG)
;!           ___awtoft (ARG)
;!             ___ftpack
;!             _abs (ARG)
;!           ___ftge (ARG)
;!             ___bmul (ARG)
;!           _abs (ARG)
;!       _minimo (ARG)
;!         ___awtoft (ARG)
;!           ___ftpack
;!           _abs (ARG)
;!         ___ftge (ARG)
;!           ___bmul (ARG)
;!         _abs (ARG)
;!     ___lwdiv (ARG)
;!     _maximo (ARG)
;!       ___awtoft (ARG)
;!         ___ftpack
;!         _abs (ARG)
;!       ___ftge (ARG)
;!         ___bmul (ARG)
;!       _abs (ARG)
;!       _minimo (ARG)
;!         ___awtoft (ARG)
;!           ___ftpack
;!           _abs (ARG)
;!         ___ftge (ARG)
;!           ___bmul (ARG)
;!         _abs (ARG)
;!     _minimo (ARG)
;!       ___awtoft (ARG)
;!         ___ftpack
;!         _abs (ARG)
;!       ___ftge (ARG)
;!         ___bmul (ARG)
;!       _abs (ARG)
;!   _abs
;!   _maximo
;!     ___awtoft (ARG)
;!       ___ftpack
;!       _abs (ARG)
;!     ___ftge (ARG)
;!       ___bmul (ARG)
;!     _abs (ARG)
;!     _minimo (ARG)
;!       ___awtoft (ARG)
;!         ___ftpack
;!         _abs (ARG)
;!       ___ftge (ARG)
;!         ___bmul (ARG)
;!       _abs (ARG)
;!   _minimo
;!     ___awtoft (ARG)
;!       ___ftpack
;!       _abs (ARG)
;!     ___ftge (ARG)
;!       ___bmul (ARG)
;!     _abs (ARG)
;!   _trapmf
;!     ___awtoft (ARG)
;!       ___ftpack
;!       _abs (ARG)
;!     ___ftadd (ARG)
;!       ___awtoft (ARG)
;!         ___ftpack
;!         _abs (ARG)
;!       ___bmul (ARG)
;!       ___ftneg (ARG)
;!         ___awtoft (ARG)
;!           ___ftpack
;!           _abs (ARG)
;!       ___ftpack (ARG)
;!     ___ftdiv (ARG)
;!       ___ftadd (ARG)
;!         ___awtoft (ARG)
;!           ___ftpack
;!           _abs (ARG)
;!         ___bmul (ARG)
;!         ___ftneg (ARG)
;!           ___awtoft (ARG)
;!             ___ftpack
;!             _abs (ARG)
;!         ___ftpack (ARG)
;!       ___ftneg (ARG)
;!         ___awtoft (ARG)
;!           ___ftpack
;!           _abs (ARG)
;!       ___ftpack (ARG)
;!     ___ftge (ARG)
;!       ___bmul (ARG)
;!     ___ftneg (ARG)
;!       ___awtoft (ARG)
;!         ___ftpack
;!         _abs (ARG)
;!   i1_PWM_DutyCycle2
;!   i1_TIMER0_Set
;!

;! Address spaces:

;!Name               Size   Autos  Total    Cost      Usage
;!BANK3               60     1A      4A       9       77.1%
;!BITBANK3            60      0       0       8        0.0%
;!SFR3                 0      0       0       4        0.0%
;!BITSFR3              0      0       0       4        0.0%
;!BANK2               60      0      60      11      100.0%
;!BITBANK2            60      0       0      10        0.0%
;!SFR2                 0      0       0       5        0.0%
;!BITSFR2              0      0       0       5        0.0%
;!BANK1               50     25      3A       7       72.5%
;!BITBANK1            50      0       0       6        0.0%
;!SFR1                 0      0       0       2        0.0%
;!BITSFR1              0      0       0       2        0.0%
;!BANK0               50     48      4E       5       97.5%
;!BITBANK0            50      0       0       4        0.0%
;!SFR0                 0      0       0       1        0.0%
;!BITSFR0              0      0       0       1        0.0%
;!COMMON               E      E       E       1      100.0%
;!BITCOMMON            E      0       0       0        0.0%
;!CODE                 0      0       0       0        0.0%
;!DATA                 0      0     140      12        0.0%
;!ABS                  0      0     140       3        0.0%
;!NULL                 0      0       0       0        0.0%
;!STACK                0      0       0       2        0.0%
;!EEDATA             100      0       0       0        0.0%

	global	_main

;; *************** function _main *****************
;; Defined at:
;;		line 295 in file "C:\Users\filip\programs\FuzzySI\firmware - Copia\main.c"
;; Parameters:    Size  Location     Type
;;		None
;; Auto vars:     Size  Location     Type
;;		None
;; Return value:  Size  Location     Type
;;		None               void
;; Registers used:
;;		wreg, status,2, status,0, pclath, cstack
;; Tracked objects:
;;		On entry : 17F/0
;;		On exit  : 0/0
;;		Unchanged: 0/0
;; Data sizes:     COMMON   BANK0   BANK1   BANK3   BANK2
;;      Params:         0       0       0       0       0
;;      Locals:         0       0       0       0       0
;;      Temps:          0       0       0       3       0
;;      Totals:         0       0       0       3       0
;;Total ram usage:        3 bytes
;; Hardware stack levels required when called:    6
;; This function calls:
;;		_PWM_DutyCycle1
;;		_PWM_DutyCycle2
;;		_PWM_Init
;;		_TIMER0_Init
;;		_TIMER0_Set
;;		_USART_Init
;; This function is called by:
;;		Startup code after reset
;; This function uses a non-reentrant model
;;
psect	maintext,global,class=CODE,delta=2,split=1
	file	"C:\Users\filip\programs\FuzzySI\firmware - Copia\main.c"
	line	295
global __pmaintext
__pmaintext:	;psect for function _main
psect	maintext
	file	"C:\Users\filip\programs\FuzzySI\firmware - Copia\main.c"
	line	295
	global	__size_of_main
	__size_of_main	equ	__end_of_main-_main
	
_main:	
;incstack = 0
	opt	stack 2
; Regs used in _main: [wreg+status,2+status,0+pclath+cstack]
	line	296
	
l2979:	
;main.c: 296: TRISA = 0b00000001;
	movlw	(01h)
	bsf	status, 5	;RP0=1, select bank1
	bcf	status, 6	;RP1=0, select bank1
	movwf	(133)^080h	;volatile
	line	297
;main.c: 297: PORTA = 0b00000001;
	movlw	(01h)
	bcf	status, 5	;RP0=0, select bank0
	bcf	status, 6	;RP1=0, select bank0
	movwf	(5)	;volatile
	line	299
	
l2981:	
;main.c: 298: TRISB =
;main.c: 299: 0b00000000;
	bsf	status, 5	;RP0=1, select bank1
	bcf	status, 6	;RP1=0, select bank1
	clrf	(134)^080h	;volatile
	line	300
	
l2983:	
;main.c: 300: PORTB = 0b00000000;
	bcf	status, 5	;RP0=0, select bank0
	bcf	status, 6	;RP1=0, select bank0
	clrf	(6)	;volatile
	line	301
;main.c: 301: TRISC = 0b10000001;
	movlw	(081h)
	bsf	status, 5	;RP0=1, select bank1
	bcf	status, 6	;RP1=0, select bank1
	movwf	(135)^080h	;volatile
	line	304
;main.c: 303: PORTC =
;main.c: 304: 0b11000000;
	movlw	(0C0h)
	bcf	status, 5	;RP0=0, select bank0
	bcf	status, 6	;RP1=0, select bank0
	movwf	(7)	;volatile
	line	305
	
l2985:	
;main.c: 305: TRISD = 0b00000000;
	bsf	status, 5	;RP0=1, select bank1
	bcf	status, 6	;RP1=0, select bank1
	clrf	(136)^080h	;volatile
	line	306
	
l2987:	
;main.c: 306: PORTD = 0b00000000;
	bcf	status, 5	;RP0=0, select bank0
	bcf	status, 6	;RP1=0, select bank0
	clrf	(8)	;volatile
	line	307
	
l2989:	
;main.c: 307: TRISE = 0b00000000;
	bsf	status, 5	;RP0=1, select bank1
	bcf	status, 6	;RP1=0, select bank1
	clrf	(137)^080h	;volatile
	line	308
	
l2991:	
;main.c: 308: PORTE = 0b00000000;
	bcf	status, 5	;RP0=0, select bank0
	bcf	status, 6	;RP1=0, select bank0
	clrf	(9)	;volatile
	line	311
;main.c: 311: T1CON = 0x03;
	movlw	(03h)
	movwf	(16)	;volatile
	line	312
	
l2993:	
;main.c: 312: TMR1L = 0x00;
	clrf	(14)	;volatile
	line	313
	
l2995:	
;main.c: 313: TMR1H = 0x00;
	clrf	(15)	;volatile
	line	316
	
l2997:	
;main.c: 316: USART_Init(115200);
	movlw	0
	bsf	status, 5	;RP0=1, select bank3
	bsf	status, 6	;RP1=1, select bank3
	movwf	(USART_Init@BaudRate+3)^0180h
	movlw	01h
	movwf	(USART_Init@BaudRate+2)^0180h
	movlw	0C2h
	movwf	(USART_Init@BaudRate+1)^0180h
	movlw	0
	movwf	(USART_Init@BaudRate)^0180h

	fcall	_USART_Init
	line	317
;main.c: 317: TIMER0_Init();
	fcall	_TIMER0_Init
	line	320
	
l2999:	
;main.c: 320: PWM_Init();
	fcall	_PWM_Init
	line	325
	
l3001:	
;main.c: 324: INTCONbits.PEIE =
;main.c: 325: 1;
	bsf	(11),6	;volatile
	line	326
	
l3003:	
;main.c: 326: INTCONbits.GIE = 1;
	bsf	(11),7	;volatile
	line	329
	
l3005:	
;main.c: 329: PWM_DutyCycle1(0);
	movlw	low(0)
	bsf	status, 5	;RP0=1, select bank3
	bsf	status, 6	;RP1=1, select bank3
	movwf	(PWM_DutyCycle1@valor)^0180h
	movlw	high(0)
	movwf	((PWM_DutyCycle1@valor)^0180h)+1
	fcall	_PWM_DutyCycle1
	line	330
	
l3007:	
;main.c: 330: PWM_DutyCycle2(0);
	movlw	low(0)
	bsf	status, 5	;RP0=1, select bank3
	bsf	status, 6	;RP1=1, select bank3
	movwf	(PWM_DutyCycle2@valor)^0180h
	movlw	high(0)
	movwf	((PWM_DutyCycle2@valor)^0180h)+1
	fcall	_PWM_DutyCycle2
	line	333
	
l3009:	
;main.c: 333: TIMER0_Set(238);
	movlw	(0EEh)
	fcall	_TIMER0_Set
	line	336
	
l3011:	
;main.c: 336: _delay((unsigned long)((1000)*(18432000/4000.0)));
	opt asmopt_off
movlw  24
	bsf	status, 5	;RP0=1, select bank3
	bsf	status, 6	;RP1=1, select bank3
movwf	((??_main+0)^0180h+0+2),f
movlw	97
movwf	((??_main+0)^0180h+0+1),f
	movlw	110
movwf	((??_main+0)^0180h+0),f
u4977:
	decfsz	((??_main+0)^0180h+0),f
	goto	u4977
	decfsz	((??_main+0)^0180h+0+1),f
	goto	u4977
	decfsz	((??_main+0)^0180h+0+2),f
	goto	u4977
	nop
opt asmopt_on

	goto	l3013
	line	339
;main.c: 339: while (1) {
	
l137:	
	line	340
	
l3013:	
;main.c: 340: _delay((unsigned long)((200)*(18432000/4000.0)));
	opt asmopt_off
movlw  5
	bsf	status, 5	;RP0=1, select bank3
	bsf	status, 6	;RP1=1, select bank3
movwf	((??_main+0)^0180h+0+2),f
movlw	173
movwf	((??_main+0)^0180h+0+1),f
	movlw	224
movwf	((??_main+0)^0180h+0),f
u4987:
	decfsz	((??_main+0)^0180h+0),f
	goto	u4987
	decfsz	((??_main+0)^0180h+0+1),f
	goto	u4987
	decfsz	((??_main+0)^0180h+0+2),f
	goto	u4987
opt asmopt_on

	goto	l3013
	line	341
	
l138:	
	line	339
	goto	l3013
	
l139:	
	line	342
	
l140:	
	global	start
	ljmp	start
	opt stack 0
GLOBAL	__end_of_main
	__end_of_main:
	signat	_main,88
	global	_USART_Init

;; *************** function _USART_Init *****************
;; Defined at:
;;		line 6 in file "C:\Users\filip\programs\FuzzySI\firmware - Copia\usart.c"
;; Parameters:    Size  Location     Type
;;  BaudRate        4   15[BANK3 ] long 
;; Auto vars:     Size  Location     Type
;;		None
;; Return value:  Size  Location     Type
;;		None               void
;; Registers used:
;;		wreg, status,2, status,0, pclath, cstack
;; Tracked objects:
;;		On entry : 0/0
;;		On exit  : 0/0
;;		Unchanged: 0/0
;; Data sizes:     COMMON   BANK0   BANK1   BANK3   BANK2
;;      Params:         0       0       0       4       0
;;      Locals:         0       0       0       0       0
;;      Temps:          0       0       0       4       0
;;      Totals:         0       0       0       8       0
;;Total ram usage:        8 bytes
;; Hardware stack levels used:    1
;; Hardware stack levels required when called:    5
;; This function calls:
;;		___aldiv
;; This function is called by:
;;		_main
;; This function uses a non-reentrant model
;;
psect	text1,local,class=CODE,delta=2,merge=1
	file	"C:\Users\filip\programs\FuzzySI\firmware - Copia\usart.c"
	line	6
global __ptext1
__ptext1:	;psect for function _USART_Init
psect	text1
	file	"C:\Users\filip\programs\FuzzySI\firmware - Copia\usart.c"
	line	6
	global	__size_of_USART_Init
	__size_of_USART_Init	equ	__end_of_USART_Init-_USART_Init
	
_USART_Init:	
;incstack = 0
	opt	stack 2
; Regs used in _USART_Init: [wreg+status,2+status,0+pclath+cstack]
	line	13
	
l2905:	
;usart.c: 13: SPBRG = (unsigned char)(18432000 / (16 * BaudRate)) - 1;
	bsf	status, 5	;RP0=1, select bank3
	bsf	status, 6	;RP1=1, select bank3
	movf	(USART_Init@BaudRate)^0180h,w
	movwf	(??_USART_Init+0)^0180h+0
	movf	(USART_Init@BaudRate+1)^0180h,w
	movwf	((??_USART_Init+0)^0180h+0+1)
	movf	(USART_Init@BaudRate+2)^0180h,w
	movwf	((??_USART_Init+0)^0180h+0+2)
	movf	(USART_Init@BaudRate+3)^0180h,w
	movwf	((??_USART_Init+0)^0180h+0+3)
	movlw	04h
u3635:
	clrc
	rlf	(??_USART_Init+0)^0180h+0,f
	rlf	(??_USART_Init+0)^0180h+1,f
	rlf	(??_USART_Init+0)^0180h+2,f
	rlf	(??_USART_Init+0)^0180h+3,f
u3630:
	addlw	-1
	skipz
	goto	u3635
	movf	3+(??_USART_Init+0)^0180h+0,w
	movwf	(___aldiv@divisor+3)^0180h
	movf	2+(??_USART_Init+0)^0180h+0,w
	movwf	(___aldiv@divisor+2)^0180h
	movf	1+(??_USART_Init+0)^0180h+0,w
	movwf	(___aldiv@divisor+1)^0180h
	movf	0+(??_USART_Init+0)^0180h+0,w
	movwf	(___aldiv@divisor)^0180h

	movlw	01h
	movwf	(___aldiv@dividend+3)^0180h
	movlw	019h
	movwf	(___aldiv@dividend+2)^0180h
	movlw	040h
	movwf	(___aldiv@dividend+1)^0180h
	movlw	0
	movwf	(___aldiv@dividend)^0180h

	fcall	___aldiv
	bsf	status, 5	;RP0=1, select bank3
	bsf	status, 6	;RP1=1, select bank3
	movf	0+(((0+(?___aldiv))^0180h)),w
	addlw	0FFh
	bsf	status, 5	;RP0=1, select bank1
	bcf	status, 6	;RP1=0, select bank1
	movwf	(153)^080h	;volatile
	line	16
	
l2907:	
;usart.c: 16: TXSTAbits.CSRC = 0;
	bcf	(152)^080h,7	;volatile
	line	17
	
l2909:	
;usart.c: 17: TXSTAbits.TX9 = 0;
	bcf	(152)^080h,6	;volatile
	line	18
	
l2911:	
;usart.c: 18: TXSTAbits.TXEN = 1;
	bsf	(152)^080h,5	;volatile
	line	19
	
l2913:	
;usart.c: 19: TXSTAbits.SYNC = 0;
	bcf	(152)^080h,4	;volatile
	line	21
	
l2915:	
;usart.c: 21: TXSTAbits.BRGH = 1;
	bsf	(152)^080h,2	;volatile
	line	22
	
l2917:	
;usart.c: 22: TXSTAbits.TRMT = 1;
	bsf	(152)^080h,1	;volatile
	line	23
	
l2919:	
;usart.c: 23: TXSTAbits.TX9D = 0;
	bcf	(152)^080h,0	;volatile
	line	26
	
l2921:	
;usart.c: 26: RCSTAbits.SPEN = 1;
	bcf	status, 5	;RP0=0, select bank0
	bcf	status, 6	;RP1=0, select bank0
	bsf	(24),7	;volatile
	line	27
	
l2923:	
;usart.c: 27: RCSTAbits.RX9 = 0;
	bcf	(24),6	;volatile
	line	28
	
l2925:	
;usart.c: 28: RCSTAbits.SREN = 0;
	bcf	(24),5	;volatile
	line	29
	
l2927:	
;usart.c: 29: RCSTAbits.CREN = 1;
	bsf	(24),4	;volatile
	line	30
	
l2929:	
;usart.c: 30: RCSTAbits.ADDEN = 0;
	bcf	(24),3	;volatile
	line	31
	
l2931:	
;usart.c: 31: RCSTAbits.FERR = 0;
	bcf	(24),2	;volatile
	line	32
	
l2933:	
;usart.c: 32: RCSTAbits.OERR = 0;
	bcf	(24),1	;volatile
	line	33
	
l2935:	
;usart.c: 33: RCSTAbits.RX9D = 0;
	bcf	(24),0	;volatile
	line	36
	
l2937:	
;usart.c: 36: PIE1bits.TXIE = 0;
	bsf	status, 5	;RP0=1, select bank1
	bcf	status, 6	;RP1=0, select bank1
	bcf	(140)^080h,4	;volatile
	line	37
	
l2939:	
;usart.c: 37: PIR1bits.TXIF = 0;
	bcf	status, 5	;RP0=0, select bank0
	bcf	status, 6	;RP1=0, select bank0
	bcf	(12),4	;volatile
	line	38
	
l2941:	
;usart.c: 38: PIE1bits.RCIE = 1;
	bsf	status, 5	;RP0=1, select bank1
	bcf	status, 6	;RP1=0, select bank1
	bsf	(140)^080h,5	;volatile
	line	39
	
l2943:	
;usart.c: 39: PIR1bits.RCIF = 0;
	bcf	status, 5	;RP0=0, select bank0
	bcf	status, 6	;RP1=0, select bank0
	bcf	(12),5	;volatile
	line	40
	
l159:	
	return
	opt stack 0
GLOBAL	__end_of_USART_Init
	__end_of_USART_Init:
	signat	_USART_Init,4216
	global	___aldiv

;; *************** function ___aldiv *****************
;; Defined at:
;;		line 6 in file "C:\Program Files (x86)\Microchip\xc8\v1.33\sources\common\aldiv.c"
;; Parameters:    Size  Location     Type
;;  divisor         4    0[BANK3 ] long 
;;  dividend        4    4[BANK3 ] long 
;; Auto vars:     Size  Location     Type
;;  quotient        4   11[BANK3 ] long 
;;  sign            1   10[BANK3 ] unsigned char 
;;  counter         1    9[BANK3 ] unsigned char 
;; Return value:  Size  Location     Type
;;                  4    0[BANK3 ] long 
;; Registers used:
;;		wreg, status,2, status,0
;; Tracked objects:
;;		On entry : 0/0
;;		On exit  : 0/0
;;		Unchanged: 0/0
;; Data sizes:     COMMON   BANK0   BANK1   BANK3   BANK2
;;      Params:         0       0       0       8       0
;;      Locals:         0       0       0       6       0
;;      Temps:          0       0       0       1       0
;;      Totals:         0       0       0      15       0
;;Total ram usage:       15 bytes
;; Hardware stack levels used:    1
;; Hardware stack levels required when called:    4
;; This function calls:
;;		Nothing
;; This function is called by:
;;		_USART_Init
;; This function uses a non-reentrant model
;;
psect	text2,local,class=CODE,delta=2,merge=1
	file	"C:\Program Files (x86)\Microchip\xc8\v1.33\sources\common\aldiv.c"
	line	6
global __ptext2
__ptext2:	;psect for function ___aldiv
psect	text2
	file	"C:\Program Files (x86)\Microchip\xc8\v1.33\sources\common\aldiv.c"
	line	6
	global	__size_of___aldiv
	__size_of___aldiv	equ	__end_of___aldiv-___aldiv
	
___aldiv:	
;incstack = 0
	opt	stack 2
; Regs used in ___aldiv: [wreg+status,2+status,0]
	line	14
	
l2859:	
	bsf	status, 5	;RP0=1, select bank3
	bsf	status, 6	;RP1=1, select bank3
	clrf	(___aldiv@sign)^0180h
	line	15
	
l2861:	
	btfss	(___aldiv@divisor+3)^0180h,7
	goto	u3521
	goto	u3520
u3521:
	goto	l541
u3520:
	line	16
	
l2863:	
	comf	(___aldiv@divisor)^0180h,f
	comf	(___aldiv@divisor+1)^0180h,f
	comf	(___aldiv@divisor+2)^0180h,f
	comf	(___aldiv@divisor+3)^0180h,f
	incf	(___aldiv@divisor)^0180h,f
	skipnz
	incf	(___aldiv@divisor+1)^0180h,f
	skipnz
	incf	(___aldiv@divisor+2)^0180h,f
	skipnz
	incf	(___aldiv@divisor+3)^0180h,f
	line	17
	clrf	(___aldiv@sign)^0180h
	incf	(___aldiv@sign)^0180h,f
	line	18
	
l541:	
	line	19
	btfss	(___aldiv@dividend+3)^0180h,7
	goto	u3531
	goto	u3530
u3531:
	goto	l2869
u3530:
	line	20
	
l2865:	
	comf	(___aldiv@dividend)^0180h,f
	comf	(___aldiv@dividend+1)^0180h,f
	comf	(___aldiv@dividend+2)^0180h,f
	comf	(___aldiv@dividend+3)^0180h,f
	incf	(___aldiv@dividend)^0180h,f
	skipnz
	incf	(___aldiv@dividend+1)^0180h,f
	skipnz
	incf	(___aldiv@dividend+2)^0180h,f
	skipnz
	incf	(___aldiv@dividend+3)^0180h,f
	line	21
	
l2867:	
	movlw	(01h)
	movwf	(??___aldiv+0)^0180h+0
	movf	(??___aldiv+0)^0180h+0,w
	xorwf	(___aldiv@sign)^0180h,f
	goto	l2869
	line	22
	
l542:	
	line	23
	
l2869:	
	movlw	0
	movwf	(___aldiv@quotient+3)^0180h
	movlw	0
	movwf	(___aldiv@quotient+2)^0180h
	movlw	0
	movwf	(___aldiv@quotient+1)^0180h
	movlw	0
	movwf	(___aldiv@quotient)^0180h

	line	24
	
l2871:	
	movf	(___aldiv@divisor+3)^0180h,w
	iorwf	(___aldiv@divisor+2)^0180h,w
	iorwf	(___aldiv@divisor+1)^0180h,w
	iorwf	(___aldiv@divisor)^0180h,w
	skipnz
	goto	u3541
	goto	u3540
u3541:
	goto	l2891
u3540:
	line	25
	
l2873:	
	clrf	(___aldiv@counter)^0180h
	incf	(___aldiv@counter)^0180h,f
	line	26
	goto	l2877
	
l545:	
	line	27
	
l2875:	
	movlw	01h
	movwf	(??___aldiv+0)^0180h+0
u3555:
	clrc
	rlf	(___aldiv@divisor)^0180h,f
	rlf	(___aldiv@divisor+1)^0180h,f
	rlf	(___aldiv@divisor+2)^0180h,f
	rlf	(___aldiv@divisor+3)^0180h,f
	decfsz	(??___aldiv+0)^0180h+0
	goto	u3555
	line	28
	movlw	(01h)
	movwf	(??___aldiv+0)^0180h+0
	movf	(??___aldiv+0)^0180h+0,w
	addwf	(___aldiv@counter)^0180h,f
	goto	l2877
	line	29
	
l544:	
	line	26
	
l2877:	
	btfss	(___aldiv@divisor+3)^0180h,(31)&7
	goto	u3561
	goto	u3560
u3561:
	goto	l2875
u3560:
	goto	l2879
	
l546:	
	goto	l2879
	line	30
	
l547:	
	line	31
	
l2879:	
	movlw	01h
	movwf	(??___aldiv+0)^0180h+0
u3575:
	clrc
	rlf	(___aldiv@quotient)^0180h,f
	rlf	(___aldiv@quotient+1)^0180h,f
	rlf	(___aldiv@quotient+2)^0180h,f
	rlf	(___aldiv@quotient+3)^0180h,f
	decfsz	(??___aldiv+0)^0180h+0
	goto	u3575
	line	32
	
l2881:	
	movf	(___aldiv@divisor+3)^0180h,w
	subwf	(___aldiv@dividend+3)^0180h,w
	skipz
	goto	u3585
	movf	(___aldiv@divisor+2)^0180h,w
	subwf	(___aldiv@dividend+2)^0180h,w
	skipz
	goto	u3585
	movf	(___aldiv@divisor+1)^0180h,w
	subwf	(___aldiv@dividend+1)^0180h,w
	skipz
	goto	u3585
	movf	(___aldiv@divisor)^0180h,w
	subwf	(___aldiv@dividend)^0180h,w
u3585:
	skipc
	goto	u3581
	goto	u3580
u3581:
	goto	l2887
u3580:
	line	33
	
l2883:	
	movf	(___aldiv@divisor)^0180h,w
	subwf	(___aldiv@dividend)^0180h,f
	movf	(___aldiv@divisor+1)^0180h,w
	skipc
	incfsz	(___aldiv@divisor+1)^0180h,w
	subwf	(___aldiv@dividend+1)^0180h,f
	movf	(___aldiv@divisor+2)^0180h,w
	skipc
	incfsz	(___aldiv@divisor+2)^0180h,w
	subwf	(___aldiv@dividend+2)^0180h,f
	movf	(___aldiv@divisor+3)^0180h,w
	skipc
	incfsz	(___aldiv@divisor+3)^0180h,w
	subwf	(___aldiv@dividend+3)^0180h,f
	line	34
	
l2885:	
	bsf	(___aldiv@quotient)^0180h+(0/8),(0)&7
	goto	l2887
	line	35
	
l548:	
	line	36
	
l2887:	
	movlw	01h
u3595:
	clrc
	rrf	(___aldiv@divisor+3)^0180h,f
	rrf	(___aldiv@divisor+2)^0180h,f
	rrf	(___aldiv@divisor+1)^0180h,f
	rrf	(___aldiv@divisor)^0180h,f
	addlw	-1
	skipz
	goto	u3595

	line	37
	
l2889:	
	movlw	low(01h)
	subwf	(___aldiv@counter)^0180h,f
	btfss	status,2
	goto	u3601
	goto	u3600
u3601:
	goto	l2879
u3600:
	goto	l2891
	
l549:	
	goto	l2891
	line	38
	
l543:	
	line	39
	
l2891:	
	movf	(___aldiv@sign)^0180h,w
	skipz
	goto	u3610
	goto	l2895
u3610:
	line	40
	
l2893:	
	comf	(___aldiv@quotient)^0180h,f
	comf	(___aldiv@quotient+1)^0180h,f
	comf	(___aldiv@quotient+2)^0180h,f
	comf	(___aldiv@quotient+3)^0180h,f
	incf	(___aldiv@quotient)^0180h,f
	skipnz
	incf	(___aldiv@quotient+1)^0180h,f
	skipnz
	incf	(___aldiv@quotient+2)^0180h,f
	skipnz
	incf	(___aldiv@quotient+3)^0180h,f
	goto	l2895
	
l550:	
	line	41
	
l2895:	
	movf	(___aldiv@quotient+3)^0180h,w
	movwf	(?___aldiv+3)^0180h
	movf	(___aldiv@quotient+2)^0180h,w
	movwf	(?___aldiv+2)^0180h
	movf	(___aldiv@quotient+1)^0180h,w
	movwf	(?___aldiv+1)^0180h
	movf	(___aldiv@quotient)^0180h,w
	movwf	(?___aldiv)^0180h

	goto	l551
	
l2897:	
	line	42
	
l551:	
	return
	opt stack 0
GLOBAL	__end_of___aldiv
	__end_of___aldiv:
	signat	___aldiv,8316
	global	_TIMER0_Set

;; *************** function _TIMER0_Set *****************
;; Defined at:
;;		line 20 in file "C:\Users\filip\programs\FuzzySI\firmware - Copia\timers.c"
;; Parameters:    Size  Location     Type
;;  contagens       1    wreg     unsigned char 
;; Auto vars:     Size  Location     Type
;;  contagens       1    0[BANK3 ] unsigned char 
;; Return value:  Size  Location     Type
;;		None               void
;; Registers used:
;;		wreg
;; Tracked objects:
;;		On entry : 0/0
;;		On exit  : 0/0
;;		Unchanged: 0/0
;; Data sizes:     COMMON   BANK0   BANK1   BANK3   BANK2
;;      Params:         0       0       0       0       0
;;      Locals:         0       0       0       1       0
;;      Temps:          0       0       0       0       0
;;      Totals:         0       0       0       1       0
;;Total ram usage:        1 bytes
;; Hardware stack levels used:    1
;; Hardware stack levels required when called:    4
;; This function calls:
;;		Nothing
;; This function is called by:
;;		_main
;; This function uses a non-reentrant model
;;
psect	text3,local,class=CODE,delta=2,merge=1
	file	"C:\Users\filip\programs\FuzzySI\firmware - Copia\timers.c"
	line	20
global __ptext3
__ptext3:	;psect for function _TIMER0_Set
psect	text3
	file	"C:\Users\filip\programs\FuzzySI\firmware - Copia\timers.c"
	line	20
	global	__size_of_TIMER0_Set
	__size_of_TIMER0_Set	equ	__end_of_TIMER0_Set-_TIMER0_Set
	
_TIMER0_Set:	
;incstack = 0
	opt	stack 3
; Regs used in _TIMER0_Set: [wreg]
;TIMER0_Set@contagens stored from wreg
	bsf	status, 5	;RP0=1, select bank3
	bsf	status, 6	;RP1=1, select bank3
	movwf	(TIMER0_Set@contagens)^0180h
	line	22
	
l2899:	
;timers.c: 22: TMR0 = contagens;
	movf	(TIMER0_Set@contagens)^0180h,w
	bcf	status, 5	;RP0=0, select bank0
	bcf	status, 6	;RP1=0, select bank0
	movwf	(1)	;volatile
	line	23
	
l219:	
	return
	opt stack 0
GLOBAL	__end_of_TIMER0_Set
	__end_of_TIMER0_Set:
	signat	_TIMER0_Set,4216
	global	_TIMER0_Init

;; *************** function _TIMER0_Init *****************
;; Defined at:
;;		line 6 in file "C:\Users\filip\programs\FuzzySI\firmware - Copia\timers.c"
;; Parameters:    Size  Location     Type
;;		None
;; Auto vars:     Size  Location     Type
;;		None
;; Return value:  Size  Location     Type
;;		None               void
;; Registers used:
;;		None
;; Tracked objects:
;;		On entry : 0/0
;;		On exit  : 0/0
;;		Unchanged: 0/0
;; Data sizes:     COMMON   BANK0   BANK1   BANK3   BANK2
;;      Params:         0       0       0       0       0
;;      Locals:         0       0       0       0       0
;;      Temps:          0       0       0       0       0
;;      Totals:         0       0       0       0       0
;;Total ram usage:        0 bytes
;; Hardware stack levels used:    1
;; Hardware stack levels required when called:    4
;; This function calls:
;;		Nothing
;; This function is called by:
;;		_main
;; This function uses a non-reentrant model
;;
psect	text4,local,class=CODE,delta=2,merge=1
	line	6
global __ptext4
__ptext4:	;psect for function _TIMER0_Init
psect	text4
	file	"C:\Users\filip\programs\FuzzySI\firmware - Copia\timers.c"
	line	6
	global	__size_of_TIMER0_Init
	__size_of_TIMER0_Init	equ	__end_of_TIMER0_Init-_TIMER0_Init
	
_TIMER0_Init:	
;incstack = 0
	opt	stack 3
; Regs used in _TIMER0_Init: []
	line	8
	
l2945:	
;timers.c: 8: OPTION_REGbits.T0CS = 0;
	bsf	status, 5	;RP0=1, select bank1
	bcf	status, 6	;RP1=0, select bank1
	bcf	(129)^080h,5	;volatile
	line	9
;timers.c: 9: OPTION_REGbits.T0SE = 0;
	bcf	(129)^080h,4	;volatile
	line	10
;timers.c: 10: OPTION_REGbits.PSA = 0;
	bcf	(129)^080h,3	;volatile
	line	11
;timers.c: 11: OPTION_REGbits.PS2 = 1;
	bsf	(129)^080h,2	;volatile
	line	12
;timers.c: 12: OPTION_REGbits.PS1 = 1;
	bsf	(129)^080h,1	;volatile
	line	13
;timers.c: 13: OPTION_REGbits.PS0 = 1;
	bsf	(129)^080h,0	;volatile
	line	14
;timers.c: 14: INTCONbits.TMR0IF = 0;
	bcf	(11),2	;volatile
	line	15
;timers.c: 15: INTCONbits.TMR0IE = 1;
	bsf	(11),5	;volatile
	line	16
	
l216:	
	return
	opt stack 0
GLOBAL	__end_of_TIMER0_Init
	__end_of_TIMER0_Init:
	signat	_TIMER0_Init,88
	global	_PWM_Init

;; *************** function _PWM_Init *****************
;; Defined at:
;;		line 5 in file "C:\Users\filip\programs\FuzzySI\firmware - Copia\pwm.c"
;; Parameters:    Size  Location     Type
;;		None
;; Auto vars:     Size  Location     Type
;;		None
;; Return value:  Size  Location     Type
;;		None               void
;; Registers used:
;;		wreg
;; Tracked objects:
;;		On entry : 0/0
;;		On exit  : 0/0
;;		Unchanged: 0/0
;; Data sizes:     COMMON   BANK0   BANK1   BANK3   BANK2
;;      Params:         0       0       0       0       0
;;      Locals:         0       0       0       0       0
;;      Temps:          0       0       0       0       0
;;      Totals:         0       0       0       0       0
;;Total ram usage:        0 bytes
;; Hardware stack levels used:    1
;; Hardware stack levels required when called:    4
;; This function calls:
;;		Nothing
;; This function is called by:
;;		_main
;; This function uses a non-reentrant model
;;
psect	text5,local,class=CODE,delta=2,merge=1
	file	"C:\Users\filip\programs\FuzzySI\firmware - Copia\pwm.c"
	line	5
global __ptext5
__ptext5:	;psect for function _PWM_Init
psect	text5
	file	"C:\Users\filip\programs\FuzzySI\firmware - Copia\pwm.c"
	line	5
	global	__size_of_PWM_Init
	__size_of_PWM_Init	equ	__end_of_PWM_Init-_PWM_Init
	
_PWM_Init:	
;incstack = 0
	opt	stack 3
; Regs used in _PWM_Init: [wreg]
	line	14
	
l2947:	
;pwm.c: 14: T2CONbits.T2CKPS1 = 1;
	bcf	status, 5	;RP0=0, select bank0
	bcf	status, 6	;RP1=0, select bank0
	bsf	(18),1	;volatile
	line	15
;pwm.c: 15: T2CONbits.T2CKPS0 = 0;
	bcf	(18),0	;volatile
	line	18
;pwm.c: 18: T2CONbits.TOUTPS3 = 0;
	bcf	(18),6	;volatile
	line	19
;pwm.c: 19: T2CONbits.TOUTPS2 = 0;
	bcf	(18),5	;volatile
	line	20
;pwm.c: 20: T2CONbits.TOUTPS1 = 0;
	bcf	(18),4	;volatile
	line	21
;pwm.c: 21: T2CONbits.TOUTPS0 = 0;
	bcf	(18),3	;volatile
	line	24
;pwm.c: 24: T2CONbits.TMR2ON = 1;
	bsf	(18),2	;volatile
	line	27
	
l2949:	
;pwm.c: 27: PR2 = 255;
	movlw	(0FFh)
	bsf	status, 5	;RP0=1, select bank1
	bcf	status, 6	;RP1=0, select bank1
	movwf	(146)^080h	;volatile
	line	43
	
l2951:	
;pwm.c: 43: CCP1CONbits.CCP1M3 = 1;
	bcf	status, 5	;RP0=0, select bank0
	bcf	status, 6	;RP1=0, select bank0
	bsf	(23),3	;volatile
	line	44
	
l2953:	
;pwm.c: 44: CCP1CONbits.CCP1M2 = 1;
	bsf	(23),2	;volatile
	line	45
	
l2955:	
;pwm.c: 45: CCP1CONbits.CCP1M1 = 1;
	bsf	(23),1	;volatile
	line	46
	
l2957:	
;pwm.c: 46: CCP1CONbits.CCP1M0 = 1;
	bsf	(23),0	;volatile
	line	49
	
l2959:	
;pwm.c: 49: PIE1bits.CCP1IE = 1;
	bsf	status, 5	;RP0=1, select bank1
	bcf	status, 6	;RP1=0, select bank1
	bsf	(140)^080h,2	;volatile
	line	50
	
l2961:	
;pwm.c: 50: PIR1bits.CCP1IF = 0;
	bcf	status, 5	;RP0=0, select bank0
	bcf	status, 6	;RP1=0, select bank0
	bcf	(12),2	;volatile
	line	53
	
l2963:	
;pwm.c: 53: CCP2CONbits.CCP2M3 = 1;
	bsf	(29),3	;volatile
	line	54
	
l2965:	
;pwm.c: 54: CCP2CONbits.CCP2M2 = 1;
	bsf	(29),2	;volatile
	line	55
	
l2967:	
;pwm.c: 55: CCP2CONbits.CCP2M1 = 1;
	bsf	(29),1	;volatile
	line	56
	
l2969:	
;pwm.c: 56: CCP2CONbits.CCP2M0 = 1;
	bsf	(29),0	;volatile
	line	59
	
l2971:	
;pwm.c: 59: PIE2bits.CCP2IE = 1;
	bsf	status, 5	;RP0=1, select bank1
	bcf	status, 6	;RP1=0, select bank1
	bsf	(141)^080h,0	;volatile
	line	60
	
l2973:	
;pwm.c: 60: PIR2bits.CCP2IF = 0;
	bcf	status, 5	;RP0=0, select bank0
	bcf	status, 6	;RP1=0, select bank0
	bcf	(13),0	;volatile
	line	61
	
l367:	
	return
	opt stack 0
GLOBAL	__end_of_PWM_Init
	__end_of_PWM_Init:
	signat	_PWM_Init,88
	global	_PWM_DutyCycle2

;; *************** function _PWM_DutyCycle2 *****************
;; Defined at:
;;		line 96 in file "C:\Users\filip\programs\FuzzySI\firmware - Copia\pwm.c"
;; Parameters:    Size  Location     Type
;;  valor           2    0[BANK3 ] int 
;; Auto vars:     Size  Location     Type
;;		None
;; Return value:  Size  Location     Type
;;		None               void
;; Registers used:
;;		wreg, status,2, status,0
;; Tracked objects:
;;		On entry : 0/0
;;		On exit  : 0/0
;;		Unchanged: 0/0
;; Data sizes:     COMMON   BANK0   BANK1   BANK3   BANK2
;;      Params:         0       0       0       2       0
;;      Locals:         0       0       0       0       0
;;      Temps:          0       0       0       2       0
;;      Totals:         0       0       0       4       0
;;Total ram usage:        4 bytes
;; Hardware stack levels used:    1
;; Hardware stack levels required when called:    4
;; This function calls:
;;		Nothing
;; This function is called by:
;;		_main
;; This function uses a non-reentrant model
;;
psect	text6,local,class=CODE,delta=2,merge=1
	line	96
global __ptext6
__ptext6:	;psect for function _PWM_DutyCycle2
psect	text6
	file	"C:\Users\filip\programs\FuzzySI\firmware - Copia\pwm.c"
	line	96
	global	__size_of_PWM_DutyCycle2
	__size_of_PWM_DutyCycle2	equ	__end_of_PWM_DutyCycle2-_PWM_DutyCycle2
	
_PWM_DutyCycle2:	
;incstack = 0
	opt	stack 3
; Regs used in _PWM_DutyCycle2: [wreg+status,2+status,0]
	line	98
	
l2901:	
;pwm.c: 98: CCPR2L = valor >> 2;
	bsf	status, 5	;RP0=1, select bank3
	bsf	status, 6	;RP1=1, select bank3
	movf	(PWM_DutyCycle2@valor+1)^0180h,w
	movwf	(??_PWM_DutyCycle2+0)^0180h+0+1
	movf	(PWM_DutyCycle2@valor)^0180h,w
	movwf	(??_PWM_DutyCycle2+0)^0180h+0
	rlf	(??_PWM_DutyCycle2+0)^0180h+1,w
	rrf	(??_PWM_DutyCycle2+0)^0180h+1,f
	rrf	(??_PWM_DutyCycle2+0)^0180h+0,f
	rlf	(??_PWM_DutyCycle2+0)^0180h+1,w
	rrf	(??_PWM_DutyCycle2+0)^0180h+1,f
	rrf	(??_PWM_DutyCycle2+0)^0180h+0,f
	movf	0+(??_PWM_DutyCycle2+0)^0180h+0,w
	bcf	status, 5	;RP0=0, select bank0
	bcf	status, 6	;RP1=0, select bank0
	movwf	(27)	;volatile
	line	99
	
l2903:	
;pwm.c: 99: CCP2CON = (valor << 4)|0X0C;
	bsf	status, 5	;RP0=1, select bank3
	bsf	status, 6	;RP1=1, select bank3
	movf	(PWM_DutyCycle2@valor)^0180h,w
	movwf	(??_PWM_DutyCycle2+0)^0180h+0
	movlw	(04h)-1
u3625:
	clrc
	rlf	(??_PWM_DutyCycle2+0)^0180h+0,f
	addlw	-1
	skipz
	goto	u3625
	clrc
	rlf	(??_PWM_DutyCycle2+0)^0180h+0,w
	iorlw	0Ch
	bcf	status, 5	;RP0=0, select bank0
	bcf	status, 6	;RP1=0, select bank0
	movwf	(29)	;volatile
	line	100
	
l373:	
	return
	opt stack 0
GLOBAL	__end_of_PWM_DutyCycle2
	__end_of_PWM_DutyCycle2:
	signat	_PWM_DutyCycle2,4216
	global	_PWM_DutyCycle1

;; *************** function _PWM_DutyCycle1 *****************
;; Defined at:
;;		line 64 in file "C:\Users\filip\programs\FuzzySI\firmware - Copia\pwm.c"
;; Parameters:    Size  Location     Type
;;  valor           2    0[BANK3 ] int 
;; Auto vars:     Size  Location     Type
;;		None
;; Return value:  Size  Location     Type
;;		None               void
;; Registers used:
;;		wreg, status,2, status,0
;; Tracked objects:
;;		On entry : 0/0
;;		On exit  : 0/0
;;		Unchanged: 0/0
;; Data sizes:     COMMON   BANK0   BANK1   BANK3   BANK2
;;      Params:         0       0       0       2       0
;;      Locals:         0       0       0       0       0
;;      Temps:          0       0       0       2       0
;;      Totals:         0       0       0       4       0
;;Total ram usage:        4 bytes
;; Hardware stack levels used:    1
;; Hardware stack levels required when called:    4
;; This function calls:
;;		Nothing
;; This function is called by:
;;		_main
;; This function uses a non-reentrant model
;;
psect	text7,local,class=CODE,delta=2,merge=1
	line	64
global __ptext7
__ptext7:	;psect for function _PWM_DutyCycle1
psect	text7
	file	"C:\Users\filip\programs\FuzzySI\firmware - Copia\pwm.c"
	line	64
	global	__size_of_PWM_DutyCycle1
	__size_of_PWM_DutyCycle1	equ	__end_of_PWM_DutyCycle1-_PWM_DutyCycle1
	
_PWM_DutyCycle1:	
;incstack = 0
	opt	stack 3
; Regs used in _PWM_DutyCycle1: [wreg+status,2+status,0]
	line	91
	
l2975:	
;pwm.c: 91: CCPR1L = valor >> 2;
	bsf	status, 5	;RP0=1, select bank3
	bsf	status, 6	;RP1=1, select bank3
	movf	(PWM_DutyCycle1@valor+1)^0180h,w
	movwf	(??_PWM_DutyCycle1+0)^0180h+0+1
	movf	(PWM_DutyCycle1@valor)^0180h,w
	movwf	(??_PWM_DutyCycle1+0)^0180h+0
	rlf	(??_PWM_DutyCycle1+0)^0180h+1,w
	rrf	(??_PWM_DutyCycle1+0)^0180h+1,f
	rrf	(??_PWM_DutyCycle1+0)^0180h+0,f
	rlf	(??_PWM_DutyCycle1+0)^0180h+1,w
	rrf	(??_PWM_DutyCycle1+0)^0180h+1,f
	rrf	(??_PWM_DutyCycle1+0)^0180h+0,f
	movf	0+(??_PWM_DutyCycle1+0)^0180h+0,w
	bcf	status, 5	;RP0=0, select bank0
	bcf	status, 6	;RP1=0, select bank0
	movwf	(21)	;volatile
	line	92
	
l2977:	
;pwm.c: 92: CCP1CON = (valor << 4)|0X0C;
	bsf	status, 5	;RP0=1, select bank3
	bsf	status, 6	;RP1=1, select bank3
	movf	(PWM_DutyCycle1@valor)^0180h,w
	movwf	(??_PWM_DutyCycle1+0)^0180h+0
	movlw	(04h)-1
u3645:
	clrc
	rlf	(??_PWM_DutyCycle1+0)^0180h+0,f
	addlw	-1
	skipz
	goto	u3645
	clrc
	rlf	(??_PWM_DutyCycle1+0)^0180h+0,w
	iorlw	0Ch
	bcf	status, 5	;RP0=0, select bank0
	bcf	status, 6	;RP1=0, select bank0
	movwf	(23)	;volatile
	line	94
	
l370:	
	return
	opt stack 0
GLOBAL	__end_of_PWM_DutyCycle1
	__end_of_PWM_DutyCycle1:
	signat	_PWM_DutyCycle1,4216
	global	_ISR

;; *************** function _ISR *****************
;; Defined at:
;;		line 94 in file "C:\Users\filip\programs\FuzzySI\firmware - Copia\main.c"
;; Parameters:    Size  Location     Type
;;		None
;; Auto vars:     Size  Location     Type
;;  a               2   22[BANK1 ] int 
;;  a               2   20[BANK1 ] int 
;;  a               2   18[BANK1 ] int 
;;  a               2   16[BANK1 ] int 
;;  a               2   30[BANK1 ] int 
;;  x               3   34[BANK1 ] float 
;;  rule            3   27[BANK1 ] float 
;;  total_area      3   24[BANK1 ] float 
;;  soma            3   13[BANK1 ] float 
;;  reajuste        3    6[BANK1 ] float 
;;  rpmAux          2   32[BANK1 ] int 
;;  delta           2   11[BANK1 ] int 
;; Return value:  Size  Location     Type
;;		None               void
;; Registers used:
;;		wreg, fsr0l, fsr0h, status,2, status,0, btemp+1, pclath, cstack
;; Tracked objects:
;;		On entry : 0/0
;;		On exit  : 0/0
;;		Unchanged: 0/0
;; Data sizes:     COMMON   BANK0   BANK1   BANK3   BANK2
;;      Params:         0       0       0       0       0
;;      Locals:         0       0      37       0       0
;;      Temps:          0       6       0       0       0
;;      Totals:         0       6      37       0       0
;;Total ram usage:       43 bytes
;; Hardware stack levels used:    1
;; Hardware stack levels required when called:    3
;; This function calls:
;;		_USART_ReceiveChar
;;		_USART_WriteChar
;;		___awdiv
;;		___awmod
;;		___awtoft
;;		___bmul
;;		___ftadd
;;		___ftdiv
;;		___ftge
;;		___ftmul
;;		___ftneg
;;		___fttol
;;		___lwdiv
;;		___lwtoft
;;		___wmul
;;		_abs
;;		_maximo
;;		_minimo
;;		_trapmf
;;		i1_PWM_DutyCycle2
;;		i1_TIMER0_Set
;; This function is called by:
;;		Interrupt level 1
;; This function uses a non-reentrant model
;;
psect	text8,local,class=CODE,delta=2,merge=1
	file	"C:\Users\filip\programs\FuzzySI\firmware - Copia\main.c"
	line	94
global __ptext8
__ptext8:	;psect for function _ISR
psect	text8
	file	"C:\Users\filip\programs\FuzzySI\firmware - Copia\main.c"
	line	94
	global	__size_of_ISR
	__size_of_ISR	equ	__end_of_ISR-_ISR
	
_ISR:	
;incstack = 0
	opt	stack 2
; Regs used in _ISR: [wreg-fsr0h+status,2+status,0+btemp+1+pclath+cstack]
psect	intentry,class=CODE,delta=2
global __pintentry
__pintentry:
global interrupt_function
interrupt_function:
	global saved_w
	saved_w	set	btemp+0
	movwf	saved_w
	swapf	status,w
	bcf	status, 5	;RP0=0, select bank0
	bcf	status, 6	;RP1=0, select bank0
	movwf	(??_ISR+2)
	movf	fsr0,w
	movwf	(??_ISR+3)
	movf	pclath,w
	movwf	(??_ISR+4)
	movf	btemp+1,w
	movwf	(??_ISR+5)
	ljmp	_ISR
psect	text8
	line	96
	
i1l3435:	
;main.c: 96: if (PIR1bits.RCIF) {
	btfss	(12),5	;volatile
	goto	u463_21
	goto	u463_20
u463_21:
	goto	i1l3441
u463_20:
	line	97
	
i1l3437:	
;main.c: 97: setpoint = (USART_ReceiveChar() - 48) * 1000;
	fcall	_USART_ReceiveChar
	addlw	low(-48)
	bcf	status, 5	;RP0=0, select bank0
	bcf	status, 6	;RP1=0, select bank0
	movwf	(___wmul@multiplier)
	movlw	high(-48)
	skipnc
	movlw	(high(-48)+1)&0ffh
	movwf	((___wmul@multiplier))+1
	movlw	low(03E8h)
	movwf	(___wmul@multiplicand)
	movlw	high(03E8h)
	movwf	((___wmul@multiplicand))+1
	fcall	___wmul
	bcf	status, 5	;RP0=0, select bank0
	bcf	status, 6	;RP1=0, select bank0
	movf	(1+(?___wmul)),w
	bsf	status, 5	;RP0=1, select bank1
	bcf	status, 6	;RP1=0, select bank1
	clrf	(_setpoint+1)^080h
	addwf	(_setpoint+1)^080h
	bcf	status, 5	;RP0=0, select bank0
	bcf	status, 6	;RP1=0, select bank0
	movf	(0+(?___wmul)),w
	bsf	status, 5	;RP0=1, select bank1
	bcf	status, 6	;RP1=0, select bank1
	clrf	(_setpoint)^080h
	addwf	(_setpoint)^080h

	line	99
	
i1l3439:	
;main.c: 99: PIR1bits.RCIF = 0;
	bcf	status, 5	;RP0=0, select bank0
	bcf	status, 6	;RP1=0, select bank0
	bcf	(12),5	;volatile
	goto	i1l3441
	line	100
	
i1l103:	
	line	114
	
i1l3441:	
;main.c: 100: }
;main.c: 114: if (INTCONbits.T0IF) {
	btfss	(11),2	;volatile
	goto	u464_21
	goto	u464_20
u464_21:
	goto	i1l3647
u464_20:
	line	116
	
i1l3443:	
;main.c: 116: TIMER0_Set(238);
	movlw	(0EEh)
	fcall	i1_TIMER0_Set
	line	119
	
i1l3445:	
;main.c: 119: if (contagens_tm0 < 499) {
	movlw	high(01F3h)
	bsf	status, 5	;RP0=1, select bank1
	bcf	status, 6	;RP1=0, select bank1
	subwf	(_contagens_tm0+1)^080h,w
	movlw	low(01F3h)
	skipnz
	subwf	(_contagens_tm0)^080h,w
	skipnc
	goto	u465_21
	goto	u465_20
u465_21:
	goto	i1l3451
u465_20:
	line	121
	
i1l3447:	
;main.c: 121: contagens_tm0++;
	movlw	low(01h)
	addwf	(_contagens_tm0)^080h,f
	skipnc
	incf	(_contagens_tm0+1)^080h,f
	movlw	high(01h)
	addwf	(_contagens_tm0+1)^080h,f
	line	124
	
i1l3449:	
;main.c: 124: PORTBbits.RB6 = 1;
	bcf	status, 5	;RP0=0, select bank0
	bcf	status, 6	;RP1=0, select bank0
	bsf	(6),6	;volatile
	line	125
;main.c: 125: } else {
	goto	i1l3645
	
i1l105:	
	line	127
	
i1l3451:	
;main.c: 127: contagens_tm0 = 0;
	bsf	status, 5	;RP0=1, select bank1
	bcf	status, 6	;RP1=0, select bank1
	clrf	(_contagens_tm0)^080h
	clrf	(_contagens_tm0+1)^080h
	line	130
	
i1l3453:	
;main.c: 130: pulsos = (TMR1H << 8) + TMR1L;
	bcf	status, 5	;RP0=0, select bank0
	bcf	status, 6	;RP1=0, select bank0
	movf	(15),w	;volatile
	bsf	status, 5	;RP0=1, select bank1
	bcf	status, 6	;RP1=0, select bank1
	clrf	(_pulsos+1)^080h
	addwf	(_pulsos+1)^080h
	bcf	status, 5	;RP0=0, select bank0
	bcf	status, 6	;RP1=0, select bank0
	movf	(14),w	;volatile
	bsf	status, 5	;RP0=1, select bank1
	bcf	status, 6	;RP1=0, select bank1
	clrf	(_pulsos)^080h
	addwf	(_pulsos)^080h

	line	131
	
i1l3455:	
;main.c: 131: rpm = ((pulsos / 7) * 120);
	movlw	low(07h)
	movwf	(___lwdiv@divisor)
	movlw	high(07h)
	movwf	((___lwdiv@divisor))+1
	movf	(_pulsos+1)^080h,w
	clrf	(___lwdiv@dividend+1)
	addwf	(___lwdiv@dividend+1)
	movf	(_pulsos)^080h,w
	clrf	(___lwdiv@dividend)
	addwf	(___lwdiv@dividend)

	fcall	___lwdiv
	movf	(1+(?___lwdiv)),w
	bcf	status, 5	;RP0=0, select bank0
	bcf	status, 6	;RP1=0, select bank0
	clrf	(___wmul@multiplier+1)
	addwf	(___wmul@multiplier+1)
	movf	(0+(?___lwdiv)),w
	clrf	(___wmul@multiplier)
	addwf	(___wmul@multiplier)

	movlw	low(078h)
	movwf	(___wmul@multiplicand)
	movlw	high(078h)
	movwf	((___wmul@multiplicand))+1
	fcall	___wmul
	bcf	status, 5	;RP0=0, select bank0
	bcf	status, 6	;RP1=0, select bank0
	movf	(1+(?___wmul)),w
	bsf	status, 5	;RP0=1, select bank1
	bcf	status, 6	;RP1=0, select bank1
	clrf	(_rpm+1)^080h
	addwf	(_rpm+1)^080h
	bcf	status, 5	;RP0=0, select bank0
	bcf	status, 6	;RP1=0, select bank0
	movf	(0+(?___wmul)),w
	bsf	status, 5	;RP0=1, select bank1
	bcf	status, 6	;RP1=0, select bank1
	clrf	(_rpm)^080h
	addwf	(_rpm)^080h

	line	133
	
i1l3457:	
;main.c: 133: TMR1L = 0x00;
	bcf	status, 5	;RP0=0, select bank0
	bcf	status, 6	;RP1=0, select bank0
	clrf	(14)	;volatile
	line	134
	
i1l3459:	
;main.c: 134: TMR1H = 0x00;
	clrf	(15)	;volatile
	line	136
	
i1l3461:	
;main.c: 136: int rpmAux = rpm;
	bsf	status, 5	;RP0=1, select bank1
	bcf	status, 6	;RP1=0, select bank1
	movf	(_rpm+1)^080h,w
	clrf	(ISR@rpmAux+1)^080h
	addwf	(ISR@rpmAux+1)^080h
	movf	(_rpm)^080h,w
	clrf	(ISR@rpmAux)^080h
	addwf	(ISR@rpmAux)^080h

	line	137
	
i1l3463:	
;main.c: 137: USART_WriteChar((rpmAux % 10) + 48);
	movlw	low(0Ah)
	movwf	(___awmod@divisor)
	movlw	high(0Ah)
	movwf	((___awmod@divisor))+1
	movf	(ISR@rpmAux+1)^080h,w
	clrf	(___awmod@dividend+1)
	addwf	(___awmod@dividend+1)
	movf	(ISR@rpmAux)^080h,w
	clrf	(___awmod@dividend)
	addwf	(___awmod@dividend)

	fcall	___awmod
	movf	(0+(?___awmod)),w
	addlw	030h
	fcall	_USART_WriteChar
	line	138
	
i1l3465:	
;main.c: 138: rpmAux /= 10;
	movlw	low(0Ah)
	movwf	(___awdiv@divisor)
	movlw	high(0Ah)
	movwf	((___awdiv@divisor))+1
	bsf	status, 5	;RP0=1, select bank1
	bcf	status, 6	;RP1=0, select bank1
	movf	(ISR@rpmAux+1)^080h,w
	clrf	(___awdiv@dividend+1)
	addwf	(___awdiv@dividend+1)
	movf	(ISR@rpmAux)^080h,w
	clrf	(___awdiv@dividend)
	addwf	(___awdiv@dividend)

	fcall	___awdiv
	movf	(1+(?___awdiv)),w
	bsf	status, 5	;RP0=1, select bank1
	bcf	status, 6	;RP1=0, select bank1
	clrf	(ISR@rpmAux+1)^080h
	addwf	(ISR@rpmAux+1)^080h
	movf	(0+(?___awdiv)),w
	clrf	(ISR@rpmAux)^080h
	addwf	(ISR@rpmAux)^080h

	line	139
	
i1l3467:	
;main.c: 139: USART_WriteChar((rpmAux % 10) + 48);
	movlw	low(0Ah)
	movwf	(___awmod@divisor)
	movlw	high(0Ah)
	movwf	((___awmod@divisor))+1
	movf	(ISR@rpmAux+1)^080h,w
	clrf	(___awmod@dividend+1)
	addwf	(___awmod@dividend+1)
	movf	(ISR@rpmAux)^080h,w
	clrf	(___awmod@dividend)
	addwf	(___awmod@dividend)

	fcall	___awmod
	movf	(0+(?___awmod)),w
	addlw	030h
	fcall	_USART_WriteChar
	line	140
	
i1l3469:	
;main.c: 140: rpmAux /= 10;
	movlw	low(0Ah)
	movwf	(___awdiv@divisor)
	movlw	high(0Ah)
	movwf	((___awdiv@divisor))+1
	bsf	status, 5	;RP0=1, select bank1
	bcf	status, 6	;RP1=0, select bank1
	movf	(ISR@rpmAux+1)^080h,w
	clrf	(___awdiv@dividend+1)
	addwf	(___awdiv@dividend+1)
	movf	(ISR@rpmAux)^080h,w
	clrf	(___awdiv@dividend)
	addwf	(___awdiv@dividend)

	fcall	___awdiv
	movf	(1+(?___awdiv)),w
	bsf	status, 5	;RP0=1, select bank1
	bcf	status, 6	;RP1=0, select bank1
	clrf	(ISR@rpmAux+1)^080h
	addwf	(ISR@rpmAux+1)^080h
	movf	(0+(?___awdiv)),w
	clrf	(ISR@rpmAux)^080h
	addwf	(ISR@rpmAux)^080h

	line	141
	
i1l3471:	
;main.c: 141: USART_WriteChar((rpmAux % 10) + 48);
	movlw	low(0Ah)
	movwf	(___awmod@divisor)
	movlw	high(0Ah)
	movwf	((___awmod@divisor))+1
	movf	(ISR@rpmAux+1)^080h,w
	clrf	(___awmod@dividend+1)
	addwf	(___awmod@dividend+1)
	movf	(ISR@rpmAux)^080h,w
	clrf	(___awmod@dividend)
	addwf	(___awmod@dividend)

	fcall	___awmod
	movf	(0+(?___awmod)),w
	addlw	030h
	fcall	_USART_WriteChar
	line	142
	
i1l3473:	
;main.c: 142: rpmAux /= 10;
	movlw	low(0Ah)
	movwf	(___awdiv@divisor)
	movlw	high(0Ah)
	movwf	((___awdiv@divisor))+1
	bsf	status, 5	;RP0=1, select bank1
	bcf	status, 6	;RP1=0, select bank1
	movf	(ISR@rpmAux+1)^080h,w
	clrf	(___awdiv@dividend+1)
	addwf	(___awdiv@dividend+1)
	movf	(ISR@rpmAux)^080h,w
	clrf	(___awdiv@dividend)
	addwf	(___awdiv@dividend)

	fcall	___awdiv
	movf	(1+(?___awdiv)),w
	bsf	status, 5	;RP0=1, select bank1
	bcf	status, 6	;RP1=0, select bank1
	clrf	(ISR@rpmAux+1)^080h
	addwf	(ISR@rpmAux+1)^080h
	movf	(0+(?___awdiv)),w
	clrf	(ISR@rpmAux)^080h
	addwf	(ISR@rpmAux)^080h

	line	143
	
i1l3475:	
;main.c: 143: USART_WriteChar((rpmAux % 10) + 48);
	movlw	low(0Ah)
	movwf	(___awmod@divisor)
	movlw	high(0Ah)
	movwf	((___awmod@divisor))+1
	movf	(ISR@rpmAux+1)^080h,w
	clrf	(___awmod@dividend+1)
	addwf	(___awmod@dividend+1)
	movf	(ISR@rpmAux)^080h,w
	clrf	(___awmod@dividend)
	addwf	(___awmod@dividend)

	fcall	___awmod
	movf	(0+(?___awmod)),w
	addlw	030h
	fcall	_USART_WriteChar
	line	144
	
i1l3477:	
;main.c: 144: rpmAux /= 10;
	movlw	low(0Ah)
	movwf	(___awdiv@divisor)
	movlw	high(0Ah)
	movwf	((___awdiv@divisor))+1
	bsf	status, 5	;RP0=1, select bank1
	bcf	status, 6	;RP1=0, select bank1
	movf	(ISR@rpmAux+1)^080h,w
	clrf	(___awdiv@dividend+1)
	addwf	(___awdiv@dividend+1)
	movf	(ISR@rpmAux)^080h,w
	clrf	(___awdiv@dividend)
	addwf	(___awdiv@dividend)

	fcall	___awdiv
	movf	(1+(?___awdiv)),w
	bsf	status, 5	;RP0=1, select bank1
	bcf	status, 6	;RP1=0, select bank1
	clrf	(ISR@rpmAux+1)^080h
	addwf	(ISR@rpmAux+1)^080h
	movf	(0+(?___awdiv)),w
	clrf	(ISR@rpmAux)^080h
	addwf	(ISR@rpmAux)^080h

	line	145
	
i1l3479:	
;main.c: 145: USART_WriteChar((rpmAux % 10) + 48);
	movlw	low(0Ah)
	movwf	(___awmod@divisor)
	movlw	high(0Ah)
	movwf	((___awmod@divisor))+1
	movf	(ISR@rpmAux+1)^080h,w
	clrf	(___awmod@dividend+1)
	addwf	(___awmod@dividend+1)
	movf	(ISR@rpmAux)^080h,w
	clrf	(___awmod@dividend)
	addwf	(___awmod@dividend)

	fcall	___awmod
	movf	(0+(?___awmod)),w
	addlw	030h
	fcall	_USART_WriteChar
	line	146
	
i1l3481:	
;main.c: 146: rpmAux /= 10;
	movlw	low(0Ah)
	movwf	(___awdiv@divisor)
	movlw	high(0Ah)
	movwf	((___awdiv@divisor))+1
	bsf	status, 5	;RP0=1, select bank1
	bcf	status, 6	;RP1=0, select bank1
	movf	(ISR@rpmAux+1)^080h,w
	clrf	(___awdiv@dividend+1)
	addwf	(___awdiv@dividend+1)
	movf	(ISR@rpmAux)^080h,w
	clrf	(___awdiv@dividend)
	addwf	(___awdiv@dividend)

	fcall	___awdiv
	movf	(1+(?___awdiv)),w
	bsf	status, 5	;RP0=1, select bank1
	bcf	status, 6	;RP1=0, select bank1
	clrf	(ISR@rpmAux+1)^080h
	addwf	(ISR@rpmAux+1)^080h
	movf	(0+(?___awdiv)),w
	clrf	(ISR@rpmAux)^080h
	addwf	(ISR@rpmAux)^080h

	line	147
	
i1l3483:	
;main.c: 147: USART_WriteChar((rpmAux % 10) + 48);
	movlw	low(0Ah)
	movwf	(___awmod@divisor)
	movlw	high(0Ah)
	movwf	((___awmod@divisor))+1
	movf	(ISR@rpmAux+1)^080h,w
	clrf	(___awmod@dividend+1)
	addwf	(___awmod@dividend+1)
	movf	(ISR@rpmAux)^080h,w
	clrf	(___awmod@dividend)
	addwf	(___awmod@dividend)

	fcall	___awmod
	movf	(0+(?___awmod)),w
	addlw	030h
	fcall	_USART_WriteChar
	line	148
	
i1l3485:	
;main.c: 148: rpmAux /= 10;
	movlw	low(0Ah)
	movwf	(___awdiv@divisor)
	movlw	high(0Ah)
	movwf	((___awdiv@divisor))+1
	bsf	status, 5	;RP0=1, select bank1
	bcf	status, 6	;RP1=0, select bank1
	movf	(ISR@rpmAux+1)^080h,w
	clrf	(___awdiv@dividend+1)
	addwf	(___awdiv@dividend+1)
	movf	(ISR@rpmAux)^080h,w
	clrf	(___awdiv@dividend)
	addwf	(___awdiv@dividend)

	fcall	___awdiv
	movf	(1+(?___awdiv)),w
	bsf	status, 5	;RP0=1, select bank1
	bcf	status, 6	;RP1=0, select bank1
	clrf	(ISR@rpmAux+1)^080h
	addwf	(ISR@rpmAux+1)^080h
	movf	(0+(?___awdiv)),w
	clrf	(ISR@rpmAux)^080h
	addwf	(ISR@rpmAux)^080h

	line	149
	
i1l3487:	
;main.c: 149: USART_WriteChar((rpmAux % 10) + 48);
	movlw	low(0Ah)
	movwf	(___awmod@divisor)
	movlw	high(0Ah)
	movwf	((___awmod@divisor))+1
	movf	(ISR@rpmAux+1)^080h,w
	clrf	(___awmod@dividend+1)
	addwf	(___awmod@dividend+1)
	movf	(ISR@rpmAux)^080h,w
	clrf	(___awmod@dividend)
	addwf	(___awmod@dividend)

	fcall	___awmod
	movf	(0+(?___awmod)),w
	addlw	030h
	fcall	_USART_WriteChar
	line	150
	
i1l3489:	
;main.c: 150: USART_WriteChar('\n');
	movlw	(0Ah)
	fcall	_USART_WriteChar
	line	152
	
i1l3491:	
;main.c: 152: erro_anterior = erro_atual;
	bsf	status, 5	;RP0=1, select bank1
	bcf	status, 6	;RP1=0, select bank1
	movf	(_erro_atual+1)^080h,w
	clrf	(_erro_anterior+1)^080h
	addwf	(_erro_anterior+1)^080h
	movf	(_erro_atual)^080h,w
	clrf	(_erro_anterior)^080h
	addwf	(_erro_anterior)^080h

	line	153
	
i1l3493:	
;main.c: 153: erro_atual = minimo(abs(setpoint - rpm), 2000);
	movlw	0x0
	bcf	status, 5	;RP0=0, select bank0
	bcf	status, 6	;RP1=0, select bank0
	movwf	(minimo@b)
	movlw	0xfa
	movwf	(minimo@b+1)
	movlw	0x44
	movwf	(minimo@b+2)
	bsf	status, 5	;RP0=1, select bank1
	bcf	status, 6	;RP1=0, select bank1
	comf	(_rpm)^080h,w
	bcf	status, 5	;RP0=0, select bank0
	bcf	status, 6	;RP1=0, select bank0
	movwf	(??_ISR+0)+0
	bsf	status, 5	;RP0=1, select bank1
	bcf	status, 6	;RP1=0, select bank1
	comf	(_rpm+1)^080h,w
	bcf	status, 5	;RP0=0, select bank0
	bcf	status, 6	;RP1=0, select bank0
	movwf	((??_ISR+0)+0+1)
	incf	(??_ISR+0)+0,f
	skipnz
	incf	((??_ISR+0)+0+1),f
	bsf	status, 5	;RP0=1, select bank1
	bcf	status, 6	;RP1=0, select bank1
	movf	(_setpoint)^080h,w
	bcf	status, 5	;RP0=0, select bank0
	bcf	status, 6	;RP1=0, select bank0
	addwf	0+(??_ISR+0)+0,w
	movwf	(abs@a)
	bsf	status, 5	;RP0=1, select bank1
	bcf	status, 6	;RP1=0, select bank1
	movf	(_setpoint+1)^080h,w
	skipnc
	incf	(_setpoint+1)^080h,w
	bcf	status, 5	;RP0=0, select bank0
	bcf	status, 6	;RP1=0, select bank0
	addwf	1+(??_ISR+0)+0,w
	movwf	1+(abs@a)
	fcall	_abs
	movf	(1+(?_abs)),w
	clrf	(___awtoft@c+1)
	addwf	(___awtoft@c+1)
	movf	(0+(?_abs)),w
	clrf	(___awtoft@c)
	addwf	(___awtoft@c)

	fcall	___awtoft
	movf	(0+(?___awtoft)),w
	bcf	status, 5	;RP0=0, select bank0
	bcf	status, 6	;RP1=0, select bank0
	movwf	(minimo@a)
	movf	(1+(?___awtoft)),w
	movwf	(minimo@a+1)
	movf	(2+(?___awtoft)),w
	movwf	(minimo@a+2)
	fcall	_minimo
	bcf	status, 5	;RP0=0, select bank0
	bcf	status, 6	;RP1=0, select bank0
	movf	(0+(?_minimo)),w
	movwf	(___fttol@f1)
	movf	(1+(?_minimo)),w
	movwf	(___fttol@f1+1)
	movf	(2+(?_minimo)),w
	movwf	(___fttol@f1+2)
	fcall	___fttol
	bcf	status, 5	;RP0=0, select bank0
	bcf	status, 6	;RP1=0, select bank0
	movf	1+(((0+(?___fttol)))),w
	bsf	status, 5	;RP0=1, select bank1
	bcf	status, 6	;RP1=0, select bank1
	clrf	(_erro_atual+1)^080h
	addwf	(_erro_atual+1)^080h
	bcf	status, 5	;RP0=0, select bank0
	bcf	status, 6	;RP1=0, select bank0
	movf	0+(((0+(?___fttol)))),w
	bsf	status, 5	;RP0=1, select bank1
	bcf	status, 6	;RP1=0, select bank1
	clrf	(_erro_atual)^080h
	addwf	(_erro_atual)^080h

	line	154
	
i1l3495:	
;main.c: 154: int delta = maximo(minimo(abs(erro_atual - erro_anterior), 1000), 1);
	movlw	0x0
	bcf	status, 5	;RP0=0, select bank0
	bcf	status, 6	;RP1=0, select bank0
	movwf	(maximo@b)
	movlw	0x80
	movwf	(maximo@b+1)
	movlw	0x3f
	movwf	(maximo@b+2)
	movlw	0x0
	movwf	(minimo@b)
	movlw	0x7a
	movwf	(minimo@b+1)
	movlw	0x44
	movwf	(minimo@b+2)
	bsf	status, 5	;RP0=1, select bank1
	bcf	status, 6	;RP1=0, select bank1
	comf	(_erro_anterior)^080h,w
	bcf	status, 5	;RP0=0, select bank0
	bcf	status, 6	;RP1=0, select bank0
	movwf	(??_ISR+0)+0
	bsf	status, 5	;RP0=1, select bank1
	bcf	status, 6	;RP1=0, select bank1
	comf	(_erro_anterior+1)^080h,w
	bcf	status, 5	;RP0=0, select bank0
	bcf	status, 6	;RP1=0, select bank0
	movwf	((??_ISR+0)+0+1)
	incf	(??_ISR+0)+0,f
	skipnz
	incf	((??_ISR+0)+0+1),f
	bsf	status, 5	;RP0=1, select bank1
	bcf	status, 6	;RP1=0, select bank1
	movf	(_erro_atual)^080h,w
	bcf	status, 5	;RP0=0, select bank0
	bcf	status, 6	;RP1=0, select bank0
	addwf	0+(??_ISR+0)+0,w
	movwf	(abs@a)
	bsf	status, 5	;RP0=1, select bank1
	bcf	status, 6	;RP1=0, select bank1
	movf	(_erro_atual+1)^080h,w
	skipnc
	incf	(_erro_atual+1)^080h,w
	bcf	status, 5	;RP0=0, select bank0
	bcf	status, 6	;RP1=0, select bank0
	addwf	1+(??_ISR+0)+0,w
	movwf	1+(abs@a)
	fcall	_abs
	movf	(1+(?_abs)),w
	clrf	(___awtoft@c+1)
	addwf	(___awtoft@c+1)
	movf	(0+(?_abs)),w
	clrf	(___awtoft@c)
	addwf	(___awtoft@c)

	fcall	___awtoft
	movf	(0+(?___awtoft)),w
	bcf	status, 5	;RP0=0, select bank0
	bcf	status, 6	;RP1=0, select bank0
	movwf	(minimo@a)
	movf	(1+(?___awtoft)),w
	movwf	(minimo@a+1)
	movf	(2+(?___awtoft)),w
	movwf	(minimo@a+2)
	fcall	_minimo
	bcf	status, 5	;RP0=0, select bank0
	bcf	status, 6	;RP1=0, select bank0
	movf	(0+(?_minimo)),w
	movwf	(maximo@a)
	movf	(1+(?_minimo)),w
	movwf	(maximo@a+1)
	movf	(2+(?_minimo)),w
	movwf	(maximo@a+2)
	fcall	_maximo
	bcf	status, 5	;RP0=0, select bank0
	bcf	status, 6	;RP1=0, select bank0
	movf	(0+(?_maximo)),w
	movwf	(___fttol@f1)
	movf	(1+(?_maximo)),w
	movwf	(___fttol@f1+1)
	movf	(2+(?_maximo)),w
	movwf	(___fttol@f1+2)
	fcall	___fttol
	bcf	status, 5	;RP0=0, select bank0
	bcf	status, 6	;RP1=0, select bank0
	movf	1+(((0+(?___fttol)))),w
	bsf	status, 5	;RP0=1, select bank1
	bcf	status, 6	;RP1=0, select bank1
	clrf	(ISR@delta+1)^080h
	addwf	(ISR@delta+1)^080h
	bcf	status, 5	;RP0=0, select bank0
	bcf	status, 6	;RP1=0, select bank0
	movf	0+(((0+(?___fttol)))),w
	bsf	status, 5	;RP0=1, select bank1
	bcf	status, 6	;RP1=0, select bank1
	clrf	(ISR@delta)^080h
	addwf	(ISR@delta)^080h

	line	155
	
i1l3497:	
;main.c: 155: float x = 0;
	movlw	0x0
	movwf	(ISR@x)^080h
	movlw	0x0
	movwf	(ISR@x+1)^080h
	movlw	0x0
	movwf	(ISR@x+2)^080h
	line	156
	
i1l3499:	
;main.c: 156: float rule = 0;
	movlw	0x0
	movwf	(ISR@rule)^080h
	movlw	0x0
	movwf	(ISR@rule+1)^080h
	movlw	0x0
	movwf	(ISR@rule+2)^080h
	line	159
	
i1l3501:	
;main.c: 159: if (erro_atual <= 100) {
	movf	(_erro_atual+1)^080h,w
	xorlw	80h
	movwf	btemp+1
	movlw	(high(065h))^80h
	subwf	btemp+1,w
	skipz
	goto	u466_25
	movlw	low(065h)
	subwf	(_erro_atual)^080h,w
u466_25:

	skipnc
	goto	u466_21
	goto	u466_20
u466_21:
	goto	i1l3523
u466_20:
	line	162
	
i1l3503:	
;main.c: 162: rule = trapmf(erro_atual, -1, 0, 1, 100);
	bsf	status, 5	;RP0=1, select bank1
	bcf	status, 6	;RP1=0, select bank1
	movf	(_erro_atual+1)^080h,w
	clrf	(___awtoft@c+1)
	addwf	(___awtoft@c+1)
	movf	(_erro_atual)^080h,w
	clrf	(___awtoft@c)
	addwf	(___awtoft@c)

	fcall	___awtoft
	movf	(0+(?___awtoft)),w
	bcf	status, 5	;RP0=0, select bank0
	bcf	status, 6	;RP1=0, select bank0
	movwf	(trapmf@x)
	movf	(1+(?___awtoft)),w
	movwf	(trapmf@x+1)
	movf	(2+(?___awtoft)),w
	movwf	(trapmf@x+2)
	movlw	0x0
	movwf	(trapmf@a)
	movlw	0x80
	movwf	(trapmf@a+1)
	movlw	0xbf
	movwf	(trapmf@a+2)
	movlw	0x0
	movwf	(trapmf@b)
	movlw	0x0
	movwf	(trapmf@b+1)
	movlw	0x0
	movwf	(trapmf@b+2)
	movlw	0x0
	movwf	(trapmf@c)
	movlw	0x80
	movwf	(trapmf@c+1)
	movlw	0x3f
	movwf	(trapmf@c+2)
	movlw	0x0
	movwf	(trapmf@d)
	movlw	0xc8
	movwf	(trapmf@d+1)
	movlw	0x42
	movwf	(trapmf@d+2)
	fcall	_trapmf
	bcf	status, 5	;RP0=0, select bank0
	bcf	status, 6	;RP1=0, select bank0
	movf	(0+(?_trapmf)),w
	bsf	status, 5	;RP0=1, select bank1
	bcf	status, 6	;RP1=0, select bank1
	movwf	(ISR@rule)^080h
	bcf	status, 5	;RP0=0, select bank0
	bcf	status, 6	;RP1=0, select bank0
	movf	(1+(?_trapmf)),w
	bsf	status, 5	;RP0=1, select bank1
	bcf	status, 6	;RP1=0, select bank1
	movwf	(ISR@rule+1)^080h
	bcf	status, 5	;RP0=0, select bank0
	bcf	status, 6	;RP1=0, select bank0
	movf	(2+(?_trapmf)),w
	bsf	status, 5	;RP0=1, select bank1
	bcf	status, 6	;RP1=0, select bank1
	movwf	(ISR@rule+2)^080h
	line	164
	
i1l3505:	
;main.c: 164: x = 0;
	movlw	0x0
	movwf	(ISR@x)^080h
	movlw	0x0
	movwf	(ISR@x+1)^080h
	movlw	0x0
	movwf	(ISR@x+2)^080h
	line	165
	
i1l3507:	
;main.c: 165: for (int a = 0; a <= 15; a++) {
	clrf	(ISR@a)^080h
	clrf	(ISR@a+1)^080h
	
i1l3509:	
	movf	(ISR@a+1)^080h,w
	xorlw	80h
	movwf	btemp+1
	movlw	(high(010h))^80h
	subwf	btemp+1,w
	skipz
	goto	u467_25
	movlw	low(010h)
	subwf	(ISR@a)^080h,w
u467_25:

	skipc
	goto	u467_21
	goto	u467_20
u467_21:
	goto	i1l3513
u467_20:
	goto	i1l3523
	
i1l3511:	
	goto	i1l3523
	
i1l108:	
	line	166
	
i1l3513:	
;main.c: 166: rBaixo[a] = trapmf(x, -1, 0, 0, 5);
	movlw	(03h)
	bcf	status, 5	;RP0=0, select bank0
	bcf	status, 6	;RP1=0, select bank0
	movwf	(??_ISR+0)+0
	movf	(??_ISR+0)+0,w
	movwf	(___bmul@multiplicand)
	bsf	status, 5	;RP0=1, select bank1
	bcf	status, 6	;RP1=0, select bank1
	movf	(ISR@a)^080h,w
	fcall	___bmul
	addlw	_rBaixo&0ffh
	movwf	fsr0
	bsf	status, 5	;RP0=1, select bank1
	bcf	status, 6	;RP1=0, select bank1
	movf	(ISR@x)^080h,w
	bcf	status, 5	;RP0=0, select bank0
	bcf	status, 6	;RP1=0, select bank0
	movwf	(trapmf@x)
	bsf	status, 5	;RP0=1, select bank1
	bcf	status, 6	;RP1=0, select bank1
	movf	(ISR@x+1)^080h,w
	bcf	status, 5	;RP0=0, select bank0
	bcf	status, 6	;RP1=0, select bank0
	movwf	(trapmf@x+1)
	bsf	status, 5	;RP0=1, select bank1
	bcf	status, 6	;RP1=0, select bank1
	movf	(ISR@x+2)^080h,w
	bcf	status, 5	;RP0=0, select bank0
	bcf	status, 6	;RP1=0, select bank0
	movwf	(trapmf@x+2)
	movlw	0x0
	movwf	(trapmf@a)
	movlw	0x80
	movwf	(trapmf@a+1)
	movlw	0xbf
	movwf	(trapmf@a+2)
	movlw	0x0
	movwf	(trapmf@b)
	movlw	0x0
	movwf	(trapmf@b+1)
	movlw	0x0
	movwf	(trapmf@b+2)
	movlw	0x0
	movwf	(trapmf@c)
	movlw	0x0
	movwf	(trapmf@c+1)
	movlw	0x0
	movwf	(trapmf@c+2)
	movlw	0x0
	movwf	(trapmf@d)
	movlw	0xa0
	movwf	(trapmf@d+1)
	movlw	0x40
	movwf	(trapmf@d+2)
	fcall	_trapmf
	bcf	status, 5	;RP0=0, select bank0
	bcf	status, 6	;RP1=0, select bank0
	movf	(0+(?_trapmf)),w
	bsf	status, 7	;select IRP bank3
	movwf	indf
	incf	fsr0,f
	movf	(1+(?_trapmf)),w
	movwf	indf
	incf	fsr0,f
	movf	(2+(?_trapmf)),w
	movwf	indf
	line	167
;main.c: 167: if (rBaixo[a] >= rule) {
	movlw	(03h)
	movwf	(??_ISR+0)+0
	movf	(??_ISR+0)+0,w
	movwf	(___bmul@multiplicand)
	bsf	status, 5	;RP0=1, select bank1
	bcf	status, 6	;RP1=0, select bank1
	movf	(ISR@a)^080h,w
	fcall	___bmul
	addlw	_rBaixo&0ffh
	movwf	fsr0
	bsf	status, 7	;select IRP bank3
	movf	indf,w
	movwf	(___ftge@ff1)
	incf	fsr0,f
	movf	indf,w
	movwf	(___ftge@ff1+1)
	incf	fsr0,f
	movf	indf,w
	movwf	(___ftge@ff1+2)
	bsf	status, 5	;RP0=1, select bank1
	bcf	status, 6	;RP1=0, select bank1
	movf	(ISR@rule)^080h,w
	movwf	(___ftge@ff2)
	movf	(ISR@rule+1)^080h,w
	movwf	(___ftge@ff2+1)
	movf	(ISR@rule+2)^080h,w
	movwf	(___ftge@ff2+2)
	fcall	___ftge
	btfss	status,0
	goto	u468_21
	goto	u468_20
u468_21:
	goto	i1l3517
u468_20:
	line	168
	
i1l3515:	
;main.c: 168: rBaixo[a] = rule;
	movlw	(03h)
	bcf	status, 5	;RP0=0, select bank0
	bcf	status, 6	;RP1=0, select bank0
	movwf	(??_ISR+0)+0
	movf	(??_ISR+0)+0,w
	movwf	(___bmul@multiplicand)
	bsf	status, 5	;RP0=1, select bank1
	bcf	status, 6	;RP1=0, select bank1
	movf	(ISR@a)^080h,w
	fcall	___bmul
	addlw	_rBaixo&0ffh
	movwf	fsr0
	bsf	status, 5	;RP0=1, select bank1
	bcf	status, 6	;RP1=0, select bank1
	movf	(ISR@rule)^080h,w
	bsf	status, 7	;select IRP bank3
	movwf	indf
	incf	fsr0,f
	movf	(ISR@rule+1)^080h,w
	movwf	indf
	incf	fsr0,f
	movf	(ISR@rule+2)^080h,w
	movwf	indf
	goto	i1l3517
	line	169
	
i1l110:	
	line	171
	
i1l3517:	
;main.c: 169: }
;main.c: 171: x += 1;
	movlw	0x0
	bcf	status, 5	;RP0=0, select bank0
	bcf	status, 6	;RP1=0, select bank0
	movwf	(___ftadd@f1)
	movlw	0x80
	movwf	(___ftadd@f1+1)
	movlw	0x3f
	movwf	(___ftadd@f1+2)
	bsf	status, 5	;RP0=1, select bank1
	bcf	status, 6	;RP1=0, select bank1
	movf	(ISR@x)^080h,w
	bcf	status, 5	;RP0=0, select bank0
	bcf	status, 6	;RP1=0, select bank0
	movwf	(___ftadd@f2)
	bsf	status, 5	;RP0=1, select bank1
	bcf	status, 6	;RP1=0, select bank1
	movf	(ISR@x+1)^080h,w
	bcf	status, 5	;RP0=0, select bank0
	bcf	status, 6	;RP1=0, select bank0
	movwf	(___ftadd@f2+1)
	bsf	status, 5	;RP0=1, select bank1
	bcf	status, 6	;RP1=0, select bank1
	movf	(ISR@x+2)^080h,w
	bcf	status, 5	;RP0=0, select bank0
	bcf	status, 6	;RP1=0, select bank0
	movwf	(___ftadd@f2+2)
	fcall	___ftadd
	bcf	status, 5	;RP0=0, select bank0
	bcf	status, 6	;RP1=0, select bank0
	movf	(0+(?___ftadd)),w
	bsf	status, 5	;RP0=1, select bank1
	bcf	status, 6	;RP1=0, select bank1
	movwf	(ISR@x)^080h
	bcf	status, 5	;RP0=0, select bank0
	bcf	status, 6	;RP1=0, select bank0
	movf	(1+(?___ftadd)),w
	bsf	status, 5	;RP0=1, select bank1
	bcf	status, 6	;RP1=0, select bank1
	movwf	(ISR@x+1)^080h
	bcf	status, 5	;RP0=0, select bank0
	bcf	status, 6	;RP1=0, select bank0
	movf	(2+(?___ftadd)),w
	bsf	status, 5	;RP0=1, select bank1
	bcf	status, 6	;RP1=0, select bank1
	movwf	(ISR@x+2)^080h
	line	165
	
i1l3519:	
	movlw	low(01h)
	addwf	(ISR@a)^080h,f
	skipnc
	incf	(ISR@a+1)^080h,f
	movlw	high(01h)
	addwf	(ISR@a+1)^080h,f
	
i1l3521:	
	movf	(ISR@a+1)^080h,w
	xorlw	80h
	movwf	btemp+1
	movlw	(high(010h))^80h
	subwf	btemp+1,w
	skipz
	goto	u469_25
	movlw	low(010h)
	subwf	(ISR@a)^080h,w
u469_25:

	skipc
	goto	u469_21
	goto	u469_20
u469_21:
	goto	i1l3513
u469_20:
	goto	i1l3523
	
i1l109:	
	goto	i1l3523
	line	173
	
i1l107:	
	line	177
	
i1l3523:	
;main.c: 172: }
;main.c: 173: }
;main.c: 177: if (erro_atual >= 100 && erro_atual <= 1001 && delta <= 200) {
	bsf	status, 5	;RP0=1, select bank1
	bcf	status, 6	;RP1=0, select bank1
	movf	(_erro_atual+1)^080h,w
	xorlw	80h
	movwf	btemp+1
	movlw	(high(064h))^80h
	subwf	btemp+1,w
	skipz
	goto	u470_25
	movlw	low(064h)
	subwf	(_erro_atual)^080h,w
u470_25:

	skipc
	goto	u470_21
	goto	u470_20
u470_21:
	goto	i1l3549
u470_20:
	
i1l3525:	
	bsf	status, 5	;RP0=1, select bank1
	bcf	status, 6	;RP1=0, select bank1
	movf	(_erro_atual+1)^080h,w
	xorlw	80h
	movwf	btemp+1
	movlw	(high(03EAh))^80h
	subwf	btemp+1,w
	skipz
	goto	u471_25
	movlw	low(03EAh)
	subwf	(_erro_atual)^080h,w
u471_25:

	skipnc
	goto	u471_21
	goto	u471_20
u471_21:
	goto	i1l3549
u471_20:
	
i1l3527:	
	bsf	status, 5	;RP0=1, select bank1
	bcf	status, 6	;RP1=0, select bank1
	movf	(ISR@delta+1)^080h,w
	xorlw	80h
	movwf	btemp+1
	movlw	(high(0C9h))^80h
	subwf	btemp+1,w
	skipz
	goto	u472_25
	movlw	low(0C9h)
	subwf	(ISR@delta)^080h,w
u472_25:

	skipnc
	goto	u472_21
	goto	u472_20
u472_21:
	goto	i1l3549
u472_20:
	line	180
	
i1l3529:	
;main.c: 179: rule = trapmf(erro_atual, 50, 800, 800, 1550) *
;main.c: 180: (1 - trapmf(delta, -1, 0, 1, 200));
	movlw	0x0
	bcf	status, 5	;RP0=0, select bank0
	bcf	status, 6	;RP1=0, select bank0
	movwf	(trapmf@d)
	movlw	0x48
	movwf	(trapmf@d+1)
	movlw	0x43
	movwf	(trapmf@d+2)
	movlw	0x0
	movwf	(trapmf@c)
	movlw	0x80
	movwf	(trapmf@c+1)
	movlw	0x3f
	movwf	(trapmf@c+2)
	movlw	0x0
	movwf	(trapmf@b)
	movlw	0x0
	movwf	(trapmf@b+1)
	movlw	0x0
	movwf	(trapmf@b+2)
	movlw	0x0
	movwf	(trapmf@a)
	movlw	0x80
	movwf	(trapmf@a+1)
	movlw	0xbf
	movwf	(trapmf@a+2)
	bsf	status, 5	;RP0=1, select bank1
	bcf	status, 6	;RP1=0, select bank1
	movf	(ISR@delta+1)^080h,w
	clrf	(___awtoft@c+1)
	addwf	(___awtoft@c+1)
	movf	(ISR@delta)^080h,w
	clrf	(___awtoft@c)
	addwf	(___awtoft@c)

	fcall	___awtoft
	movf	(0+(?___awtoft)),w
	bcf	status, 5	;RP0=0, select bank0
	bcf	status, 6	;RP1=0, select bank0
	movwf	(trapmf@x)
	movf	(1+(?___awtoft)),w
	movwf	(trapmf@x+1)
	movf	(2+(?___awtoft)),w
	movwf	(trapmf@x+2)
	fcall	_trapmf
	bcf	status, 5	;RP0=0, select bank0
	bcf	status, 6	;RP1=0, select bank0
	movf	(0+(?_trapmf)),w
	bsf	status, 5	;RP0=1, select bank1
	bcf	status, 6	;RP1=0, select bank1
	movwf	(_ISR$1636)^080h
	bcf	status, 5	;RP0=0, select bank0
	bcf	status, 6	;RP1=0, select bank0
	movf	(1+(?_trapmf)),w
	bsf	status, 5	;RP0=1, select bank1
	bcf	status, 6	;RP1=0, select bank1
	movwf	(_ISR$1636+1)^080h
	bcf	status, 5	;RP0=0, select bank0
	bcf	status, 6	;RP1=0, select bank0
	movf	(2+(?_trapmf)),w
	bsf	status, 5	;RP0=1, select bank1
	bcf	status, 6	;RP1=0, select bank1
	movwf	(_ISR$1636+2)^080h
;main.c: 179: rule = trapmf(erro_atual, 50, 800, 800, 1550) *
;main.c: 180: (1 - trapmf(delta, -1, 0, 1, 200));
	movlw	0xc0
	bcf	status, 5	;RP0=0, select bank0
	bcf	status, 6	;RP1=0, select bank0
	movwf	(trapmf@d)
	movlw	0xc1
	movwf	(trapmf@d+1)
	movlw	0x44
	movwf	(trapmf@d+2)
	movlw	0x0
	movwf	(trapmf@c)
	movlw	0x48
	movwf	(trapmf@c+1)
	movlw	0x44
	movwf	(trapmf@c+2)
	movlw	0x0
	movwf	(trapmf@b)
	movlw	0x48
	movwf	(trapmf@b+1)
	movlw	0x44
	movwf	(trapmf@b+2)
	movlw	0x0
	movwf	(trapmf@a)
	movlw	0x48
	movwf	(trapmf@a+1)
	movlw	0x42
	movwf	(trapmf@a+2)
	bsf	status, 5	;RP0=1, select bank1
	bcf	status, 6	;RP1=0, select bank1
	movf	(_erro_atual+1)^080h,w
	clrf	(___awtoft@c+1)
	addwf	(___awtoft@c+1)
	movf	(_erro_atual)^080h,w
	clrf	(___awtoft@c)
	addwf	(___awtoft@c)

	fcall	___awtoft
	movf	(0+(?___awtoft)),w
	bcf	status, 5	;RP0=0, select bank0
	bcf	status, 6	;RP1=0, select bank0
	movwf	(trapmf@x)
	movf	(1+(?___awtoft)),w
	movwf	(trapmf@x+1)
	movf	(2+(?___awtoft)),w
	movwf	(trapmf@x+2)
	fcall	_trapmf
	bcf	status, 5	;RP0=0, select bank0
	bcf	status, 6	;RP1=0, select bank0
	movf	(0+(?_trapmf)),w
	movwf	(___ftmul@f1)
	movf	(1+(?_trapmf)),w
	movwf	(___ftmul@f1+1)
	movf	(2+(?_trapmf)),w
	movwf	(___ftmul@f1+2)
	movlw	0x0
	movwf	(___ftadd@f1)
	movlw	0x80
	movwf	(___ftadd@f1+1)
	movlw	0x3f
	movwf	(___ftadd@f1+2)
	bsf	status, 5	;RP0=1, select bank1
	bcf	status, 6	;RP1=0, select bank1
	movf	(_ISR$1636)^080h,w
	bcf	status, 5	;RP0=0, select bank0
	bcf	status, 6	;RP1=0, select bank0
	movwf	(___ftneg@f1)
	bsf	status, 5	;RP0=1, select bank1
	bcf	status, 6	;RP1=0, select bank1
	movf	(_ISR$1636+1)^080h,w
	bcf	status, 5	;RP0=0, select bank0
	bcf	status, 6	;RP1=0, select bank0
	movwf	(___ftneg@f1+1)
	bsf	status, 5	;RP0=1, select bank1
	bcf	status, 6	;RP1=0, select bank1
	movf	(_ISR$1636+2)^080h,w
	bcf	status, 5	;RP0=0, select bank0
	bcf	status, 6	;RP1=0, select bank0
	movwf	(___ftneg@f1+2)
	fcall	___ftneg
	bcf	status, 5	;RP0=0, select bank0
	bcf	status, 6	;RP1=0, select bank0
	movf	(0+(?___ftneg)),w
	movwf	(___ftadd@f2)
	movf	(1+(?___ftneg)),w
	movwf	(___ftadd@f2+1)
	movf	(2+(?___ftneg)),w
	movwf	(___ftadd@f2+2)
	fcall	___ftadd
	bcf	status, 5	;RP0=0, select bank0
	bcf	status, 6	;RP1=0, select bank0
	movf	(0+(?___ftadd)),w
	movwf	(___ftmul@f2)
	movf	(1+(?___ftadd)),w
	movwf	(___ftmul@f2+1)
	movf	(2+(?___ftadd)),w
	movwf	(___ftmul@f2+2)
	fcall	___ftmul
	bcf	status, 5	;RP0=0, select bank0
	bcf	status, 6	;RP1=0, select bank0
	movf	(0+(?___ftmul)),w
	bsf	status, 5	;RP0=1, select bank1
	bcf	status, 6	;RP1=0, select bank1
	movwf	(ISR@rule)^080h
	bcf	status, 5	;RP0=0, select bank0
	bcf	status, 6	;RP1=0, select bank0
	movf	(1+(?___ftmul)),w
	bsf	status, 5	;RP0=1, select bank1
	bcf	status, 6	;RP1=0, select bank1
	movwf	(ISR@rule+1)^080h
	bcf	status, 5	;RP0=0, select bank0
	bcf	status, 6	;RP1=0, select bank0
	movf	(2+(?___ftmul)),w
	bsf	status, 5	;RP0=1, select bank1
	bcf	status, 6	;RP1=0, select bank1
	movwf	(ISR@rule+2)^080h
	line	182
	
i1l3531:	
;main.c: 182: x = 0;
	movlw	0x0
	movwf	(ISR@x)^080h
	movlw	0x0
	movwf	(ISR@x+1)^080h
	movlw	0x0
	movwf	(ISR@x+2)^080h
	line	183
	
i1l3533:	
;main.c: 183: for (int a = 0; a <= 15; a++) {
	clrf	(ISR@a_211)^080h
	clrf	(ISR@a_211+1)^080h
	
i1l3535:	
	movf	(ISR@a_211+1)^080h,w
	xorlw	80h
	movwf	btemp+1
	movlw	(high(010h))^80h
	subwf	btemp+1,w
	skipz
	goto	u473_25
	movlw	low(010h)
	subwf	(ISR@a_211)^080h,w
u473_25:

	skipc
	goto	u473_21
	goto	u473_20
u473_21:
	goto	i1l3539
u473_20:
	goto	i1l3549
	
i1l3537:	
	goto	i1l3549
	
i1l112:	
	line	184
	
i1l3539:	
;main.c: 184: rBaixo[a] = trapmf(x, 2, 5, 5, 10);
	movlw	(03h)
	bcf	status, 5	;RP0=0, select bank0
	bcf	status, 6	;RP1=0, select bank0
	movwf	(??_ISR+0)+0
	movf	(??_ISR+0)+0,w
	movwf	(___bmul@multiplicand)
	bsf	status, 5	;RP0=1, select bank1
	bcf	status, 6	;RP1=0, select bank1
	movf	(ISR@a_211)^080h,w
	fcall	___bmul
	addlw	_rBaixo&0ffh
	movwf	fsr0
	bsf	status, 5	;RP0=1, select bank1
	bcf	status, 6	;RP1=0, select bank1
	movf	(ISR@x)^080h,w
	bcf	status, 5	;RP0=0, select bank0
	bcf	status, 6	;RP1=0, select bank0
	movwf	(trapmf@x)
	bsf	status, 5	;RP0=1, select bank1
	bcf	status, 6	;RP1=0, select bank1
	movf	(ISR@x+1)^080h,w
	bcf	status, 5	;RP0=0, select bank0
	bcf	status, 6	;RP1=0, select bank0
	movwf	(trapmf@x+1)
	bsf	status, 5	;RP0=1, select bank1
	bcf	status, 6	;RP1=0, select bank1
	movf	(ISR@x+2)^080h,w
	bcf	status, 5	;RP0=0, select bank0
	bcf	status, 6	;RP1=0, select bank0
	movwf	(trapmf@x+2)
	movlw	0x0
	movwf	(trapmf@a)
	movlw	0x0
	movwf	(trapmf@a+1)
	movlw	0x40
	movwf	(trapmf@a+2)
	movlw	0x0
	movwf	(trapmf@b)
	movlw	0xa0
	movwf	(trapmf@b+1)
	movlw	0x40
	movwf	(trapmf@b+2)
	movlw	0x0
	movwf	(trapmf@c)
	movlw	0xa0
	movwf	(trapmf@c+1)
	movlw	0x40
	movwf	(trapmf@c+2)
	movlw	0x0
	movwf	(trapmf@d)
	movlw	0x20
	movwf	(trapmf@d+1)
	movlw	0x41
	movwf	(trapmf@d+2)
	fcall	_trapmf
	bcf	status, 5	;RP0=0, select bank0
	bcf	status, 6	;RP1=0, select bank0
	movf	(0+(?_trapmf)),w
	bsf	status, 7	;select IRP bank3
	movwf	indf
	incf	fsr0,f
	movf	(1+(?_trapmf)),w
	movwf	indf
	incf	fsr0,f
	movf	(2+(?_trapmf)),w
	movwf	indf
	line	185
;main.c: 185: if (rBaixo[a] >= rule) {
	movlw	(03h)
	movwf	(??_ISR+0)+0
	movf	(??_ISR+0)+0,w
	movwf	(___bmul@multiplicand)
	bsf	status, 5	;RP0=1, select bank1
	bcf	status, 6	;RP1=0, select bank1
	movf	(ISR@a_211)^080h,w
	fcall	___bmul
	addlw	_rBaixo&0ffh
	movwf	fsr0
	bsf	status, 7	;select IRP bank3
	movf	indf,w
	movwf	(___ftge@ff1)
	incf	fsr0,f
	movf	indf,w
	movwf	(___ftge@ff1+1)
	incf	fsr0,f
	movf	indf,w
	movwf	(___ftge@ff1+2)
	bsf	status, 5	;RP0=1, select bank1
	bcf	status, 6	;RP1=0, select bank1
	movf	(ISR@rule)^080h,w
	movwf	(___ftge@ff2)
	movf	(ISR@rule+1)^080h,w
	movwf	(___ftge@ff2+1)
	movf	(ISR@rule+2)^080h,w
	movwf	(___ftge@ff2+2)
	fcall	___ftge
	btfss	status,0
	goto	u474_21
	goto	u474_20
u474_21:
	goto	i1l3543
u474_20:
	line	186
	
i1l3541:	
;main.c: 186: rBaixo[a] = rule;
	movlw	(03h)
	bcf	status, 5	;RP0=0, select bank0
	bcf	status, 6	;RP1=0, select bank0
	movwf	(??_ISR+0)+0
	movf	(??_ISR+0)+0,w
	movwf	(___bmul@multiplicand)
	bsf	status, 5	;RP0=1, select bank1
	bcf	status, 6	;RP1=0, select bank1
	movf	(ISR@a_211)^080h,w
	fcall	___bmul
	addlw	_rBaixo&0ffh
	movwf	fsr0
	bsf	status, 5	;RP0=1, select bank1
	bcf	status, 6	;RP1=0, select bank1
	movf	(ISR@rule)^080h,w
	bsf	status, 7	;select IRP bank3
	movwf	indf
	incf	fsr0,f
	movf	(ISR@rule+1)^080h,w
	movwf	indf
	incf	fsr0,f
	movf	(ISR@rule+2)^080h,w
	movwf	indf
	goto	i1l3543
	line	187
	
i1l114:	
	line	189
	
i1l3543:	
;main.c: 187: }
;main.c: 189: x += 1;
	movlw	0x0
	bcf	status, 5	;RP0=0, select bank0
	bcf	status, 6	;RP1=0, select bank0
	movwf	(___ftadd@f1)
	movlw	0x80
	movwf	(___ftadd@f1+1)
	movlw	0x3f
	movwf	(___ftadd@f1+2)
	bsf	status, 5	;RP0=1, select bank1
	bcf	status, 6	;RP1=0, select bank1
	movf	(ISR@x)^080h,w
	bcf	status, 5	;RP0=0, select bank0
	bcf	status, 6	;RP1=0, select bank0
	movwf	(___ftadd@f2)
	bsf	status, 5	;RP0=1, select bank1
	bcf	status, 6	;RP1=0, select bank1
	movf	(ISR@x+1)^080h,w
	bcf	status, 5	;RP0=0, select bank0
	bcf	status, 6	;RP1=0, select bank0
	movwf	(___ftadd@f2+1)
	bsf	status, 5	;RP0=1, select bank1
	bcf	status, 6	;RP1=0, select bank1
	movf	(ISR@x+2)^080h,w
	bcf	status, 5	;RP0=0, select bank0
	bcf	status, 6	;RP1=0, select bank0
	movwf	(___ftadd@f2+2)
	fcall	___ftadd
	bcf	status, 5	;RP0=0, select bank0
	bcf	status, 6	;RP1=0, select bank0
	movf	(0+(?___ftadd)),w
	bsf	status, 5	;RP0=1, select bank1
	bcf	status, 6	;RP1=0, select bank1
	movwf	(ISR@x)^080h
	bcf	status, 5	;RP0=0, select bank0
	bcf	status, 6	;RP1=0, select bank0
	movf	(1+(?___ftadd)),w
	bsf	status, 5	;RP0=1, select bank1
	bcf	status, 6	;RP1=0, select bank1
	movwf	(ISR@x+1)^080h
	bcf	status, 5	;RP0=0, select bank0
	bcf	status, 6	;RP1=0, select bank0
	movf	(2+(?___ftadd)),w
	bsf	status, 5	;RP0=1, select bank1
	bcf	status, 6	;RP1=0, select bank1
	movwf	(ISR@x+2)^080h
	line	183
	
i1l3545:	
	movlw	low(01h)
	addwf	(ISR@a_211)^080h,f
	skipnc
	incf	(ISR@a_211+1)^080h,f
	movlw	high(01h)
	addwf	(ISR@a_211+1)^080h,f
	
i1l3547:	
	movf	(ISR@a_211+1)^080h,w
	xorlw	80h
	movwf	btemp+1
	movlw	(high(010h))^80h
	subwf	btemp+1,w
	skipz
	goto	u475_25
	movlw	low(010h)
	subwf	(ISR@a_211)^080h,w
u475_25:

	skipc
	goto	u475_21
	goto	u475_20
u475_21:
	goto	i1l3539
u475_20:
	goto	i1l3549
	
i1l113:	
	goto	i1l3549
	line	191
	
i1l111:	
	line	195
	
i1l3549:	
;main.c: 190: }
;main.c: 191: }
;main.c: 195: if (erro_atual >= 100 && erro_atual <= 1001 && delta >= 201) {
	bsf	status, 5	;RP0=1, select bank1
	bcf	status, 6	;RP1=0, select bank1
	movf	(_erro_atual+1)^080h,w
	xorlw	80h
	movwf	btemp+1
	movlw	(high(064h))^80h
	subwf	btemp+1,w
	skipz
	goto	u476_25
	movlw	low(064h)
	subwf	(_erro_atual)^080h,w
u476_25:

	skipc
	goto	u476_21
	goto	u476_20
u476_21:
	goto	i1l3575
u476_20:
	
i1l3551:	
	bsf	status, 5	;RP0=1, select bank1
	bcf	status, 6	;RP1=0, select bank1
	movf	(_erro_atual+1)^080h,w
	xorlw	80h
	movwf	btemp+1
	movlw	(high(03EAh))^80h
	subwf	btemp+1,w
	skipz
	goto	u477_25
	movlw	low(03EAh)
	subwf	(_erro_atual)^080h,w
u477_25:

	skipnc
	goto	u477_21
	goto	u477_20
u477_21:
	goto	i1l3575
u477_20:
	
i1l3553:	
	bsf	status, 5	;RP0=1, select bank1
	bcf	status, 6	;RP1=0, select bank1
	movf	(ISR@delta+1)^080h,w
	xorlw	80h
	movwf	btemp+1
	movlw	(high(0C9h))^80h
	subwf	btemp+1,w
	skipz
	goto	u478_25
	movlw	low(0C9h)
	subwf	(ISR@delta)^080h,w
u478_25:

	skipc
	goto	u478_21
	goto	u478_20
u478_21:
	goto	i1l3575
u478_20:
	line	198
	
i1l3555:	
;main.c: 197: rule = trapmf(erro_atual, 50, 800, 800, 1550) *
;main.c: 198: trapmf(delta, 200, 500, 2000, 2001);
	movlw	0x20
	bcf	status, 5	;RP0=0, select bank0
	bcf	status, 6	;RP1=0, select bank0
	movwf	(trapmf@d)
	movlw	0xfa
	movwf	(trapmf@d+1)
	movlw	0x44
	movwf	(trapmf@d+2)
	movlw	0x0
	movwf	(trapmf@c)
	movlw	0xfa
	movwf	(trapmf@c+1)
	movlw	0x44
	movwf	(trapmf@c+2)
	movlw	0x0
	movwf	(trapmf@b)
	movlw	0xfa
	movwf	(trapmf@b+1)
	movlw	0x43
	movwf	(trapmf@b+2)
	movlw	0x0
	movwf	(trapmf@a)
	movlw	0x48
	movwf	(trapmf@a+1)
	movlw	0x43
	movwf	(trapmf@a+2)
	bsf	status, 5	;RP0=1, select bank1
	bcf	status, 6	;RP1=0, select bank1
	movf	(ISR@delta+1)^080h,w
	clrf	(___awtoft@c+1)
	addwf	(___awtoft@c+1)
	movf	(ISR@delta)^080h,w
	clrf	(___awtoft@c)
	addwf	(___awtoft@c)

	fcall	___awtoft
	movf	(0+(?___awtoft)),w
	bcf	status, 5	;RP0=0, select bank0
	bcf	status, 6	;RP1=0, select bank0
	movwf	(trapmf@x)
	movf	(1+(?___awtoft)),w
	movwf	(trapmf@x+1)
	movf	(2+(?___awtoft)),w
	movwf	(trapmf@x+2)
	fcall	_trapmf
	bcf	status, 5	;RP0=0, select bank0
	bcf	status, 6	;RP1=0, select bank0
	movf	(0+(?_trapmf)),w
	movwf	(___ftmul@f1)
	movf	(1+(?_trapmf)),w
	movwf	(___ftmul@f1+1)
	movf	(2+(?_trapmf)),w
	movwf	(___ftmul@f1+2)
	movlw	0xc0
	movwf	(trapmf@d)
	movlw	0xc1
	movwf	(trapmf@d+1)
	movlw	0x44
	movwf	(trapmf@d+2)
	movlw	0x0
	movwf	(trapmf@c)
	movlw	0x48
	movwf	(trapmf@c+1)
	movlw	0x44
	movwf	(trapmf@c+2)
	movlw	0x0
	movwf	(trapmf@b)
	movlw	0x48
	movwf	(trapmf@b+1)
	movlw	0x44
	movwf	(trapmf@b+2)
	movlw	0x0
	movwf	(trapmf@a)
	movlw	0x48
	movwf	(trapmf@a+1)
	movlw	0x42
	movwf	(trapmf@a+2)
	bsf	status, 5	;RP0=1, select bank1
	bcf	status, 6	;RP1=0, select bank1
	movf	(_erro_atual+1)^080h,w
	clrf	(___awtoft@c+1)
	addwf	(___awtoft@c+1)
	movf	(_erro_atual)^080h,w
	clrf	(___awtoft@c)
	addwf	(___awtoft@c)

	fcall	___awtoft
	movf	(0+(?___awtoft)),w
	bcf	status, 5	;RP0=0, select bank0
	bcf	status, 6	;RP1=0, select bank0
	movwf	(trapmf@x)
	movf	(1+(?___awtoft)),w
	movwf	(trapmf@x+1)
	movf	(2+(?___awtoft)),w
	movwf	(trapmf@x+2)
	fcall	_trapmf
	bcf	status, 5	;RP0=0, select bank0
	bcf	status, 6	;RP1=0, select bank0
	movf	(0+(?_trapmf)),w
	movwf	(___ftmul@f2)
	movf	(1+(?_trapmf)),w
	movwf	(___ftmul@f2+1)
	movf	(2+(?_trapmf)),w
	movwf	(___ftmul@f2+2)
	fcall	___ftmul
	bcf	status, 5	;RP0=0, select bank0
	bcf	status, 6	;RP1=0, select bank0
	movf	(0+(?___ftmul)),w
	bsf	status, 5	;RP0=1, select bank1
	bcf	status, 6	;RP1=0, select bank1
	movwf	(ISR@rule)^080h
	bcf	status, 5	;RP0=0, select bank0
	bcf	status, 6	;RP1=0, select bank0
	movf	(1+(?___ftmul)),w
	bsf	status, 5	;RP0=1, select bank1
	bcf	status, 6	;RP1=0, select bank1
	movwf	(ISR@rule+1)^080h
	bcf	status, 5	;RP0=0, select bank0
	bcf	status, 6	;RP1=0, select bank0
	movf	(2+(?___ftmul)),w
	bsf	status, 5	;RP0=1, select bank1
	bcf	status, 6	;RP1=0, select bank1
	movwf	(ISR@rule+2)^080h
	line	200
	
i1l3557:	
;main.c: 200: x = 0;
	movlw	0x0
	movwf	(ISR@x)^080h
	movlw	0x0
	movwf	(ISR@x+1)^080h
	movlw	0x0
	movwf	(ISR@x+2)^080h
	line	201
	
i1l3559:	
;main.c: 201: for (int a = 0; a <= 15; a++) {
	clrf	(ISR@a_212)^080h
	clrf	(ISR@a_212+1)^080h
	
i1l3561:	
	movf	(ISR@a_212+1)^080h,w
	xorlw	80h
	movwf	btemp+1
	movlw	(high(010h))^80h
	subwf	btemp+1,w
	skipz
	goto	u479_25
	movlw	low(010h)
	subwf	(ISR@a_212)^080h,w
u479_25:

	skipc
	goto	u479_21
	goto	u479_20
u479_21:
	goto	i1l3565
u479_20:
	goto	i1l3575
	
i1l3563:	
	goto	i1l3575
	
i1l116:	
	line	202
	
i1l3565:	
;main.c: 202: rMedio[a] = trapmf(x, 2, 5, 5, 10);
	movlw	(03h)
	bcf	status, 5	;RP0=0, select bank0
	bcf	status, 6	;RP1=0, select bank0
	movwf	(??_ISR+0)+0
	movf	(??_ISR+0)+0,w
	movwf	(___bmul@multiplicand)
	bsf	status, 5	;RP0=1, select bank1
	bcf	status, 6	;RP1=0, select bank1
	movf	(ISR@a_212)^080h,w
	fcall	___bmul
	addlw	_rMedio&0ffh
	movwf	fsr0
	bsf	status, 5	;RP0=1, select bank1
	bcf	status, 6	;RP1=0, select bank1
	movf	(ISR@x)^080h,w
	bcf	status, 5	;RP0=0, select bank0
	bcf	status, 6	;RP1=0, select bank0
	movwf	(trapmf@x)
	bsf	status, 5	;RP0=1, select bank1
	bcf	status, 6	;RP1=0, select bank1
	movf	(ISR@x+1)^080h,w
	bcf	status, 5	;RP0=0, select bank0
	bcf	status, 6	;RP1=0, select bank0
	movwf	(trapmf@x+1)
	bsf	status, 5	;RP0=1, select bank1
	bcf	status, 6	;RP1=0, select bank1
	movf	(ISR@x+2)^080h,w
	bcf	status, 5	;RP0=0, select bank0
	bcf	status, 6	;RP1=0, select bank0
	movwf	(trapmf@x+2)
	movlw	0x0
	movwf	(trapmf@a)
	movlw	0x0
	movwf	(trapmf@a+1)
	movlw	0x40
	movwf	(trapmf@a+2)
	movlw	0x0
	movwf	(trapmf@b)
	movlw	0xa0
	movwf	(trapmf@b+1)
	movlw	0x40
	movwf	(trapmf@b+2)
	movlw	0x0
	movwf	(trapmf@c)
	movlw	0xa0
	movwf	(trapmf@c+1)
	movlw	0x40
	movwf	(trapmf@c+2)
	movlw	0x0
	movwf	(trapmf@d)
	movlw	0x20
	movwf	(trapmf@d+1)
	movlw	0x41
	movwf	(trapmf@d+2)
	fcall	_trapmf
	bcf	status, 5	;RP0=0, select bank0
	bcf	status, 6	;RP1=0, select bank0
	movf	(0+(?_trapmf)),w
	bsf	status, 7	;select IRP bank2
	movwf	indf
	incf	fsr0,f
	movf	(1+(?_trapmf)),w
	movwf	indf
	incf	fsr0,f
	movf	(2+(?_trapmf)),w
	movwf	indf
	line	204
;main.c: 204: if (rMedio[a] >= rule) {
	movlw	(03h)
	movwf	(??_ISR+0)+0
	movf	(??_ISR+0)+0,w
	movwf	(___bmul@multiplicand)
	bsf	status, 5	;RP0=1, select bank1
	bcf	status, 6	;RP1=0, select bank1
	movf	(ISR@a_212)^080h,w
	fcall	___bmul
	addlw	_rMedio&0ffh
	movwf	fsr0
	bsf	status, 7	;select IRP bank2
	movf	indf,w
	movwf	(___ftge@ff1)
	incf	fsr0,f
	movf	indf,w
	movwf	(___ftge@ff1+1)
	incf	fsr0,f
	movf	indf,w
	movwf	(___ftge@ff1+2)
	bsf	status, 5	;RP0=1, select bank1
	bcf	status, 6	;RP1=0, select bank1
	movf	(ISR@rule)^080h,w
	movwf	(___ftge@ff2)
	movf	(ISR@rule+1)^080h,w
	movwf	(___ftge@ff2+1)
	movf	(ISR@rule+2)^080h,w
	movwf	(___ftge@ff2+2)
	fcall	___ftge
	btfss	status,0
	goto	u480_21
	goto	u480_20
u480_21:
	goto	i1l3569
u480_20:
	line	205
	
i1l3567:	
;main.c: 205: rMedio[a] = rule;
	movlw	(03h)
	bcf	status, 5	;RP0=0, select bank0
	bcf	status, 6	;RP1=0, select bank0
	movwf	(??_ISR+0)+0
	movf	(??_ISR+0)+0,w
	movwf	(___bmul@multiplicand)
	bsf	status, 5	;RP0=1, select bank1
	bcf	status, 6	;RP1=0, select bank1
	movf	(ISR@a_212)^080h,w
	fcall	___bmul
	addlw	_rMedio&0ffh
	movwf	fsr0
	bsf	status, 5	;RP0=1, select bank1
	bcf	status, 6	;RP1=0, select bank1
	movf	(ISR@rule)^080h,w
	bsf	status, 7	;select IRP bank2
	movwf	indf
	incf	fsr0,f
	movf	(ISR@rule+1)^080h,w
	movwf	indf
	incf	fsr0,f
	movf	(ISR@rule+2)^080h,w
	movwf	indf
	goto	i1l3569
	line	206
	
i1l118:	
	line	208
	
i1l3569:	
;main.c: 206: }
;main.c: 208: x += 1;
	movlw	0x0
	bcf	status, 5	;RP0=0, select bank0
	bcf	status, 6	;RP1=0, select bank0
	movwf	(___ftadd@f1)
	movlw	0x80
	movwf	(___ftadd@f1+1)
	movlw	0x3f
	movwf	(___ftadd@f1+2)
	bsf	status, 5	;RP0=1, select bank1
	bcf	status, 6	;RP1=0, select bank1
	movf	(ISR@x)^080h,w
	bcf	status, 5	;RP0=0, select bank0
	bcf	status, 6	;RP1=0, select bank0
	movwf	(___ftadd@f2)
	bsf	status, 5	;RP0=1, select bank1
	bcf	status, 6	;RP1=0, select bank1
	movf	(ISR@x+1)^080h,w
	bcf	status, 5	;RP0=0, select bank0
	bcf	status, 6	;RP1=0, select bank0
	movwf	(___ftadd@f2+1)
	bsf	status, 5	;RP0=1, select bank1
	bcf	status, 6	;RP1=0, select bank1
	movf	(ISR@x+2)^080h,w
	bcf	status, 5	;RP0=0, select bank0
	bcf	status, 6	;RP1=0, select bank0
	movwf	(___ftadd@f2+2)
	fcall	___ftadd
	bcf	status, 5	;RP0=0, select bank0
	bcf	status, 6	;RP1=0, select bank0
	movf	(0+(?___ftadd)),w
	bsf	status, 5	;RP0=1, select bank1
	bcf	status, 6	;RP1=0, select bank1
	movwf	(ISR@x)^080h
	bcf	status, 5	;RP0=0, select bank0
	bcf	status, 6	;RP1=0, select bank0
	movf	(1+(?___ftadd)),w
	bsf	status, 5	;RP0=1, select bank1
	bcf	status, 6	;RP1=0, select bank1
	movwf	(ISR@x+1)^080h
	bcf	status, 5	;RP0=0, select bank0
	bcf	status, 6	;RP1=0, select bank0
	movf	(2+(?___ftadd)),w
	bsf	status, 5	;RP0=1, select bank1
	bcf	status, 6	;RP1=0, select bank1
	movwf	(ISR@x+2)^080h
	line	201
	
i1l3571:	
	movlw	low(01h)
	addwf	(ISR@a_212)^080h,f
	skipnc
	incf	(ISR@a_212+1)^080h,f
	movlw	high(01h)
	addwf	(ISR@a_212+1)^080h,f
	
i1l3573:	
	movf	(ISR@a_212+1)^080h,w
	xorlw	80h
	movwf	btemp+1
	movlw	(high(010h))^80h
	subwf	btemp+1,w
	skipz
	goto	u481_25
	movlw	low(010h)
	subwf	(ISR@a_212)^080h,w
u481_25:

	skipc
	goto	u481_21
	goto	u481_20
u481_21:
	goto	i1l3565
u481_20:
	goto	i1l3575
	
i1l117:	
	goto	i1l3575
	line	210
	
i1l115:	
	line	213
	
i1l3575:	
;main.c: 209: }
;main.c: 210: }
;main.c: 213: if (erro_atual >= 1001) {
	bsf	status, 5	;RP0=1, select bank1
	bcf	status, 6	;RP1=0, select bank1
	movf	(_erro_atual+1)^080h,w
	xorlw	80h
	movwf	btemp+1
	movlw	(high(03E9h))^80h
	subwf	btemp+1,w
	skipz
	goto	u482_25
	movlw	low(03E9h)
	subwf	(_erro_atual)^080h,w
u482_25:

	skipc
	goto	u482_21
	goto	u482_20
u482_21:
	goto	i1l3597
u482_20:
	line	215
	
i1l3577:	
;main.c: 215: rule = trapmf(erro_atual, 1001, 1500, 2000, 2001);
	bsf	status, 5	;RP0=1, select bank1
	bcf	status, 6	;RP1=0, select bank1
	movf	(_erro_atual+1)^080h,w
	clrf	(___awtoft@c+1)
	addwf	(___awtoft@c+1)
	movf	(_erro_atual)^080h,w
	clrf	(___awtoft@c)
	addwf	(___awtoft@c)

	fcall	___awtoft
	movf	(0+(?___awtoft)),w
	bcf	status, 5	;RP0=0, select bank0
	bcf	status, 6	;RP1=0, select bank0
	movwf	(trapmf@x)
	movf	(1+(?___awtoft)),w
	movwf	(trapmf@x+1)
	movf	(2+(?___awtoft)),w
	movwf	(trapmf@x+2)
	movlw	0x40
	movwf	(trapmf@a)
	movlw	0x7a
	movwf	(trapmf@a+1)
	movlw	0x44
	movwf	(trapmf@a+2)
	movlw	0x80
	movwf	(trapmf@b)
	movlw	0xbb
	movwf	(trapmf@b+1)
	movlw	0x44
	movwf	(trapmf@b+2)
	movlw	0x0
	movwf	(trapmf@c)
	movlw	0xfa
	movwf	(trapmf@c+1)
	movlw	0x44
	movwf	(trapmf@c+2)
	movlw	0x20
	movwf	(trapmf@d)
	movlw	0xfa
	movwf	(trapmf@d+1)
	movlw	0x44
	movwf	(trapmf@d+2)
	fcall	_trapmf
	bcf	status, 5	;RP0=0, select bank0
	bcf	status, 6	;RP1=0, select bank0
	movf	(0+(?_trapmf)),w
	bsf	status, 5	;RP0=1, select bank1
	bcf	status, 6	;RP1=0, select bank1
	movwf	(ISR@rule)^080h
	bcf	status, 5	;RP0=0, select bank0
	bcf	status, 6	;RP1=0, select bank0
	movf	(1+(?_trapmf)),w
	bsf	status, 5	;RP0=1, select bank1
	bcf	status, 6	;RP1=0, select bank1
	movwf	(ISR@rule+1)^080h
	bcf	status, 5	;RP0=0, select bank0
	bcf	status, 6	;RP1=0, select bank0
	movf	(2+(?_trapmf)),w
	bsf	status, 5	;RP0=1, select bank1
	bcf	status, 6	;RP1=0, select bank1
	movwf	(ISR@rule+2)^080h
	line	217
	
i1l3579:	
;main.c: 217: x = 0;
	movlw	0x0
	movwf	(ISR@x)^080h
	movlw	0x0
	movwf	(ISR@x+1)^080h
	movlw	0x0
	movwf	(ISR@x+2)^080h
	line	218
	
i1l3581:	
;main.c: 218: for (int a = 0; a <= 15; a++) {
	clrf	(ISR@a_213)^080h
	clrf	(ISR@a_213+1)^080h
	
i1l3583:	
	movf	(ISR@a_213+1)^080h,w
	xorlw	80h
	movwf	btemp+1
	movlw	(high(010h))^80h
	subwf	btemp+1,w
	skipz
	goto	u483_25
	movlw	low(010h)
	subwf	(ISR@a_213)^080h,w
u483_25:

	skipc
	goto	u483_21
	goto	u483_20
u483_21:
	goto	i1l3587
u483_20:
	goto	i1l3597
	
i1l3585:	
	goto	i1l3597
	
i1l120:	
	line	219
	
i1l3587:	
;main.c: 219: rGrande[a] = trapmf(x, 5, 10, 15, 16);
	movlw	(03h)
	bcf	status, 5	;RP0=0, select bank0
	bcf	status, 6	;RP1=0, select bank0
	movwf	(??_ISR+0)+0
	movf	(??_ISR+0)+0,w
	movwf	(___bmul@multiplicand)
	bsf	status, 5	;RP0=1, select bank1
	bcf	status, 6	;RP1=0, select bank1
	movf	(ISR@a_213)^080h,w
	fcall	___bmul
	addlw	_rGrande&0ffh
	movwf	fsr0
	bsf	status, 5	;RP0=1, select bank1
	bcf	status, 6	;RP1=0, select bank1
	movf	(ISR@x)^080h,w
	bcf	status, 5	;RP0=0, select bank0
	bcf	status, 6	;RP1=0, select bank0
	movwf	(trapmf@x)
	bsf	status, 5	;RP0=1, select bank1
	bcf	status, 6	;RP1=0, select bank1
	movf	(ISR@x+1)^080h,w
	bcf	status, 5	;RP0=0, select bank0
	bcf	status, 6	;RP1=0, select bank0
	movwf	(trapmf@x+1)
	bsf	status, 5	;RP0=1, select bank1
	bcf	status, 6	;RP1=0, select bank1
	movf	(ISR@x+2)^080h,w
	bcf	status, 5	;RP0=0, select bank0
	bcf	status, 6	;RP1=0, select bank0
	movwf	(trapmf@x+2)
	movlw	0x0
	movwf	(trapmf@a)
	movlw	0xa0
	movwf	(trapmf@a+1)
	movlw	0x40
	movwf	(trapmf@a+2)
	movlw	0x0
	movwf	(trapmf@b)
	movlw	0x20
	movwf	(trapmf@b+1)
	movlw	0x41
	movwf	(trapmf@b+2)
	movlw	0x0
	movwf	(trapmf@c)
	movlw	0x70
	movwf	(trapmf@c+1)
	movlw	0x41
	movwf	(trapmf@c+2)
	movlw	0x0
	movwf	(trapmf@d)
	movlw	0x80
	movwf	(trapmf@d+1)
	movlw	0x41
	movwf	(trapmf@d+2)
	fcall	_trapmf
	bcf	status, 5	;RP0=0, select bank0
	bcf	status, 6	;RP1=0, select bank0
	movf	(0+(?_trapmf)),w
	bsf	status, 7	;select IRP bank2
	movwf	indf
	incf	fsr0,f
	movf	(1+(?_trapmf)),w
	movwf	indf
	incf	fsr0,f
	movf	(2+(?_trapmf)),w
	movwf	indf
	line	221
;main.c: 221: if (rGrande[a] >= rule) {
	movlw	(03h)
	movwf	(??_ISR+0)+0
	movf	(??_ISR+0)+0,w
	movwf	(___bmul@multiplicand)
	bsf	status, 5	;RP0=1, select bank1
	bcf	status, 6	;RP1=0, select bank1
	movf	(ISR@a_213)^080h,w
	fcall	___bmul
	addlw	_rGrande&0ffh
	movwf	fsr0
	bsf	status, 7	;select IRP bank2
	movf	indf,w
	movwf	(___ftge@ff1)
	incf	fsr0,f
	movf	indf,w
	movwf	(___ftge@ff1+1)
	incf	fsr0,f
	movf	indf,w
	movwf	(___ftge@ff1+2)
	bsf	status, 5	;RP0=1, select bank1
	bcf	status, 6	;RP1=0, select bank1
	movf	(ISR@rule)^080h,w
	movwf	(___ftge@ff2)
	movf	(ISR@rule+1)^080h,w
	movwf	(___ftge@ff2+1)
	movf	(ISR@rule+2)^080h,w
	movwf	(___ftge@ff2+2)
	fcall	___ftge
	btfss	status,0
	goto	u484_21
	goto	u484_20
u484_21:
	goto	i1l3591
u484_20:
	line	222
	
i1l3589:	
;main.c: 222: rGrande[a] = rule;
	movlw	(03h)
	bcf	status, 5	;RP0=0, select bank0
	bcf	status, 6	;RP1=0, select bank0
	movwf	(??_ISR+0)+0
	movf	(??_ISR+0)+0,w
	movwf	(___bmul@multiplicand)
	bsf	status, 5	;RP0=1, select bank1
	bcf	status, 6	;RP1=0, select bank1
	movf	(ISR@a_213)^080h,w
	fcall	___bmul
	addlw	_rGrande&0ffh
	movwf	fsr0
	bsf	status, 5	;RP0=1, select bank1
	bcf	status, 6	;RP1=0, select bank1
	movf	(ISR@rule)^080h,w
	bsf	status, 7	;select IRP bank2
	movwf	indf
	incf	fsr0,f
	movf	(ISR@rule+1)^080h,w
	movwf	indf
	incf	fsr0,f
	movf	(ISR@rule+2)^080h,w
	movwf	indf
	goto	i1l3591
	line	223
	
i1l122:	
	line	225
	
i1l3591:	
;main.c: 223: }
;main.c: 225: x += 1;
	movlw	0x0
	bcf	status, 5	;RP0=0, select bank0
	bcf	status, 6	;RP1=0, select bank0
	movwf	(___ftadd@f1)
	movlw	0x80
	movwf	(___ftadd@f1+1)
	movlw	0x3f
	movwf	(___ftadd@f1+2)
	bsf	status, 5	;RP0=1, select bank1
	bcf	status, 6	;RP1=0, select bank1
	movf	(ISR@x)^080h,w
	bcf	status, 5	;RP0=0, select bank0
	bcf	status, 6	;RP1=0, select bank0
	movwf	(___ftadd@f2)
	bsf	status, 5	;RP0=1, select bank1
	bcf	status, 6	;RP1=0, select bank1
	movf	(ISR@x+1)^080h,w
	bcf	status, 5	;RP0=0, select bank0
	bcf	status, 6	;RP1=0, select bank0
	movwf	(___ftadd@f2+1)
	bsf	status, 5	;RP0=1, select bank1
	bcf	status, 6	;RP1=0, select bank1
	movf	(ISR@x+2)^080h,w
	bcf	status, 5	;RP0=0, select bank0
	bcf	status, 6	;RP1=0, select bank0
	movwf	(___ftadd@f2+2)
	fcall	___ftadd
	bcf	status, 5	;RP0=0, select bank0
	bcf	status, 6	;RP1=0, select bank0
	movf	(0+(?___ftadd)),w
	bsf	status, 5	;RP0=1, select bank1
	bcf	status, 6	;RP1=0, select bank1
	movwf	(ISR@x)^080h
	bcf	status, 5	;RP0=0, select bank0
	bcf	status, 6	;RP1=0, select bank0
	movf	(1+(?___ftadd)),w
	bsf	status, 5	;RP0=1, select bank1
	bcf	status, 6	;RP1=0, select bank1
	movwf	(ISR@x+1)^080h
	bcf	status, 5	;RP0=0, select bank0
	bcf	status, 6	;RP1=0, select bank0
	movf	(2+(?___ftadd)),w
	bsf	status, 5	;RP0=1, select bank1
	bcf	status, 6	;RP1=0, select bank1
	movwf	(ISR@x+2)^080h
	line	218
	
i1l3593:	
	movlw	low(01h)
	addwf	(ISR@a_213)^080h,f
	skipnc
	incf	(ISR@a_213+1)^080h,f
	movlw	high(01h)
	addwf	(ISR@a_213+1)^080h,f
	
i1l3595:	
	movf	(ISR@a_213+1)^080h,w
	xorlw	80h
	movwf	btemp+1
	movlw	(high(010h))^80h
	subwf	btemp+1,w
	skipz
	goto	u485_25
	movlw	low(010h)
	subwf	(ISR@a_213)^080h,w
u485_25:

	skipc
	goto	u485_21
	goto	u485_20
u485_21:
	goto	i1l3587
u485_20:
	goto	i1l3597
	
i1l121:	
	goto	i1l3597
	line	227
	
i1l119:	
	line	231
	
i1l3597:	
;main.c: 226: }
;main.c: 227: }
;main.c: 231: x = 0;
	movlw	0x0
	bsf	status, 5	;RP0=1, select bank1
	bcf	status, 6	;RP1=0, select bank1
	movwf	(ISR@x)^080h
	movlw	0x0
	movwf	(ISR@x+1)^080h
	movlw	0x0
	movwf	(ISR@x+2)^080h
	line	232
;main.c: 232: float total_area = 0;
	movlw	0x0
	movwf	(ISR@total_area)^080h
	movlw	0x0
	movwf	(ISR@total_area+1)^080h
	movlw	0x0
	movwf	(ISR@total_area+2)^080h
	line	233
;main.c: 233: float soma = 0;
	movlw	0x0
	movwf	(ISR@soma)^080h
	movlw	0x0
	movwf	(ISR@soma+1)^080h
	movlw	0x0
	movwf	(ISR@soma+2)^080h
	line	234
	
i1l3599:	
;main.c: 234: for (int a = 0; a <= 15; a++) {
	clrf	(ISR@a_216)^080h
	clrf	(ISR@a_216+1)^080h
	
i1l3601:	
	movf	(ISR@a_216+1)^080h,w
	xorlw	80h
	movwf	btemp+1
	movlw	(high(010h))^80h
	subwf	btemp+1,w
	skipz
	goto	u486_25
	movlw	low(010h)
	subwf	(ISR@a_216)^080h,w
u486_25:

	skipc
	goto	u486_21
	goto	u486_20
u486_21:
	goto	i1l123
u486_20:
	goto	i1l3627
	
i1l3603:	
	goto	i1l3627
	
i1l123:	
	line	235
;main.c: 235: if (a >= 0 && a <= 5) {
	bsf	status, 5	;RP0=1, select bank1
	bcf	status, 6	;RP1=0, select bank1
	btfsc	(ISR@a_216+1)^080h,7
	goto	u487_21
	goto	u487_20
u487_21:
	goto	i1l3609
u487_20:
	
i1l3605:	
	movf	(ISR@a_216+1)^080h,w
	xorlw	80h
	movwf	btemp+1
	movlw	(high(06h))^80h
	subwf	btemp+1,w
	skipz
	goto	u488_25
	movlw	low(06h)
	subwf	(ISR@a_216)^080h,w
u488_25:

	skipnc
	goto	u488_21
	goto	u488_20
u488_21:
	goto	i1l3609
u488_20:
	line	236
	
i1l3607:	
;main.c: 236: total_area += rBaixo[a];
	movlw	(03h)
	bcf	status, 5	;RP0=0, select bank0
	bcf	status, 6	;RP1=0, select bank0
	movwf	(??_ISR+0)+0
	movf	(??_ISR+0)+0,w
	movwf	(___bmul@multiplicand)
	bsf	status, 5	;RP0=1, select bank1
	bcf	status, 6	;RP1=0, select bank1
	movf	(ISR@a_216)^080h,w
	fcall	___bmul
	addlw	_rBaixo&0ffh
	movwf	fsr0
	bsf	status, 7	;select IRP bank3
	movf	indf,w
	bcf	status, 5	;RP0=0, select bank0
	bcf	status, 6	;RP1=0, select bank0
	movwf	(___ftadd@f1)
	incf	fsr0,f
	movf	indf,w
	movwf	(___ftadd@f1+1)
	incf	fsr0,f
	movf	indf,w
	movwf	(___ftadd@f1+2)
	bsf	status, 5	;RP0=1, select bank1
	bcf	status, 6	;RP1=0, select bank1
	movf	(ISR@total_area)^080h,w
	bcf	status, 5	;RP0=0, select bank0
	bcf	status, 6	;RP1=0, select bank0
	movwf	(___ftadd@f2)
	bsf	status, 5	;RP0=1, select bank1
	bcf	status, 6	;RP1=0, select bank1
	movf	(ISR@total_area+1)^080h,w
	bcf	status, 5	;RP0=0, select bank0
	bcf	status, 6	;RP1=0, select bank0
	movwf	(___ftadd@f2+1)
	bsf	status, 5	;RP0=1, select bank1
	bcf	status, 6	;RP1=0, select bank1
	movf	(ISR@total_area+2)^080h,w
	bcf	status, 5	;RP0=0, select bank0
	bcf	status, 6	;RP1=0, select bank0
	movwf	(___ftadd@f2+2)
	fcall	___ftadd
	bcf	status, 5	;RP0=0, select bank0
	bcf	status, 6	;RP1=0, select bank0
	movf	(0+(?___ftadd)),w
	bsf	status, 5	;RP0=1, select bank1
	bcf	status, 6	;RP1=0, select bank1
	movwf	(ISR@total_area)^080h
	bcf	status, 5	;RP0=0, select bank0
	bcf	status, 6	;RP1=0, select bank0
	movf	(1+(?___ftadd)),w
	bsf	status, 5	;RP0=1, select bank1
	bcf	status, 6	;RP1=0, select bank1
	movwf	(ISR@total_area+1)^080h
	bcf	status, 5	;RP0=0, select bank0
	bcf	status, 6	;RP1=0, select bank0
	movf	(2+(?___ftadd)),w
	bsf	status, 5	;RP0=1, select bank1
	bcf	status, 6	;RP1=0, select bank1
	movwf	(ISR@total_area+2)^080h
	line	237
;main.c: 237: soma += (x * rBaixo[a]);
	movlw	(03h)
	bcf	status, 5	;RP0=0, select bank0
	bcf	status, 6	;RP1=0, select bank0
	movwf	(??_ISR+0)+0
	movf	(??_ISR+0)+0,w
	movwf	(___bmul@multiplicand)
	bsf	status, 5	;RP0=1, select bank1
	bcf	status, 6	;RP1=0, select bank1
	movf	(ISR@a_216)^080h,w
	fcall	___bmul
	addlw	_rBaixo&0ffh
	movwf	fsr0
	bsf	status, 7	;select IRP bank3
	movf	indf,w
	bcf	status, 5	;RP0=0, select bank0
	bcf	status, 6	;RP1=0, select bank0
	movwf	(___ftmul@f2)
	incf	fsr0,f
	movf	indf,w
	movwf	(___ftmul@f2+1)
	incf	fsr0,f
	movf	indf,w
	movwf	(___ftmul@f2+2)
	bsf	status, 5	;RP0=1, select bank1
	bcf	status, 6	;RP1=0, select bank1
	movf	(ISR@x)^080h,w
	bcf	status, 5	;RP0=0, select bank0
	bcf	status, 6	;RP1=0, select bank0
	movwf	(___ftmul@f1)
	bsf	status, 5	;RP0=1, select bank1
	bcf	status, 6	;RP1=0, select bank1
	movf	(ISR@x+1)^080h,w
	bcf	status, 5	;RP0=0, select bank0
	bcf	status, 6	;RP1=0, select bank0
	movwf	(___ftmul@f1+1)
	bsf	status, 5	;RP0=1, select bank1
	bcf	status, 6	;RP1=0, select bank1
	movf	(ISR@x+2)^080h,w
	bcf	status, 5	;RP0=0, select bank0
	bcf	status, 6	;RP1=0, select bank0
	movwf	(___ftmul@f1+2)
	fcall	___ftmul
	bcf	status, 5	;RP0=0, select bank0
	bcf	status, 6	;RP1=0, select bank0
	movf	(0+(?___ftmul)),w
	movwf	(___ftadd@f1)
	movf	(1+(?___ftmul)),w
	movwf	(___ftadd@f1+1)
	movf	(2+(?___ftmul)),w
	movwf	(___ftadd@f1+2)
	bsf	status, 5	;RP0=1, select bank1
	bcf	status, 6	;RP1=0, select bank1
	movf	(ISR@soma)^080h,w
	bcf	status, 5	;RP0=0, select bank0
	bcf	status, 6	;RP1=0, select bank0
	movwf	(___ftadd@f2)
	bsf	status, 5	;RP0=1, select bank1
	bcf	status, 6	;RP1=0, select bank1
	movf	(ISR@soma+1)^080h,w
	bcf	status, 5	;RP0=0, select bank0
	bcf	status, 6	;RP1=0, select bank0
	movwf	(___ftadd@f2+1)
	bsf	status, 5	;RP0=1, select bank1
	bcf	status, 6	;RP1=0, select bank1
	movf	(ISR@soma+2)^080h,w
	bcf	status, 5	;RP0=0, select bank0
	bcf	status, 6	;RP1=0, select bank0
	movwf	(___ftadd@f2+2)
	fcall	___ftadd
	bcf	status, 5	;RP0=0, select bank0
	bcf	status, 6	;RP1=0, select bank0
	movf	(0+(?___ftadd)),w
	bsf	status, 5	;RP0=1, select bank1
	bcf	status, 6	;RP1=0, select bank1
	movwf	(ISR@soma)^080h
	bcf	status, 5	;RP0=0, select bank0
	bcf	status, 6	;RP1=0, select bank0
	movf	(1+(?___ftadd)),w
	bsf	status, 5	;RP0=1, select bank1
	bcf	status, 6	;RP1=0, select bank1
	movwf	(ISR@soma+1)^080h
	bcf	status, 5	;RP0=0, select bank0
	bcf	status, 6	;RP1=0, select bank0
	movf	(2+(?___ftadd)),w
	bsf	status, 5	;RP0=1, select bank1
	bcf	status, 6	;RP1=0, select bank1
	movwf	(ISR@soma+2)^080h
	goto	i1l3609
	line	238
	
i1l125:	
	line	240
	
i1l3609:	
;main.c: 238: }
;main.c: 240: if (a >= 5 && a <= 10) {
	bsf	status, 5	;RP0=1, select bank1
	bcf	status, 6	;RP1=0, select bank1
	movf	(ISR@a_216+1)^080h,w
	xorlw	80h
	movwf	btemp+1
	movlw	(high(05h))^80h
	subwf	btemp+1,w
	skipz
	goto	u489_25
	movlw	low(05h)
	subwf	(ISR@a_216)^080h,w
u489_25:

	skipc
	goto	u489_21
	goto	u489_20
u489_21:
	goto	i1l3615
u489_20:
	
i1l3611:	
	bsf	status, 5	;RP0=1, select bank1
	bcf	status, 6	;RP1=0, select bank1
	movf	(ISR@a_216+1)^080h,w
	xorlw	80h
	movwf	btemp+1
	movlw	(high(0Bh))^80h
	subwf	btemp+1,w
	skipz
	goto	u490_25
	movlw	low(0Bh)
	subwf	(ISR@a_216)^080h,w
u490_25:

	skipnc
	goto	u490_21
	goto	u490_20
u490_21:
	goto	i1l3615
u490_20:
	line	241
	
i1l3613:	
;main.c: 241: total_area += rMedio[a];
	movlw	(03h)
	bcf	status, 5	;RP0=0, select bank0
	bcf	status, 6	;RP1=0, select bank0
	movwf	(??_ISR+0)+0
	movf	(??_ISR+0)+0,w
	movwf	(___bmul@multiplicand)
	bsf	status, 5	;RP0=1, select bank1
	bcf	status, 6	;RP1=0, select bank1
	movf	(ISR@a_216)^080h,w
	fcall	___bmul
	addlw	_rMedio&0ffh
	movwf	fsr0
	bsf	status, 7	;select IRP bank2
	movf	indf,w
	bcf	status, 5	;RP0=0, select bank0
	bcf	status, 6	;RP1=0, select bank0
	movwf	(___ftadd@f1)
	incf	fsr0,f
	movf	indf,w
	movwf	(___ftadd@f1+1)
	incf	fsr0,f
	movf	indf,w
	movwf	(___ftadd@f1+2)
	bsf	status, 5	;RP0=1, select bank1
	bcf	status, 6	;RP1=0, select bank1
	movf	(ISR@total_area)^080h,w
	bcf	status, 5	;RP0=0, select bank0
	bcf	status, 6	;RP1=0, select bank0
	movwf	(___ftadd@f2)
	bsf	status, 5	;RP0=1, select bank1
	bcf	status, 6	;RP1=0, select bank1
	movf	(ISR@total_area+1)^080h,w
	bcf	status, 5	;RP0=0, select bank0
	bcf	status, 6	;RP1=0, select bank0
	movwf	(___ftadd@f2+1)
	bsf	status, 5	;RP0=1, select bank1
	bcf	status, 6	;RP1=0, select bank1
	movf	(ISR@total_area+2)^080h,w
	bcf	status, 5	;RP0=0, select bank0
	bcf	status, 6	;RP1=0, select bank0
	movwf	(___ftadd@f2+2)
	fcall	___ftadd
	bcf	status, 5	;RP0=0, select bank0
	bcf	status, 6	;RP1=0, select bank0
	movf	(0+(?___ftadd)),w
	bsf	status, 5	;RP0=1, select bank1
	bcf	status, 6	;RP1=0, select bank1
	movwf	(ISR@total_area)^080h
	bcf	status, 5	;RP0=0, select bank0
	bcf	status, 6	;RP1=0, select bank0
	movf	(1+(?___ftadd)),w
	bsf	status, 5	;RP0=1, select bank1
	bcf	status, 6	;RP1=0, select bank1
	movwf	(ISR@total_area+1)^080h
	bcf	status, 5	;RP0=0, select bank0
	bcf	status, 6	;RP1=0, select bank0
	movf	(2+(?___ftadd)),w
	bsf	status, 5	;RP0=1, select bank1
	bcf	status, 6	;RP1=0, select bank1
	movwf	(ISR@total_area+2)^080h
	line	242
;main.c: 242: soma += (x * rMedio[a]);
	movlw	(03h)
	bcf	status, 5	;RP0=0, select bank0
	bcf	status, 6	;RP1=0, select bank0
	movwf	(??_ISR+0)+0
	movf	(??_ISR+0)+0,w
	movwf	(___bmul@multiplicand)
	bsf	status, 5	;RP0=1, select bank1
	bcf	status, 6	;RP1=0, select bank1
	movf	(ISR@a_216)^080h,w
	fcall	___bmul
	addlw	_rMedio&0ffh
	movwf	fsr0
	bsf	status, 7	;select IRP bank2
	movf	indf,w
	bcf	status, 5	;RP0=0, select bank0
	bcf	status, 6	;RP1=0, select bank0
	movwf	(___ftmul@f2)
	incf	fsr0,f
	movf	indf,w
	movwf	(___ftmul@f2+1)
	incf	fsr0,f
	movf	indf,w
	movwf	(___ftmul@f2+2)
	bsf	status, 5	;RP0=1, select bank1
	bcf	status, 6	;RP1=0, select bank1
	movf	(ISR@x)^080h,w
	bcf	status, 5	;RP0=0, select bank0
	bcf	status, 6	;RP1=0, select bank0
	movwf	(___ftmul@f1)
	bsf	status, 5	;RP0=1, select bank1
	bcf	status, 6	;RP1=0, select bank1
	movf	(ISR@x+1)^080h,w
	bcf	status, 5	;RP0=0, select bank0
	bcf	status, 6	;RP1=0, select bank0
	movwf	(___ftmul@f1+1)
	bsf	status, 5	;RP0=1, select bank1
	bcf	status, 6	;RP1=0, select bank1
	movf	(ISR@x+2)^080h,w
	bcf	status, 5	;RP0=0, select bank0
	bcf	status, 6	;RP1=0, select bank0
	movwf	(___ftmul@f1+2)
	fcall	___ftmul
	bcf	status, 5	;RP0=0, select bank0
	bcf	status, 6	;RP1=0, select bank0
	movf	(0+(?___ftmul)),w
	movwf	(___ftadd@f1)
	movf	(1+(?___ftmul)),w
	movwf	(___ftadd@f1+1)
	movf	(2+(?___ftmul)),w
	movwf	(___ftadd@f1+2)
	bsf	status, 5	;RP0=1, select bank1
	bcf	status, 6	;RP1=0, select bank1
	movf	(ISR@soma)^080h,w
	bcf	status, 5	;RP0=0, select bank0
	bcf	status, 6	;RP1=0, select bank0
	movwf	(___ftadd@f2)
	bsf	status, 5	;RP0=1, select bank1
	bcf	status, 6	;RP1=0, select bank1
	movf	(ISR@soma+1)^080h,w
	bcf	status, 5	;RP0=0, select bank0
	bcf	status, 6	;RP1=0, select bank0
	movwf	(___ftadd@f2+1)
	bsf	status, 5	;RP0=1, select bank1
	bcf	status, 6	;RP1=0, select bank1
	movf	(ISR@soma+2)^080h,w
	bcf	status, 5	;RP0=0, select bank0
	bcf	status, 6	;RP1=0, select bank0
	movwf	(___ftadd@f2+2)
	fcall	___ftadd
	bcf	status, 5	;RP0=0, select bank0
	bcf	status, 6	;RP1=0, select bank0
	movf	(0+(?___ftadd)),w
	bsf	status, 5	;RP0=1, select bank1
	bcf	status, 6	;RP1=0, select bank1
	movwf	(ISR@soma)^080h
	bcf	status, 5	;RP0=0, select bank0
	bcf	status, 6	;RP1=0, select bank0
	movf	(1+(?___ftadd)),w
	bsf	status, 5	;RP0=1, select bank1
	bcf	status, 6	;RP1=0, select bank1
	movwf	(ISR@soma+1)^080h
	bcf	status, 5	;RP0=0, select bank0
	bcf	status, 6	;RP1=0, select bank0
	movf	(2+(?___ftadd)),w
	bsf	status, 5	;RP0=1, select bank1
	bcf	status, 6	;RP1=0, select bank1
	movwf	(ISR@soma+2)^080h
	goto	i1l3615
	line	243
	
i1l126:	
	line	245
	
i1l3615:	
;main.c: 243: }
;main.c: 245: if (a >= 10 && a <= 15) {
	bsf	status, 5	;RP0=1, select bank1
	bcf	status, 6	;RP1=0, select bank1
	movf	(ISR@a_216+1)^080h,w
	xorlw	80h
	movwf	btemp+1
	movlw	(high(0Ah))^80h
	subwf	btemp+1,w
	skipz
	goto	u491_25
	movlw	low(0Ah)
	subwf	(ISR@a_216)^080h,w
u491_25:

	skipc
	goto	u491_21
	goto	u491_20
u491_21:
	goto	i1l3621
u491_20:
	
i1l3617:	
	bsf	status, 5	;RP0=1, select bank1
	bcf	status, 6	;RP1=0, select bank1
	movf	(ISR@a_216+1)^080h,w
	xorlw	80h
	movwf	btemp+1
	movlw	(high(010h))^80h
	subwf	btemp+1,w
	skipz
	goto	u492_25
	movlw	low(010h)
	subwf	(ISR@a_216)^080h,w
u492_25:

	skipnc
	goto	u492_21
	goto	u492_20
u492_21:
	goto	i1l3621
u492_20:
	line	246
	
i1l3619:	
;main.c: 246: total_area += rGrande[a];
	movlw	(03h)
	bcf	status, 5	;RP0=0, select bank0
	bcf	status, 6	;RP1=0, select bank0
	movwf	(??_ISR+0)+0
	movf	(??_ISR+0)+0,w
	movwf	(___bmul@multiplicand)
	bsf	status, 5	;RP0=1, select bank1
	bcf	status, 6	;RP1=0, select bank1
	movf	(ISR@a_216)^080h,w
	fcall	___bmul
	addlw	_rGrande&0ffh
	movwf	fsr0
	bsf	status, 7	;select IRP bank2
	movf	indf,w
	bcf	status, 5	;RP0=0, select bank0
	bcf	status, 6	;RP1=0, select bank0
	movwf	(___ftadd@f1)
	incf	fsr0,f
	movf	indf,w
	movwf	(___ftadd@f1+1)
	incf	fsr0,f
	movf	indf,w
	movwf	(___ftadd@f1+2)
	bsf	status, 5	;RP0=1, select bank1
	bcf	status, 6	;RP1=0, select bank1
	movf	(ISR@total_area)^080h,w
	bcf	status, 5	;RP0=0, select bank0
	bcf	status, 6	;RP1=0, select bank0
	movwf	(___ftadd@f2)
	bsf	status, 5	;RP0=1, select bank1
	bcf	status, 6	;RP1=0, select bank1
	movf	(ISR@total_area+1)^080h,w
	bcf	status, 5	;RP0=0, select bank0
	bcf	status, 6	;RP1=0, select bank0
	movwf	(___ftadd@f2+1)
	bsf	status, 5	;RP0=1, select bank1
	bcf	status, 6	;RP1=0, select bank1
	movf	(ISR@total_area+2)^080h,w
	bcf	status, 5	;RP0=0, select bank0
	bcf	status, 6	;RP1=0, select bank0
	movwf	(___ftadd@f2+2)
	fcall	___ftadd
	bcf	status, 5	;RP0=0, select bank0
	bcf	status, 6	;RP1=0, select bank0
	movf	(0+(?___ftadd)),w
	bsf	status, 5	;RP0=1, select bank1
	bcf	status, 6	;RP1=0, select bank1
	movwf	(ISR@total_area)^080h
	bcf	status, 5	;RP0=0, select bank0
	bcf	status, 6	;RP1=0, select bank0
	movf	(1+(?___ftadd)),w
	bsf	status, 5	;RP0=1, select bank1
	bcf	status, 6	;RP1=0, select bank1
	movwf	(ISR@total_area+1)^080h
	bcf	status, 5	;RP0=0, select bank0
	bcf	status, 6	;RP1=0, select bank0
	movf	(2+(?___ftadd)),w
	bsf	status, 5	;RP0=1, select bank1
	bcf	status, 6	;RP1=0, select bank1
	movwf	(ISR@total_area+2)^080h
	line	247
;main.c: 247: soma += (x * rGrande[a]);
	movlw	(03h)
	bcf	status, 5	;RP0=0, select bank0
	bcf	status, 6	;RP1=0, select bank0
	movwf	(??_ISR+0)+0
	movf	(??_ISR+0)+0,w
	movwf	(___bmul@multiplicand)
	bsf	status, 5	;RP0=1, select bank1
	bcf	status, 6	;RP1=0, select bank1
	movf	(ISR@a_216)^080h,w
	fcall	___bmul
	addlw	_rGrande&0ffh
	movwf	fsr0
	bsf	status, 7	;select IRP bank2
	movf	indf,w
	bcf	status, 5	;RP0=0, select bank0
	bcf	status, 6	;RP1=0, select bank0
	movwf	(___ftmul@f2)
	incf	fsr0,f
	movf	indf,w
	movwf	(___ftmul@f2+1)
	incf	fsr0,f
	movf	indf,w
	movwf	(___ftmul@f2+2)
	bsf	status, 5	;RP0=1, select bank1
	bcf	status, 6	;RP1=0, select bank1
	movf	(ISR@x)^080h,w
	bcf	status, 5	;RP0=0, select bank0
	bcf	status, 6	;RP1=0, select bank0
	movwf	(___ftmul@f1)
	bsf	status, 5	;RP0=1, select bank1
	bcf	status, 6	;RP1=0, select bank1
	movf	(ISR@x+1)^080h,w
	bcf	status, 5	;RP0=0, select bank0
	bcf	status, 6	;RP1=0, select bank0
	movwf	(___ftmul@f1+1)
	bsf	status, 5	;RP0=1, select bank1
	bcf	status, 6	;RP1=0, select bank1
	movf	(ISR@x+2)^080h,w
	bcf	status, 5	;RP0=0, select bank0
	bcf	status, 6	;RP1=0, select bank0
	movwf	(___ftmul@f1+2)
	fcall	___ftmul
	bcf	status, 5	;RP0=0, select bank0
	bcf	status, 6	;RP1=0, select bank0
	movf	(0+(?___ftmul)),w
	movwf	(___ftadd@f1)
	movf	(1+(?___ftmul)),w
	movwf	(___ftadd@f1+1)
	movf	(2+(?___ftmul)),w
	movwf	(___ftadd@f1+2)
	bsf	status, 5	;RP0=1, select bank1
	bcf	status, 6	;RP1=0, select bank1
	movf	(ISR@soma)^080h,w
	bcf	status, 5	;RP0=0, select bank0
	bcf	status, 6	;RP1=0, select bank0
	movwf	(___ftadd@f2)
	bsf	status, 5	;RP0=1, select bank1
	bcf	status, 6	;RP1=0, select bank1
	movf	(ISR@soma+1)^080h,w
	bcf	status, 5	;RP0=0, select bank0
	bcf	status, 6	;RP1=0, select bank0
	movwf	(___ftadd@f2+1)
	bsf	status, 5	;RP0=1, select bank1
	bcf	status, 6	;RP1=0, select bank1
	movf	(ISR@soma+2)^080h,w
	bcf	status, 5	;RP0=0, select bank0
	bcf	status, 6	;RP1=0, select bank0
	movwf	(___ftadd@f2+2)
	fcall	___ftadd
	bcf	status, 5	;RP0=0, select bank0
	bcf	status, 6	;RP1=0, select bank0
	movf	(0+(?___ftadd)),w
	bsf	status, 5	;RP0=1, select bank1
	bcf	status, 6	;RP1=0, select bank1
	movwf	(ISR@soma)^080h
	bcf	status, 5	;RP0=0, select bank0
	bcf	status, 6	;RP1=0, select bank0
	movf	(1+(?___ftadd)),w
	bsf	status, 5	;RP0=1, select bank1
	bcf	status, 6	;RP1=0, select bank1
	movwf	(ISR@soma+1)^080h
	bcf	status, 5	;RP0=0, select bank0
	bcf	status, 6	;RP1=0, select bank0
	movf	(2+(?___ftadd)),w
	bsf	status, 5	;RP0=1, select bank1
	bcf	status, 6	;RP1=0, select bank1
	movwf	(ISR@soma+2)^080h
	goto	i1l3621
	line	248
	
i1l127:	
	line	249
	
i1l3621:	
;main.c: 248: }
;main.c: 249: x += 1;
	movlw	0x0
	bcf	status, 5	;RP0=0, select bank0
	bcf	status, 6	;RP1=0, select bank0
	movwf	(___ftadd@f1)
	movlw	0x80
	movwf	(___ftadd@f1+1)
	movlw	0x3f
	movwf	(___ftadd@f1+2)
	bsf	status, 5	;RP0=1, select bank1
	bcf	status, 6	;RP1=0, select bank1
	movf	(ISR@x)^080h,w
	bcf	status, 5	;RP0=0, select bank0
	bcf	status, 6	;RP1=0, select bank0
	movwf	(___ftadd@f2)
	bsf	status, 5	;RP0=1, select bank1
	bcf	status, 6	;RP1=0, select bank1
	movf	(ISR@x+1)^080h,w
	bcf	status, 5	;RP0=0, select bank0
	bcf	status, 6	;RP1=0, select bank0
	movwf	(___ftadd@f2+1)
	bsf	status, 5	;RP0=1, select bank1
	bcf	status, 6	;RP1=0, select bank1
	movf	(ISR@x+2)^080h,w
	bcf	status, 5	;RP0=0, select bank0
	bcf	status, 6	;RP1=0, select bank0
	movwf	(___ftadd@f2+2)
	fcall	___ftadd
	bcf	status, 5	;RP0=0, select bank0
	bcf	status, 6	;RP1=0, select bank0
	movf	(0+(?___ftadd)),w
	bsf	status, 5	;RP0=1, select bank1
	bcf	status, 6	;RP1=0, select bank1
	movwf	(ISR@x)^080h
	bcf	status, 5	;RP0=0, select bank0
	bcf	status, 6	;RP1=0, select bank0
	movf	(1+(?___ftadd)),w
	bsf	status, 5	;RP0=1, select bank1
	bcf	status, 6	;RP1=0, select bank1
	movwf	(ISR@x+1)^080h
	bcf	status, 5	;RP0=0, select bank0
	bcf	status, 6	;RP1=0, select bank0
	movf	(2+(?___ftadd)),w
	bsf	status, 5	;RP0=1, select bank1
	bcf	status, 6	;RP1=0, select bank1
	movwf	(ISR@x+2)^080h
	line	234
	
i1l3623:	
	movlw	low(01h)
	addwf	(ISR@a_216)^080h,f
	skipnc
	incf	(ISR@a_216+1)^080h,f
	movlw	high(01h)
	addwf	(ISR@a_216+1)^080h,f
	
i1l3625:	
	movf	(ISR@a_216+1)^080h,w
	xorlw	80h
	movwf	btemp+1
	movlw	(high(010h))^80h
	subwf	btemp+1,w
	skipz
	goto	u493_25
	movlw	low(010h)
	subwf	(ISR@a_216)^080h,w
u493_25:

	skipc
	goto	u493_21
	goto	u493_20
u493_21:
	goto	i1l123
u493_20:
	goto	i1l3627
	
i1l124:	
	line	253
	
i1l3627:	
;main.c: 250: }
;main.c: 253: float reajuste = 0;
	movlw	0x0
	bsf	status, 5	;RP0=1, select bank1
	bcf	status, 6	;RP1=0, select bank1
	movwf	(ISR@reajuste)^080h
	movlw	0x0
	movwf	(ISR@reajuste+1)^080h
	movlw	0x0
	movwf	(ISR@reajuste+2)^080h
	line	254
;main.c: 254: if (total_area != 0) {
	movf	(ISR@total_area+2)^080h,w
	iorwf	(ISR@total_area+1)^080h,w
	iorwf	(ISR@total_area)^080h,w
	skipnz
	goto	u494_21
	goto	u494_20
u494_21:
	goto	i1l3631
u494_20:
	line	255
	
i1l3629:	
;main.c: 255: reajuste = soma / total_area;
	movf	(ISR@total_area)^080h,w
	bcf	status, 5	;RP0=0, select bank0
	bcf	status, 6	;RP1=0, select bank0
	movwf	(___ftdiv@f2)
	bsf	status, 5	;RP0=1, select bank1
	bcf	status, 6	;RP1=0, select bank1
	movf	(ISR@total_area+1)^080h,w
	bcf	status, 5	;RP0=0, select bank0
	bcf	status, 6	;RP1=0, select bank0
	movwf	(___ftdiv@f2+1)
	bsf	status, 5	;RP0=1, select bank1
	bcf	status, 6	;RP1=0, select bank1
	movf	(ISR@total_area+2)^080h,w
	bcf	status, 5	;RP0=0, select bank0
	bcf	status, 6	;RP1=0, select bank0
	movwf	(___ftdiv@f2+2)
	bsf	status, 5	;RP0=1, select bank1
	bcf	status, 6	;RP1=0, select bank1
	movf	(ISR@soma)^080h,w
	bcf	status, 5	;RP0=0, select bank0
	bcf	status, 6	;RP1=0, select bank0
	movwf	(___ftdiv@f1)
	bsf	status, 5	;RP0=1, select bank1
	bcf	status, 6	;RP1=0, select bank1
	movf	(ISR@soma+1)^080h,w
	bcf	status, 5	;RP0=0, select bank0
	bcf	status, 6	;RP1=0, select bank0
	movwf	(___ftdiv@f1+1)
	bsf	status, 5	;RP0=1, select bank1
	bcf	status, 6	;RP1=0, select bank1
	movf	(ISR@soma+2)^080h,w
	bcf	status, 5	;RP0=0, select bank0
	bcf	status, 6	;RP1=0, select bank0
	movwf	(___ftdiv@f1+2)
	fcall	___ftdiv
	bcf	status, 5	;RP0=0, select bank0
	bcf	status, 6	;RP1=0, select bank0
	movf	(0+(?___ftdiv)),w
	bsf	status, 5	;RP0=1, select bank1
	bcf	status, 6	;RP1=0, select bank1
	movwf	(ISR@reajuste)^080h
	bcf	status, 5	;RP0=0, select bank0
	bcf	status, 6	;RP1=0, select bank0
	movf	(1+(?___ftdiv)),w
	bsf	status, 5	;RP0=1, select bank1
	bcf	status, 6	;RP1=0, select bank1
	movwf	(ISR@reajuste+1)^080h
	bcf	status, 5	;RP0=0, select bank0
	bcf	status, 6	;RP1=0, select bank0
	movf	(2+(?___ftdiv)),w
	bsf	status, 5	;RP0=1, select bank1
	bcf	status, 6	;RP1=0, select bank1
	movwf	(ISR@reajuste+2)^080h
	goto	i1l3631
	line	256
	
i1l128:	
	line	262
	
i1l3631:	
;main.c: 256: }
;main.c: 259: pwm = maximo(minimo(pwm + ((int)minimo(reajuste, erro_atual)) *
;main.c: 260: (setpoint > rpm ? 1 : -1),
;main.c: 261: 1023),
;main.c: 262: 0);
	movf	(_setpoint+1)^080h,w
	subwf	(_rpm+1)^080h,w
	skipz
	goto	u495_25
	movf	(_setpoint)^080h,w
	subwf	(_rpm)^080h,w
u495_25:
	skipc
	goto	u495_21
	goto	u495_20
u495_21:
	goto	i1l3635
u495_20:
	
i1l3633:	
	movlw	low(-1)
	movwf	(_ISR$218)^080h
	movlw	high(-1)
	movwf	((_ISR$218)^080h)+1
	goto	i1l3637
	
i1l130:	
	
i1l3635:	
	movlw	low(01h)
	movwf	(_ISR$218)^080h
	movlw	high(01h)
	movwf	((_ISR$218)^080h)+1
	goto	i1l3637
	
i1l132:	
	
i1l3637:	
	movf	(_ISR$218+1)^080h,w
	bcf	status, 5	;RP0=0, select bank0
	bcf	status, 6	;RP1=0, select bank0
	clrf	(___wmul@multiplicand+1)
	addwf	(___wmul@multiplicand+1)
	bsf	status, 5	;RP0=1, select bank1
	bcf	status, 6	;RP1=0, select bank1
	movf	(_ISR$218)^080h,w
	bcf	status, 5	;RP0=0, select bank0
	bcf	status, 6	;RP1=0, select bank0
	clrf	(___wmul@multiplicand)
	addwf	(___wmul@multiplicand)

	bsf	status, 5	;RP0=1, select bank1
	bcf	status, 6	;RP1=0, select bank1
	movf	(_erro_atual+1)^080h,w
	clrf	(___awtoft@c+1)
	addwf	(___awtoft@c+1)
	movf	(_erro_atual)^080h,w
	clrf	(___awtoft@c)
	addwf	(___awtoft@c)

	fcall	___awtoft
	movf	(0+(?___awtoft)),w
	bcf	status, 5	;RP0=0, select bank0
	bcf	status, 6	;RP1=0, select bank0
	movwf	(minimo@b)
	movf	(1+(?___awtoft)),w
	movwf	(minimo@b+1)
	movf	(2+(?___awtoft)),w
	movwf	(minimo@b+2)
	bsf	status, 5	;RP0=1, select bank1
	bcf	status, 6	;RP1=0, select bank1
	movf	(ISR@reajuste)^080h,w
	bcf	status, 5	;RP0=0, select bank0
	bcf	status, 6	;RP1=0, select bank0
	movwf	(minimo@a)
	bsf	status, 5	;RP0=1, select bank1
	bcf	status, 6	;RP1=0, select bank1
	movf	(ISR@reajuste+1)^080h,w
	bcf	status, 5	;RP0=0, select bank0
	bcf	status, 6	;RP1=0, select bank0
	movwf	(minimo@a+1)
	bsf	status, 5	;RP0=1, select bank1
	bcf	status, 6	;RP1=0, select bank1
	movf	(ISR@reajuste+2)^080h,w
	bcf	status, 5	;RP0=0, select bank0
	bcf	status, 6	;RP1=0, select bank0
	movwf	(minimo@a+2)
	fcall	_minimo
	bcf	status, 5	;RP0=0, select bank0
	bcf	status, 6	;RP1=0, select bank0
	movf	(0+(?_minimo)),w
	movwf	(___fttol@f1)
	movf	(1+(?_minimo)),w
	movwf	(___fttol@f1+1)
	movf	(2+(?_minimo)),w
	movwf	(___fttol@f1+2)
	fcall	___fttol
	bcf	status, 5	;RP0=0, select bank0
	bcf	status, 6	;RP1=0, select bank0
	movf	1+(((0+(?___fttol)))),w
	clrf	(___wmul@multiplier+1)
	addwf	(___wmul@multiplier+1)
	movf	0+(((0+(?___fttol)))),w
	clrf	(___wmul@multiplier)
	addwf	(___wmul@multiplier)

	fcall	___wmul
	bsf	status, 5	;RP0=1, select bank1
	bcf	status, 6	;RP1=0, select bank1
	movf	(_pwm)^080h,w
	bcf	status, 5	;RP0=0, select bank0
	bcf	status, 6	;RP1=0, select bank0
	addwf	(0+(?___wmul)),w
	movwf	(___lwtoft@c)
	bsf	status, 5	;RP0=1, select bank1
	bcf	status, 6	;RP1=0, select bank1
	movf	(_pwm+1)^080h,w
	skipnc
	incf	(_pwm+1)^080h,w
	bcf	status, 5	;RP0=0, select bank0
	bcf	status, 6	;RP1=0, select bank0
	addwf	(1+(?___wmul)),w
	movwf	1+(___lwtoft@c)
	fcall	___lwtoft
	bcf	status, 5	;RP0=0, select bank0
	bcf	status, 6	;RP1=0, select bank0
	movf	(0+(?___lwtoft)),w
	bsf	status, 5	;RP0=1, select bank1
	bcf	status, 6	;RP1=0, select bank1
	movwf	(_ISR$1637)^080h
	bcf	status, 5	;RP0=0, select bank0
	bcf	status, 6	;RP1=0, select bank0
	movf	(1+(?___lwtoft)),w
	bsf	status, 5	;RP0=1, select bank1
	bcf	status, 6	;RP1=0, select bank1
	movwf	(_ISR$1637+1)^080h
	bcf	status, 5	;RP0=0, select bank0
	bcf	status, 6	;RP1=0, select bank0
	movf	(2+(?___lwtoft)),w
	bsf	status, 5	;RP0=1, select bank1
	bcf	status, 6	;RP1=0, select bank1
	movwf	(_ISR$1637+2)^080h
	
i1l3639:	
	movlw	0x0
	bcf	status, 5	;RP0=0, select bank0
	bcf	status, 6	;RP1=0, select bank0
	movwf	(maximo@b)
	movlw	0x0
	movwf	(maximo@b+1)
	movlw	0x0
	movwf	(maximo@b+2)
	movlw	0xc0
	movwf	(minimo@b)
	movlw	0x7f
	movwf	(minimo@b+1)
	movlw	0x44
	movwf	(minimo@b+2)
	bsf	status, 5	;RP0=1, select bank1
	bcf	status, 6	;RP1=0, select bank1
	movf	(_ISR$1637)^080h,w
	bcf	status, 5	;RP0=0, select bank0
	bcf	status, 6	;RP1=0, select bank0
	movwf	(minimo@a)
	bsf	status, 5	;RP0=1, select bank1
	bcf	status, 6	;RP1=0, select bank1
	movf	(_ISR$1637+1)^080h,w
	bcf	status, 5	;RP0=0, select bank0
	bcf	status, 6	;RP1=0, select bank0
	movwf	(minimo@a+1)
	bsf	status, 5	;RP0=1, select bank1
	bcf	status, 6	;RP1=0, select bank1
	movf	(_ISR$1637+2)^080h,w
	bcf	status, 5	;RP0=0, select bank0
	bcf	status, 6	;RP1=0, select bank0
	movwf	(minimo@a+2)
	fcall	_minimo
	bcf	status, 5	;RP0=0, select bank0
	bcf	status, 6	;RP1=0, select bank0
	movf	(0+(?_minimo)),w
	movwf	(maximo@a)
	movf	(1+(?_minimo)),w
	movwf	(maximo@a+1)
	movf	(2+(?_minimo)),w
	movwf	(maximo@a+2)
	fcall	_maximo
	bcf	status, 5	;RP0=0, select bank0
	bcf	status, 6	;RP1=0, select bank0
	movf	(0+(?_maximo)),w
	movwf	(___fttol@f1)
	movf	(1+(?_maximo)),w
	movwf	(___fttol@f1+1)
	movf	(2+(?_maximo)),w
	movwf	(___fttol@f1+2)
	fcall	___fttol
	bcf	status, 5	;RP0=0, select bank0
	bcf	status, 6	;RP1=0, select bank0
	movf	1+(((0+(?___fttol)))),w
	bsf	status, 5	;RP0=1, select bank1
	bcf	status, 6	;RP1=0, select bank1
	clrf	(_pwm+1)^080h
	addwf	(_pwm+1)^080h
	bcf	status, 5	;RP0=0, select bank0
	bcf	status, 6	;RP1=0, select bank0
	movf	0+(((0+(?___fttol)))),w
	bsf	status, 5	;RP0=1, select bank1
	bcf	status, 6	;RP1=0, select bank1
	clrf	(_pwm)^080h
	addwf	(_pwm)^080h

	line	264
	
i1l3641:	
;main.c: 264: PWM_DutyCycle2(pwm);
	movf	(_pwm+1)^080h,w
	clrf	(i1PWM_DutyCycle2@valor+1)
	addwf	(i1PWM_DutyCycle2@valor+1)
	movf	(_pwm)^080h,w
	clrf	(i1PWM_DutyCycle2@valor)
	addwf	(i1PWM_DutyCycle2@valor)

	fcall	i1_PWM_DutyCycle2
	line	267
	
i1l3643:	
;main.c: 267: PORTBbits.RB6 = 0;
	bcf	status, 5	;RP0=0, select bank0
	bcf	status, 6	;RP1=0, select bank0
	bcf	(6),6	;volatile
	goto	i1l3645
	line	268
	
i1l106:	
	line	271
	
i1l3645:	
;main.c: 268: }
;main.c: 271: INTCONbits.T0IF = 0;
	bcf	(11),2	;volatile
	goto	i1l3647
	line	272
	
i1l104:	
	line	275
	
i1l3647:	
;main.c: 272: }
;main.c: 275: if (PIR1bits.TMR1IF) {
	btfss	(12),0	;volatile
	goto	u496_21
	goto	u496_20
u496_21:
	goto	i1l134
u496_20:
	line	280
	
i1l3649:	
;main.c: 280: PIR1bits.TMR1IF = 0;
	bcf	(12),0	;volatile
	goto	i1l134
	line	281
	
i1l133:	
	line	292
	
i1l134:	
	movf	(??_ISR+5),w
	movwf	btemp+1
	movf	(??_ISR+4),w
	movwf	pclath
	movf	(??_ISR+3),w
	movwf	fsr0
	swapf	(??_ISR+2)^00h,w
	movwf	status
	swapf	saved_w,f
	swapf	saved_w,w
	retfie
	opt stack 0
GLOBAL	__end_of_ISR
	__end_of_ISR:
	signat	_ISR,88
	global	i1_TIMER0_Set

;; *************** function i1_TIMER0_Set *****************
;; Defined at:
;;		line 20 in file "C:\Users\filip\programs\FuzzySI\firmware - Copia\timers.c"
;; Parameters:    Size  Location     Type
;;  contagens       1    wreg     unsigned char 
;; Auto vars:     Size  Location     Type
;;  contagens       1    0[COMMON] unsigned char 
;; Return value:  Size  Location     Type
;;		None               void
;; Registers used:
;;		wreg
;; Tracked objects:
;;		On entry : 0/0
;;		On exit  : 0/0
;;		Unchanged: 0/0
;; Data sizes:     COMMON   BANK0   BANK1   BANK3   BANK2
;;      Params:         0       0       0       0       0
;;      Locals:         1       0       0       0       0
;;      Temps:          0       0       0       0       0
;;      Totals:         1       0       0       0       0
;;Total ram usage:        1 bytes
;; Hardware stack levels used:    1
;; This function calls:
;;		Nothing
;; This function is called by:
;;		_ISR
;; This function uses a non-reentrant model
;;
psect	text9,local,class=CODE,delta=2,merge=1
	file	"C:\Users\filip\programs\FuzzySI\firmware - Copia\timers.c"
	line	20
global __ptext9
__ptext9:	;psect for function i1_TIMER0_Set
psect	text9
	file	"C:\Users\filip\programs\FuzzySI\firmware - Copia\timers.c"
	line	20
	global	__size_ofi1_TIMER0_Set
	__size_ofi1_TIMER0_Set	equ	__end_ofi1_TIMER0_Set-i1_TIMER0_Set
	
i1_TIMER0_Set:	
;incstack = 0
	opt	stack 4
; Regs used in i1_TIMER0_Set: [wreg]
;i1TIMER0_Set@contagens stored from wreg
	movwf	(i1TIMER0_Set@contagens)
	line	22
	
i1l2601:	
;timers.c: 22: TMR0 = contagens;
	movf	(i1TIMER0_Set@contagens),w
	bcf	status, 5	;RP0=0, select bank0
	bcf	status, 6	;RP1=0, select bank0
	movwf	(1)	;volatile
	line	23
	
i1l219:	
	return
	opt stack 0
GLOBAL	__end_ofi1_TIMER0_Set
	__end_ofi1_TIMER0_Set:
	signat	i1_TIMER0_Set,88
	global	i1_PWM_DutyCycle2

;; *************** function i1_PWM_DutyCycle2 *****************
;; Defined at:
;;		line 96 in file "C:\Users\filip\programs\FuzzySI\firmware - Copia\pwm.c"
;; Parameters:    Size  Location     Type
;;  valor           2    0[COMMON] int 
;; Auto vars:     Size  Location     Type
;;		None
;; Return value:  Size  Location     Type
;;		None               void
;; Registers used:
;;		wreg, status,2, status,0
;; Tracked objects:
;;		On entry : 0/0
;;		On exit  : 0/0
;;		Unchanged: 0/0
;; Data sizes:     COMMON   BANK0   BANK1   BANK3   BANK2
;;      Params:         2       0       0       0       0
;;      Locals:         0       0       0       0       0
;;      Temps:          2       0       0       0       0
;;      Totals:         4       0       0       0       0
;;Total ram usage:        4 bytes
;; Hardware stack levels used:    1
;; This function calls:
;;		Nothing
;; This function is called by:
;;		_ISR
;; This function uses a non-reentrant model
;;
psect	text10,local,class=CODE,delta=2,merge=1
	file	"C:\Users\filip\programs\FuzzySI\firmware - Copia\pwm.c"
	line	96
global __ptext10
__ptext10:	;psect for function i1_PWM_DutyCycle2
psect	text10
	file	"C:\Users\filip\programs\FuzzySI\firmware - Copia\pwm.c"
	line	96
	global	__size_ofi1_PWM_DutyCycle2
	__size_ofi1_PWM_DutyCycle2	equ	__end_ofi1_PWM_DutyCycle2-i1_PWM_DutyCycle2
	
i1_PWM_DutyCycle2:	
;incstack = 0
	opt	stack 4
; Regs used in i1_PWM_DutyCycle2: [wreg+status,2+status,0]
	line	98
	
i1l2603:	
;pwm.c: 98: CCPR2L = valor >> 2;
	movf	(i1PWM_DutyCycle2@valor+1),w
	movwf	(??i1_PWM_DutyCycle2+0)+0+1
	movf	(i1PWM_DutyCycle2@valor),w
	movwf	(??i1_PWM_DutyCycle2+0)+0
	rlf	(??i1_PWM_DutyCycle2+0)+1,w
	rrf	(??i1_PWM_DutyCycle2+0)+1,f
	rrf	(??i1_PWM_DutyCycle2+0)+0,f
	rlf	(??i1_PWM_DutyCycle2+0)+1,w
	rrf	(??i1_PWM_DutyCycle2+0)+1,f
	rrf	(??i1_PWM_DutyCycle2+0)+0,f
	movf	0+(??i1_PWM_DutyCycle2+0)+0,w
	bcf	status, 5	;RP0=0, select bank0
	bcf	status, 6	;RP1=0, select bank0
	movwf	(27)	;volatile
	line	99
	
i1l2605:	
;pwm.c: 99: CCP2CON = (valor << 4)|0X0C;
	movf	(i1PWM_DutyCycle2@valor),w
	movwf	(??i1_PWM_DutyCycle2+0)+0
	movlw	(04h)-1
u317_25:
	clrc
	rlf	(??i1_PWM_DutyCycle2+0)+0,f
	addlw	-1
	skipz
	goto	u317_25
	clrc
	rlf	(??i1_PWM_DutyCycle2+0)+0,w
	iorlw	0Ch
	movwf	(29)	;volatile
	line	100
	
i1l373:	
	return
	opt stack 0
GLOBAL	__end_ofi1_PWM_DutyCycle2
	__end_ofi1_PWM_DutyCycle2:
	signat	i1_PWM_DutyCycle2,88
	global	_trapmf

;; *************** function _trapmf *****************
;; Defined at:
;;		line 76 in file "C:\Users\filip\programs\FuzzySI\firmware - Copia\main.c"
;; Parameters:    Size  Location     Type
;;  x               3   32[BANK0 ] float 
;;  a               3   35[BANK0 ] float 
;;  b               3   38[BANK0 ] float 
;;  c               3   41[BANK0 ] float 
;;  d               3   44[BANK0 ] float 
;; Auto vars:     Size  Location     Type
;;  ua              3   47[BANK0 ] float 
;; Return value:  Size  Location     Type
;;                  3   32[BANK0 ] float 
;; Registers used:
;;		wreg, status,2, status,0, pclath, cstack
;; Tracked objects:
;;		On entry : 0/0
;;		On exit  : 0/0
;;		Unchanged: 0/0
;; Data sizes:     COMMON   BANK0   BANK1   BANK3   BANK2
;;      Params:         0      15       0       0       0
;;      Locals:         0       3       0       0       0
;;      Temps:          0       0       0       0       0
;;      Totals:         0      18       0       0       0
;;Total ram usage:       18 bytes
;; Hardware stack levels used:    1
;; Hardware stack levels required when called:    2
;; This function calls:
;;		___ftadd
;;		___ftdiv
;;		___ftge
;;		___ftneg
;; This function is called by:
;;		_ISR
;; This function uses a non-reentrant model
;;
psect	text11,local,class=CODE,delta=2,merge=1
	file	"C:\Users\filip\programs\FuzzySI\firmware - Copia\main.c"
	line	76
global __ptext11
__ptext11:	;psect for function _trapmf
psect	text11
	file	"C:\Users\filip\programs\FuzzySI\firmware - Copia\main.c"
	line	76
	global	__size_of_trapmf
	__size_of_trapmf	equ	__end_of_trapmf-_trapmf
	
_trapmf:	
;incstack = 0
	opt	stack 2
; Regs used in _trapmf: [wreg+status,2+status,0+pclath+cstack]
	line	77
	
i1l3405:	
;main.c: 77: float ua = 0;
	movlw	0x0
	bcf	status, 5	;RP0=0, select bank0
	bcf	status, 6	;RP1=0, select bank0
	movwf	(trapmf@ua)
	movlw	0x0
	movwf	(trapmf@ua+1)
	movlw	0x0
	movwf	(trapmf@ua+2)
	line	79
	
i1l3407:	
;main.c: 79: if (x <= a)
	movf	(trapmf@a),w
	movwf	(___ftge@ff1)
	movf	(trapmf@a+1),w
	movwf	(___ftge@ff1+1)
	movf	(trapmf@a+2),w
	movwf	(___ftge@ff1+2)
	movf	(trapmf@x),w
	movwf	(___ftge@ff2)
	movf	(trapmf@x+1),w
	movwf	(___ftge@ff2+1)
	movf	(trapmf@x+2),w
	movwf	(___ftge@ff2+2)
	fcall	___ftge
	btfss	status,0
	goto	u455_21
	goto	u455_20
u455_21:
	goto	i1l3411
u455_20:
	line	80
	
i1l3409:	
;main.c: 80: ua = 0;
	movlw	0x0
	bcf	status, 5	;RP0=0, select bank0
	bcf	status, 6	;RP1=0, select bank0
	movwf	(trapmf@ua)
	movlw	0x0
	movwf	(trapmf@ua+1)
	movlw	0x0
	movwf	(trapmf@ua+2)
	goto	i1l92
	line	81
	
i1l91:	
	
i1l3411:	
;main.c: 81: else if ((a < x) && (x <= b))
	bcf	status, 5	;RP0=0, select bank0
	bcf	status, 6	;RP1=0, select bank0
	movf	(trapmf@a),w
	movwf	(___ftge@ff1)
	movf	(trapmf@a+1),w
	movwf	(___ftge@ff1+1)
	movf	(trapmf@a+2),w
	movwf	(___ftge@ff1+2)
	movf	(trapmf@x),w
	movwf	(___ftge@ff2)
	movf	(trapmf@x+1),w
	movwf	(___ftge@ff2+1)
	movf	(trapmf@x+2),w
	movwf	(___ftge@ff2+2)
	fcall	___ftge
	btfsc	status,0
	goto	u456_21
	goto	u456_20
u456_21:
	goto	i1l3417
u456_20:
	
i1l3413:	
	bcf	status, 5	;RP0=0, select bank0
	bcf	status, 6	;RP1=0, select bank0
	movf	(trapmf@b),w
	movwf	(___ftge@ff1)
	movf	(trapmf@b+1),w
	movwf	(___ftge@ff1+1)
	movf	(trapmf@b+2),w
	movwf	(___ftge@ff1+2)
	movf	(trapmf@x),w
	movwf	(___ftge@ff2)
	movf	(trapmf@x+1),w
	movwf	(___ftge@ff2+1)
	movf	(trapmf@x+2),w
	movwf	(___ftge@ff2+2)
	fcall	___ftge
	btfss	status,0
	goto	u457_21
	goto	u457_20
u457_21:
	goto	i1l3417
u457_20:
	line	82
	
i1l3415:	
;main.c: 82: ua = ((x - a) / (b - a));
	bcf	status, 5	;RP0=0, select bank0
	bcf	status, 6	;RP1=0, select bank0
	movf	(trapmf@b),w
	movwf	(___ftadd@f1)
	movf	(trapmf@b+1),w
	movwf	(___ftadd@f1+1)
	movf	(trapmf@b+2),w
	movwf	(___ftadd@f1+2)
	movf	(trapmf@a),w
	movwf	(___ftneg@f1)
	movf	(trapmf@a+1),w
	movwf	(___ftneg@f1+1)
	movf	(trapmf@a+2),w
	movwf	(___ftneg@f1+2)
	fcall	___ftneg
	bcf	status, 5	;RP0=0, select bank0
	bcf	status, 6	;RP1=0, select bank0
	movf	(0+(?___ftneg)),w
	movwf	(___ftadd@f2)
	movf	(1+(?___ftneg)),w
	movwf	(___ftadd@f2+1)
	movf	(2+(?___ftneg)),w
	movwf	(___ftadd@f2+2)
	fcall	___ftadd
	bcf	status, 5	;RP0=0, select bank0
	bcf	status, 6	;RP1=0, select bank0
	movf	(0+(?___ftadd)),w
	movwf	(___ftdiv@f2)
	movf	(1+(?___ftadd)),w
	movwf	(___ftdiv@f2+1)
	movf	(2+(?___ftadd)),w
	movwf	(___ftdiv@f2+2)
	movf	(trapmf@x),w
	movwf	(___ftadd@f1)
	movf	(trapmf@x+1),w
	movwf	(___ftadd@f1+1)
	movf	(trapmf@x+2),w
	movwf	(___ftadd@f1+2)
	movf	(trapmf@a),w
	movwf	(___ftneg@f1)
	movf	(trapmf@a+1),w
	movwf	(___ftneg@f1+1)
	movf	(trapmf@a+2),w
	movwf	(___ftneg@f1+2)
	fcall	___ftneg
	bcf	status, 5	;RP0=0, select bank0
	bcf	status, 6	;RP1=0, select bank0
	movf	(0+(?___ftneg)),w
	movwf	(___ftadd@f2)
	movf	(1+(?___ftneg)),w
	movwf	(___ftadd@f2+1)
	movf	(2+(?___ftneg)),w
	movwf	(___ftadd@f2+2)
	fcall	___ftadd
	bcf	status, 5	;RP0=0, select bank0
	bcf	status, 6	;RP1=0, select bank0
	movf	(0+(?___ftadd)),w
	movwf	(___ftdiv@f1)
	movf	(1+(?___ftadd)),w
	movwf	(___ftdiv@f1+1)
	movf	(2+(?___ftadd)),w
	movwf	(___ftdiv@f1+2)
	fcall	___ftdiv
	bcf	status, 5	;RP0=0, select bank0
	bcf	status, 6	;RP1=0, select bank0
	movf	(0+(?___ftdiv)),w
	movwf	(trapmf@ua)
	movf	(1+(?___ftdiv)),w
	movwf	(trapmf@ua+1)
	movf	(2+(?___ftdiv)),w
	movwf	(trapmf@ua+2)
	goto	i1l92
	line	83
	
i1l93:	
	
i1l3417:	
;main.c: 83: else if ((b <= x) && (x <= c))
	bcf	status, 5	;RP0=0, select bank0
	bcf	status, 6	;RP1=0, select bank0
	movf	(trapmf@x),w
	movwf	(___ftge@ff1)
	movf	(trapmf@x+1),w
	movwf	(___ftge@ff1+1)
	movf	(trapmf@x+2),w
	movwf	(___ftge@ff1+2)
	movf	(trapmf@b),w
	movwf	(___ftge@ff2)
	movf	(trapmf@b+1),w
	movwf	(___ftge@ff2+1)
	movf	(trapmf@b+2),w
	movwf	(___ftge@ff2+2)
	fcall	___ftge
	btfss	status,0
	goto	u458_21
	goto	u458_20
u458_21:
	goto	i1l3423
u458_20:
	
i1l3419:	
	bcf	status, 5	;RP0=0, select bank0
	bcf	status, 6	;RP1=0, select bank0
	movf	(trapmf@c),w
	movwf	(___ftge@ff1)
	movf	(trapmf@c+1),w
	movwf	(___ftge@ff1+1)
	movf	(trapmf@c+2),w
	movwf	(___ftge@ff1+2)
	movf	(trapmf@x),w
	movwf	(___ftge@ff2)
	movf	(trapmf@x+1),w
	movwf	(___ftge@ff2+1)
	movf	(trapmf@x+2),w
	movwf	(___ftge@ff2+2)
	fcall	___ftge
	btfss	status,0
	goto	u459_21
	goto	u459_20
u459_21:
	goto	i1l3423
u459_20:
	line	84
	
i1l3421:	
;main.c: 84: ua = 1;
	movlw	0x0
	bcf	status, 5	;RP0=0, select bank0
	bcf	status, 6	;RP1=0, select bank0
	movwf	(trapmf@ua)
	movlw	0x80
	movwf	(trapmf@ua+1)
	movlw	0x3f
	movwf	(trapmf@ua+2)
	goto	i1l92
	line	85
	
i1l95:	
	
i1l3423:	
;main.c: 85: else if ((c < x) && (x <= d))
	bcf	status, 5	;RP0=0, select bank0
	bcf	status, 6	;RP1=0, select bank0
	movf	(trapmf@c),w
	movwf	(___ftge@ff1)
	movf	(trapmf@c+1),w
	movwf	(___ftge@ff1+1)
	movf	(trapmf@c+2),w
	movwf	(___ftge@ff1+2)
	movf	(trapmf@x),w
	movwf	(___ftge@ff2)
	movf	(trapmf@x+1),w
	movwf	(___ftge@ff2+1)
	movf	(trapmf@x+2),w
	movwf	(___ftge@ff2+2)
	fcall	___ftge
	btfsc	status,0
	goto	u460_21
	goto	u460_20
u460_21:
	goto	i1l3429
u460_20:
	
i1l3425:	
	bcf	status, 5	;RP0=0, select bank0
	bcf	status, 6	;RP1=0, select bank0
	movf	(trapmf@d),w
	movwf	(___ftge@ff1)
	movf	(trapmf@d+1),w
	movwf	(___ftge@ff1+1)
	movf	(trapmf@d+2),w
	movwf	(___ftge@ff1+2)
	movf	(trapmf@x),w
	movwf	(___ftge@ff2)
	movf	(trapmf@x+1),w
	movwf	(___ftge@ff2+1)
	movf	(trapmf@x+2),w
	movwf	(___ftge@ff2+2)
	fcall	___ftge
	btfss	status,0
	goto	u461_21
	goto	u461_20
u461_21:
	goto	i1l3429
u461_20:
	line	86
	
i1l3427:	
;main.c: 86: ua = ((d - x) / (d - c));
	bcf	status, 5	;RP0=0, select bank0
	bcf	status, 6	;RP1=0, select bank0
	movf	(trapmf@d),w
	movwf	(___ftadd@f1)
	movf	(trapmf@d+1),w
	movwf	(___ftadd@f1+1)
	movf	(trapmf@d+2),w
	movwf	(___ftadd@f1+2)
	movf	(trapmf@c),w
	movwf	(___ftneg@f1)
	movf	(trapmf@c+1),w
	movwf	(___ftneg@f1+1)
	movf	(trapmf@c+2),w
	movwf	(___ftneg@f1+2)
	fcall	___ftneg
	bcf	status, 5	;RP0=0, select bank0
	bcf	status, 6	;RP1=0, select bank0
	movf	(0+(?___ftneg)),w
	movwf	(___ftadd@f2)
	movf	(1+(?___ftneg)),w
	movwf	(___ftadd@f2+1)
	movf	(2+(?___ftneg)),w
	movwf	(___ftadd@f2+2)
	fcall	___ftadd
	bcf	status, 5	;RP0=0, select bank0
	bcf	status, 6	;RP1=0, select bank0
	movf	(0+(?___ftadd)),w
	movwf	(___ftdiv@f2)
	movf	(1+(?___ftadd)),w
	movwf	(___ftdiv@f2+1)
	movf	(2+(?___ftadd)),w
	movwf	(___ftdiv@f2+2)
	movf	(trapmf@d),w
	movwf	(___ftadd@f1)
	movf	(trapmf@d+1),w
	movwf	(___ftadd@f1+1)
	movf	(trapmf@d+2),w
	movwf	(___ftadd@f1+2)
	movf	(trapmf@x),w
	movwf	(___ftneg@f1)
	movf	(trapmf@x+1),w
	movwf	(___ftneg@f1+1)
	movf	(trapmf@x+2),w
	movwf	(___ftneg@f1+2)
	fcall	___ftneg
	bcf	status, 5	;RP0=0, select bank0
	bcf	status, 6	;RP1=0, select bank0
	movf	(0+(?___ftneg)),w
	movwf	(___ftadd@f2)
	movf	(1+(?___ftneg)),w
	movwf	(___ftadd@f2+1)
	movf	(2+(?___ftneg)),w
	movwf	(___ftadd@f2+2)
	fcall	___ftadd
	bcf	status, 5	;RP0=0, select bank0
	bcf	status, 6	;RP1=0, select bank0
	movf	(0+(?___ftadd)),w
	movwf	(___ftdiv@f1)
	movf	(1+(?___ftadd)),w
	movwf	(___ftdiv@f1+1)
	movf	(2+(?___ftadd)),w
	movwf	(___ftdiv@f1+2)
	fcall	___ftdiv
	bcf	status, 5	;RP0=0, select bank0
	bcf	status, 6	;RP1=0, select bank0
	movf	(0+(?___ftdiv)),w
	movwf	(trapmf@ua)
	movf	(1+(?___ftdiv)),w
	movwf	(trapmf@ua+1)
	movf	(2+(?___ftdiv)),w
	movwf	(trapmf@ua+2)
	goto	i1l92
	line	87
	
i1l97:	
	
i1l3429:	
;main.c: 87: else if (x > d)
	bcf	status, 5	;RP0=0, select bank0
	bcf	status, 6	;RP1=0, select bank0
	movf	(trapmf@d),w
	movwf	(___ftge@ff1)
	movf	(trapmf@d+1),w
	movwf	(___ftge@ff1+1)
	movf	(trapmf@d+2),w
	movwf	(___ftge@ff1+2)
	movf	(trapmf@x),w
	movwf	(___ftge@ff2)
	movf	(trapmf@x+1),w
	movwf	(___ftge@ff2+1)
	movf	(trapmf@x+2),w
	movwf	(___ftge@ff2+2)
	fcall	___ftge
	btfsc	status,0
	goto	u462_21
	goto	u462_20
u462_21:
	goto	i1l92
u462_20:
	line	88
	
i1l3431:	
;main.c: 88: ua = 0;
	movlw	0x0
	bcf	status, 5	;RP0=0, select bank0
	bcf	status, 6	;RP1=0, select bank0
	movwf	(trapmf@ua)
	movlw	0x0
	movwf	(trapmf@ua+1)
	movlw	0x0
	movwf	(trapmf@ua+2)
	goto	i1l92
	
i1l99:	
	goto	i1l92
	line	90
	
i1l98:	
	goto	i1l92
	
i1l96:	
	goto	i1l92
	
i1l94:	
	
i1l92:	
;main.c: 90: return (ua);
	bcf	status, 5	;RP0=0, select bank0
	bcf	status, 6	;RP1=0, select bank0
	movf	(trapmf@ua),w
	movwf	(?_trapmf)
	movf	(trapmf@ua+1),w
	movwf	(?_trapmf+1)
	movf	(trapmf@ua+2),w
	movwf	(?_trapmf+2)
	goto	i1l100
	
i1l3433:	
	line	91
	
i1l100:	
	return
	opt stack 0
GLOBAL	__end_of_trapmf
	__end_of_trapmf:
	signat	_trapmf,20603
	global	___ftneg

;; *************** function ___ftneg *****************
;; Defined at:
;;		line 15 in file "C:\Program Files (x86)\Microchip\xc8\v1.33\sources\common\ftneg.c"
;; Parameters:    Size  Location     Type
;;  f1              3    0[BANK0 ] float 
;; Auto vars:     Size  Location     Type
;;		None
;; Return value:  Size  Location     Type
;;                  3    0[BANK0 ] float 
;; Registers used:
;;		wreg
;; Tracked objects:
;;		On entry : 0/0
;;		On exit  : 0/0
;;		Unchanged: 0/0
;; Data sizes:     COMMON   BANK0   BANK1   BANK3   BANK2
;;      Params:         0       3       0       0       0
;;      Locals:         0       0       0       0       0
;;      Temps:          0       0       0       0       0
;;      Totals:         0       3       0       0       0
;;Total ram usage:        3 bytes
;; Hardware stack levels used:    1
;; This function calls:
;;		Nothing
;; This function is called by:
;;		_trapmf
;;		_ISR
;; This function uses a non-reentrant model
;;
psect	text12,local,class=CODE,delta=2,merge=1
	file	"C:\Program Files (x86)\Microchip\xc8\v1.33\sources\common\ftneg.c"
	line	15
global __ptext12
__ptext12:	;psect for function ___ftneg
psect	text12
	file	"C:\Program Files (x86)\Microchip\xc8\v1.33\sources\common\ftneg.c"
	line	15
	global	__size_of___ftneg
	__size_of___ftneg	equ	__end_of___ftneg-___ftneg
	
___ftneg:	
;incstack = 0
	opt	stack 3
; Regs used in ___ftneg: [wreg]
	line	17
	
i1l2195:	
	bcf	status, 5	;RP0=0, select bank0
	bcf	status, 6	;RP1=0, select bank0
	movf	(___ftneg@f1+2),w
	iorwf	(___ftneg@f1+1),w
	iorwf	(___ftneg@f1),w
	skipnz
	goto	u244_21
	goto	u244_20
u244_21:
	goto	i1l2199
u244_20:
	line	18
	
i1l2197:	
	movlw	080h
	xorwf	(___ftneg@f1+2),f
	goto	i1l2199
	
i1l718:	
	line	19
	
i1l2199:	
	goto	i1l719
	
i1l2201:	
	line	20
	
i1l719:	
	return
	opt stack 0
GLOBAL	__end_of___ftneg
	__end_of___ftneg:
	signat	___ftneg,4219
	global	___ftdiv

;; *************** function ___ftdiv *****************
;; Defined at:
;;		line 49 in file "C:\Program Files (x86)\Microchip\xc8\v1.33\sources\pic\ftdiv.c"
;; Parameters:    Size  Location     Type
;;  f2              3   16[BANK0 ] float 
;;  f1              3   19[BANK0 ] float 
;; Auto vars:     Size  Location     Type
;;  f3              3   27[BANK0 ] float 
;;  sign            1   31[BANK0 ] unsigned char 
;;  exp             1   30[BANK0 ] unsigned char 
;;  cntr            1   26[BANK0 ] unsigned char 
;; Return value:  Size  Location     Type
;;                  3   16[BANK0 ] float 
;; Registers used:
;;		wreg, status,2, status,0, pclath, cstack
;; Tracked objects:
;;		On entry : 0/0
;;		On exit  : 0/0
;;		Unchanged: 0/0
;; Data sizes:     COMMON   BANK0   BANK1   BANK3   BANK2
;;      Params:         0       6       0       0       0
;;      Locals:         0       6       0       0       0
;;      Temps:          0       4       0       0       0
;;      Totals:         0      16       0       0       0
;;Total ram usage:       16 bytes
;; Hardware stack levels used:    1
;; Hardware stack levels required when called:    1
;; This function calls:
;;		___ftpack
;; This function is called by:
;;		_trapmf
;;		_ISR
;; This function uses a non-reentrant model
;;
psect	text13,local,class=CODE,delta=2,merge=1
	file	"C:\Program Files (x86)\Microchip\xc8\v1.33\sources\pic\ftdiv.c"
	line	49
global __ptext13
__ptext13:	;psect for function ___ftdiv
psect	text13
	file	"C:\Program Files (x86)\Microchip\xc8\v1.33\sources\pic\ftdiv.c"
	line	49
	global	__size_of___ftdiv
	__size_of___ftdiv	equ	__end_of___ftdiv-___ftdiv
	
___ftdiv:	
;incstack = 0
	opt	stack 2
; Regs used in ___ftdiv: [wreg+status,2+status,0+pclath+cstack]
	line	55
	
i1l2133:	
	bcf	status, 5	;RP0=0, select bank0
	bcf	status, 6	;RP1=0, select bank0
	movf	(___ftdiv@f1),w
	movwf	((??___ftdiv+0)+0)
	movf	(___ftdiv@f1+1),w
	movwf	((??___ftdiv+0)+0+1)
	movf	(___ftdiv@f1+2),w
	movwf	((??___ftdiv+0)+0+2)
	clrc
	rlf	(??___ftdiv+0)+1,w
	rlf	(??___ftdiv+0)+2,w
	movwf	(??___ftdiv+3)+0
	movf	(??___ftdiv+3)+0,w
	movwf	(___ftdiv@exp)
	movf	((___ftdiv@exp)),f
	skipz
	goto	u231_21
	goto	u231_20
u231_21:
	goto	i1l2139
u231_20:
	line	56
	
i1l2135:	
	movlw	0x0
	movwf	(?___ftdiv)
	movlw	0x0
	movwf	(?___ftdiv+1)
	movlw	0x0
	movwf	(?___ftdiv+2)
	goto	i1l693
	
i1l2137:	
	goto	i1l693
	
i1l692:	
	line	57
	
i1l2139:	
	movf	(___ftdiv@f2),w
	movwf	((??___ftdiv+0)+0)
	movf	(___ftdiv@f2+1),w
	movwf	((??___ftdiv+0)+0+1)
	movf	(___ftdiv@f2+2),w
	movwf	((??___ftdiv+0)+0+2)
	clrc
	rlf	(??___ftdiv+0)+1,w
	rlf	(??___ftdiv+0)+2,w
	movwf	(??___ftdiv+3)+0
	movf	(??___ftdiv+3)+0,w
	movwf	(___ftdiv@sign)
	movf	((___ftdiv@sign)),f
	skipz
	goto	u232_21
	goto	u232_20
u232_21:
	goto	i1l2145
u232_20:
	line	58
	
i1l2141:	
	movlw	0x0
	movwf	(?___ftdiv)
	movlw	0x0
	movwf	(?___ftdiv+1)
	movlw	0x0
	movwf	(?___ftdiv+2)
	goto	i1l693
	
i1l2143:	
	goto	i1l693
	
i1l694:	
	line	59
	
i1l2145:	
	movlw	0
	movwf	(___ftdiv@f3)
	movlw	0
	movwf	(___ftdiv@f3+1)
	movlw	0
	movwf	(___ftdiv@f3+2)
	line	60
	
i1l2147:	
	movlw	(089h)
	addwf	(___ftdiv@sign),w
	movwf	(??___ftdiv+0)+0
	movf	0+(??___ftdiv+0)+0,w
	subwf	(___ftdiv@exp),f
	line	61
	
i1l2149:	
	movf	(___ftdiv@f1),w
	movwf	((??___ftdiv+0)+0)
	movf	(___ftdiv@f1+1),w
	movwf	((??___ftdiv+0)+0+1)
	movf	(___ftdiv@f1+2),w
	movwf	((??___ftdiv+0)+0+2)
	movlw	010h
u233_25:
	clrc
	rrf	(??___ftdiv+0)+2,f
	rrf	(??___ftdiv+0)+1,f
	rrf	(??___ftdiv+0)+0,f
u233_20:
	addlw	-1
	skipz
	goto	u233_25
	movf	0+(??___ftdiv+0)+0,w
	movwf	(??___ftdiv+3)+0
	movf	(??___ftdiv+3)+0,w
	movwf	(___ftdiv@sign)
	line	62
	
i1l2151:	
	movf	(___ftdiv@f2),w
	movwf	((??___ftdiv+0)+0)
	movf	(___ftdiv@f2+1),w
	movwf	((??___ftdiv+0)+0+1)
	movf	(___ftdiv@f2+2),w
	movwf	((??___ftdiv+0)+0+2)
	movlw	010h
u234_25:
	clrc
	rrf	(??___ftdiv+0)+2,f
	rrf	(??___ftdiv+0)+1,f
	rrf	(??___ftdiv+0)+0,f
u234_20:
	addlw	-1
	skipz
	goto	u234_25
	movf	0+(??___ftdiv+0)+0,w
	movwf	(??___ftdiv+3)+0
	movf	(??___ftdiv+3)+0,w
	xorwf	(___ftdiv@sign),f
	line	63
	
i1l2153:	
	movlw	(080h)
	movwf	(??___ftdiv+0)+0
	movf	(??___ftdiv+0)+0,w
	andwf	(___ftdiv@sign),f
	line	64
	
i1l2155:	
	bsf	(___ftdiv@f1)+(15/8),(15)&7
	line	65
	movlw	0FFh
	andwf	(___ftdiv@f1),f
	movlw	0FFh
	andwf	(___ftdiv@f1+1),f
	movlw	0
	andwf	(___ftdiv@f1+2),f
	line	66
	
i1l2157:	
	bsf	(___ftdiv@f2)+(15/8),(15)&7
	line	67
	movlw	0FFh
	andwf	(___ftdiv@f2),f
	movlw	0FFh
	andwf	(___ftdiv@f2+1),f
	movlw	0
	andwf	(___ftdiv@f2+2),f
	line	68
	movlw	(018h)
	movwf	(??___ftdiv+0)+0
	movf	(??___ftdiv+0)+0,w
	movwf	(___ftdiv@cntr)
	goto	i1l2159
	line	69
	
i1l695:	
	line	70
	
i1l2159:	
	movlw	01h
u235_25:
	clrc
	rlf	(___ftdiv@f3),f
	rlf	(___ftdiv@f3+1),f
	rlf	(___ftdiv@f3+2),f
	addlw	-1
	skipz
	goto	u235_25
	line	71
	
i1l2161:	
	movf	(___ftdiv@f2+2),w
	subwf	(___ftdiv@f1+2),w
	skipz
	goto	u236_25
	movf	(___ftdiv@f2+1),w
	subwf	(___ftdiv@f1+1),w
	skipz
	goto	u236_25
	movf	(___ftdiv@f2),w
	subwf	(___ftdiv@f1),w
u236_25:
	skipc
	goto	u236_21
	goto	u236_20
u236_21:
	goto	i1l2167
u236_20:
	line	72
	
i1l2163:	
	movf	(___ftdiv@f2),w
	subwf	(___ftdiv@f1),f
	movf	(___ftdiv@f2+1),w
	skipc
	incfsz	(___ftdiv@f2+1),w
	subwf	(___ftdiv@f1+1),f
	movf	(___ftdiv@f2+2),w
	skipc
	incf	(___ftdiv@f2+2),w
	subwf	(___ftdiv@f1+2),f
	line	73
	
i1l2165:	
	bsf	(___ftdiv@f3)+(0/8),(0)&7
	goto	i1l2167
	line	74
	
i1l696:	
	line	75
	
i1l2167:	
	movlw	01h
u237_25:
	clrc
	rlf	(___ftdiv@f1),f
	rlf	(___ftdiv@f1+1),f
	rlf	(___ftdiv@f1+2),f
	addlw	-1
	skipz
	goto	u237_25
	line	76
	
i1l2169:	
	movlw	low(01h)
	subwf	(___ftdiv@cntr),f
	btfss	status,2
	goto	u238_21
	goto	u238_20
u238_21:
	goto	i1l2159
u238_20:
	goto	i1l2171
	
i1l697:	
	line	77
	
i1l2171:	
	movf	(___ftdiv@f3),w
	movwf	(___ftpack@arg)
	movf	(___ftdiv@f3+1),w
	movwf	(___ftpack@arg+1)
	movf	(___ftdiv@f3+2),w
	movwf	(___ftpack@arg+2)
	movf	(___ftdiv@exp),w
	movwf	(??___ftdiv+0)+0
	movf	(??___ftdiv+0)+0,w
	movwf	(___ftpack@exp)
	movf	(___ftdiv@sign),w
	movwf	(??___ftdiv+1)+0
	movf	(??___ftdiv+1)+0,w
	movwf	(___ftpack@sign)
	fcall	___ftpack
	movf	(0+(?___ftpack)),w
	bcf	status, 5	;RP0=0, select bank0
	bcf	status, 6	;RP1=0, select bank0
	movwf	(?___ftdiv)
	movf	(1+(?___ftpack)),w
	movwf	(?___ftdiv+1)
	movf	(2+(?___ftpack)),w
	movwf	(?___ftdiv+2)
	goto	i1l693
	
i1l2173:	
	line	78
	
i1l693:	
	return
	opt stack 0
GLOBAL	__end_of___ftdiv
	__end_of___ftdiv:
	signat	___ftdiv,8315
	global	___ftadd

;; *************** function ___ftadd *****************
;; Defined at:
;;		line 86 in file "C:\Program Files (x86)\Microchip\xc8\v1.33\sources\common\ftadd.c"
;; Parameters:    Size  Location     Type
;;  f1              3    3[BANK0 ] float 
;;  f2              3    6[BANK0 ] float 
;; Auto vars:     Size  Location     Type
;;  exp1            1   15[BANK0 ] unsigned char 
;;  exp2            1   14[BANK0 ] unsigned char 
;;  sign            1   13[BANK0 ] unsigned char 
;; Return value:  Size  Location     Type
;;                  3    3[BANK0 ] float 
;; Registers used:
;;		wreg, status,2, status,0, pclath, cstack
;; Tracked objects:
;;		On entry : 0/0
;;		On exit  : 0/0
;;		Unchanged: 0/0
;; Data sizes:     COMMON   BANK0   BANK1   BANK3   BANK2
;;      Params:         0       6       0       0       0
;;      Locals:         0       3       0       0       0
;;      Temps:          0       4       0       0       0
;;      Totals:         0      13       0       0       0
;;Total ram usage:       13 bytes
;; Hardware stack levels used:    1
;; Hardware stack levels required when called:    1
;; This function calls:
;;		___ftpack
;; This function is called by:
;;		_trapmf
;;		_ISR
;; This function uses a non-reentrant model
;;
psect	text14,local,class=CODE,delta=2,merge=1
	file	"C:\Program Files (x86)\Microchip\xc8\v1.33\sources\common\ftadd.c"
	line	86
global __ptext14
__ptext14:	;psect for function ___ftadd
psect	text14
	file	"C:\Program Files (x86)\Microchip\xc8\v1.33\sources\common\ftadd.c"
	line	86
	global	__size_of___ftadd
	__size_of___ftadd	equ	__end_of___ftadd-___ftadd
	
___ftadd:	
;incstack = 0
	opt	stack 2
; Regs used in ___ftadd: [wreg+status,2+status,0+pclath+cstack]
	line	90
	
i1l3333:	
	bcf	status, 5	;RP0=0, select bank0
	bcf	status, 6	;RP1=0, select bank0
	movf	(___ftadd@f1),w
	movwf	((??___ftadd+0)+0)
	movf	(___ftadd@f1+1),w
	movwf	((??___ftadd+0)+0+1)
	movf	(___ftadd@f1+2),w
	movwf	((??___ftadd+0)+0+2)
	clrc
	rlf	(??___ftadd+0)+1,w
	rlf	(??___ftadd+0)+2,w
	movwf	(??___ftadd+3)+0
	movf	(??___ftadd+3)+0,w
	movwf	(___ftadd@exp1)
	line	91
	movf	(___ftadd@f2),w
	movwf	((??___ftadd+0)+0)
	movf	(___ftadd@f2+1),w
	movwf	((??___ftadd+0)+0+1)
	movf	(___ftadd@f2+2),w
	movwf	((??___ftadd+0)+0+2)
	clrc
	rlf	(??___ftadd+0)+1,w
	rlf	(??___ftadd+0)+2,w
	movwf	(??___ftadd+3)+0
	movf	(??___ftadd+3)+0,w
	movwf	(___ftadd@exp2)
	line	92
	
i1l3335:	
	movf	(___ftadd@exp1),w
	skipz
	goto	u431_20
	goto	i1l3341
u431_20:
	
i1l3337:	
	movf	(___ftadd@exp2),w
	subwf	(___ftadd@exp1),w
	skipnc
	goto	u432_21
	goto	u432_20
u432_21:
	goto	i1l3345
u432_20:
	
i1l3339:	
	decf	(___ftadd@exp1),w
	xorlw	0ffh
	addwf	(___ftadd@exp2),w
	movwf	(??___ftadd+0)+0
	movlw	(019h)
	subwf	0+(??___ftadd+0)+0,w
	skipc
	goto	u433_21
	goto	u433_20
u433_21:
	goto	i1l3345
u433_20:
	goto	i1l3341
	
i1l661:	
	line	93
	
i1l3341:	
	movf	(___ftadd@f2),w
	movwf	(?___ftadd)
	movf	(___ftadd@f2+1),w
	movwf	(?___ftadd+1)
	movf	(___ftadd@f2+2),w
	movwf	(?___ftadd+2)
	goto	i1l662
	
i1l3343:	
	goto	i1l662
	
i1l659:	
	line	94
	
i1l3345:	
	movf	(___ftadd@exp2),w
	skipz
	goto	u434_20
	goto	i1l665
u434_20:
	
i1l3347:	
	movf	(___ftadd@exp1),w
	subwf	(___ftadd@exp2),w
	skipnc
	goto	u435_21
	goto	u435_20
u435_21:
	goto	i1l3351
u435_20:
	
i1l3349:	
	decf	(___ftadd@exp2),w
	xorlw	0ffh
	addwf	(___ftadd@exp1),w
	movwf	(??___ftadd+0)+0
	movlw	(019h)
	subwf	0+(??___ftadd+0)+0,w
	skipc
	goto	u436_21
	goto	u436_20
u436_21:
	goto	i1l3351
u436_20:
	
i1l665:	
	line	95
	goto	i1l662
	
i1l663:	
	line	96
	
i1l3351:	
	movlw	(06h)
	movwf	(??___ftadd+0)+0
	movf	(??___ftadd+0)+0,w
	movwf	(___ftadd@sign)
	line	97
	
i1l3353:	
	btfss	(___ftadd@f1+2),(23)&7
	goto	u437_21
	goto	u437_20
u437_21:
	goto	i1l666
u437_20:
	line	98
	
i1l3355:	
	bsf	(___ftadd@sign)+(7/8),(7)&7
	
i1l666:	
	line	99
	btfss	(___ftadd@f2+2),(23)&7
	goto	u438_21
	goto	u438_20
u438_21:
	goto	i1l667
u438_20:
	line	100
	
i1l3357:	
	bsf	(___ftadd@sign)+(6/8),(6)&7
	
i1l667:	
	line	101
	bsf	(___ftadd@f1)+(15/8),(15)&7
	line	102
	
i1l3359:	
	movlw	0FFh
	andwf	(___ftadd@f1),f
	movlw	0FFh
	andwf	(___ftadd@f1+1),f
	movlw	0
	andwf	(___ftadd@f1+2),f
	line	103
	
i1l3361:	
	bsf	(___ftadd@f2)+(15/8),(15)&7
	line	104
	movlw	0FFh
	andwf	(___ftadd@f2),f
	movlw	0FFh
	andwf	(___ftadd@f2+1),f
	movlw	0
	andwf	(___ftadd@f2+2),f
	line	106
	movf	(___ftadd@exp2),w
	subwf	(___ftadd@exp1),w
	skipnc
	goto	u439_21
	goto	u439_20
u439_21:
	goto	i1l3373
u439_20:
	goto	i1l3363
	line	109
	
i1l669:	
	line	110
	
i1l3363:	
	movlw	01h
u440_25:
	clrc
	rlf	(___ftadd@f2),f
	rlf	(___ftadd@f2+1),f
	rlf	(___ftadd@f2+2),f
	addlw	-1
	skipz
	goto	u440_25
	line	111
	movlw	low(01h)
	subwf	(___ftadd@exp2),f
	line	112
	
i1l3365:	
	movf	(___ftadd@exp2),w
	xorwf	(___ftadd@exp1),w
	skipnz
	goto	u441_21
	goto	u441_20
u441_21:
	goto	i1l3371
u441_20:
	
i1l3367:	
	movlw	low(01h)
	subwf	(___ftadd@sign),f
	movf	((___ftadd@sign)),w
	andlw	07h
	btfss	status,2
	goto	u442_21
	goto	u442_20
u442_21:
	goto	i1l3363
u442_20:
	goto	i1l3371
	
i1l671:	
	goto	i1l3371
	
i1l672:	
	line	113
	goto	i1l3371
	
i1l674:	
	line	114
	
i1l3369:	
	movlw	01h
u443_25:
	clrc
	rrf	(___ftadd@f1+2),f
	rrf	(___ftadd@f1+1),f
	rrf	(___ftadd@f1),f
	addlw	-1
	skipz
	goto	u443_25

	line	115
	movlw	(01h)
	movwf	(??___ftadd+0)+0
	movf	(??___ftadd+0)+0,w
	addwf	(___ftadd@exp1),f
	goto	i1l3371
	line	116
	
i1l673:	
	line	113
	
i1l3371:	
	movf	(___ftadd@exp1),w
	xorwf	(___ftadd@exp2),w
	skipz
	goto	u444_21
	goto	u444_20
u444_21:
	goto	i1l3369
u444_20:
	goto	i1l676
	
i1l675:	
	line	117
	goto	i1l676
	
i1l668:	
	
i1l3373:	
	movf	(___ftadd@exp1),w
	subwf	(___ftadd@exp2),w
	skipnc
	goto	u445_21
	goto	u445_20
u445_21:
	goto	i1l676
u445_20:
	goto	i1l3375
	line	120
	
i1l678:	
	line	121
	
i1l3375:	
	movlw	01h
u446_25:
	clrc
	rlf	(___ftadd@f1),f
	rlf	(___ftadd@f1+1),f
	rlf	(___ftadd@f1+2),f
	addlw	-1
	skipz
	goto	u446_25
	line	122
	movlw	low(01h)
	subwf	(___ftadd@exp1),f
	line	123
	
i1l3377:	
	movf	(___ftadd@exp2),w
	xorwf	(___ftadd@exp1),w
	skipnz
	goto	u447_21
	goto	u447_20
u447_21:
	goto	i1l3383
u447_20:
	
i1l3379:	
	movlw	low(01h)
	subwf	(___ftadd@sign),f
	movf	((___ftadd@sign)),w
	andlw	07h
	btfss	status,2
	goto	u448_21
	goto	u448_20
u448_21:
	goto	i1l3375
u448_20:
	goto	i1l3383
	
i1l680:	
	goto	i1l3383
	
i1l681:	
	line	124
	goto	i1l3383
	
i1l683:	
	line	125
	
i1l3381:	
	movlw	01h
u449_25:
	clrc
	rrf	(___ftadd@f2+2),f
	rrf	(___ftadd@f2+1),f
	rrf	(___ftadd@f2),f
	addlw	-1
	skipz
	goto	u449_25

	line	126
	movlw	(01h)
	movwf	(??___ftadd+0)+0
	movf	(??___ftadd+0)+0,w
	addwf	(___ftadd@exp2),f
	goto	i1l3383
	line	127
	
i1l682:	
	line	124
	
i1l3383:	
	movf	(___ftadd@exp1),w
	xorwf	(___ftadd@exp2),w
	skipz
	goto	u450_21
	goto	u450_20
u450_21:
	goto	i1l3381
u450_20:
	goto	i1l676
	
i1l684:	
	goto	i1l676
	line	128
	
i1l677:	
	line	129
	
i1l676:	
	btfss	(___ftadd@sign),(7)&7
	goto	u451_21
	goto	u451_20
u451_21:
	goto	i1l3387
u451_20:
	line	131
	
i1l3385:	
	movlw	0FFh
	xorwf	(___ftadd@f1),f
	movlw	0FFh
	xorwf	(___ftadd@f1+1),f
	movlw	0FFh
	xorwf	(___ftadd@f1+2),f
	line	132
	movlw	01h
	addwf	(___ftadd@f1),f
	movlw	0
	skipnc
movlw 1
	addwf	(___ftadd@f1+1),f
	movlw	0
	skipnc
movlw 1
	addwf	(___ftadd@f1+2),f
	goto	i1l3387
	line	133
	
i1l685:	
	line	134
	
i1l3387:	
	btfss	(___ftadd@sign),(6)&7
	goto	u452_21
	goto	u452_20
u452_21:
	goto	i1l3391
u452_20:
	line	136
	
i1l3389:	
	movlw	0FFh
	xorwf	(___ftadd@f2),f
	movlw	0FFh
	xorwf	(___ftadd@f2+1),f
	movlw	0FFh
	xorwf	(___ftadd@f2+2),f
	line	137
	movlw	01h
	addwf	(___ftadd@f2),f
	movlw	0
	skipnc
movlw 1
	addwf	(___ftadd@f2+1),f
	movlw	0
	skipnc
movlw 1
	addwf	(___ftadd@f2+2),f
	goto	i1l3391
	line	138
	
i1l686:	
	line	139
	
i1l3391:	
	clrf	(___ftadd@sign)
	line	140
	
i1l3393:	
	movf	(___ftadd@f1),w
	addwf	(___ftadd@f2),f
	movf	(___ftadd@f1+1),w
	clrz
	skipnc
	incf	(___ftadd@f1+1),w
	skipnz
	goto	u453_21
	addwf	(___ftadd@f2+1),f
u453_21:
	movf	(___ftadd@f1+2),w
	clrz
	skipnc
	incf	(___ftadd@f1+2),w
	skipnz
	goto	u453_22
	addwf	(___ftadd@f2+2),f
u453_22:

	line	141
	
i1l3395:	
	btfss	(___ftadd@f2+2),(23)&7
	goto	u454_21
	goto	u454_20
u454_21:
	goto	i1l3401
u454_20:
	line	142
	
i1l3397:	
	movlw	0FFh
	xorwf	(___ftadd@f2),f
	movlw	0FFh
	xorwf	(___ftadd@f2+1),f
	movlw	0FFh
	xorwf	(___ftadd@f2+2),f
	line	143
	movlw	01h
	addwf	(___ftadd@f2),f
	movlw	0
	skipnc
movlw 1
	addwf	(___ftadd@f2+1),f
	movlw	0
	skipnc
movlw 1
	addwf	(___ftadd@f2+2),f
	line	144
	
i1l3399:	
	clrf	(___ftadd@sign)
	incf	(___ftadd@sign),f
	goto	i1l3401
	line	145
	
i1l687:	
	line	146
	
i1l3401:	
	movf	(___ftadd@f2),w
	movwf	(___ftpack@arg)
	movf	(___ftadd@f2+1),w
	movwf	(___ftpack@arg+1)
	movf	(___ftadd@f2+2),w
	movwf	(___ftpack@arg+2)
	movf	(___ftadd@exp1),w
	movwf	(??___ftadd+0)+0
	movf	(??___ftadd+0)+0,w
	movwf	(___ftpack@exp)
	movf	(___ftadd@sign),w
	movwf	(??___ftadd+1)+0
	movf	(??___ftadd+1)+0,w
	movwf	(___ftpack@sign)
	fcall	___ftpack
	movf	(0+(?___ftpack)),w
	bcf	status, 5	;RP0=0, select bank0
	bcf	status, 6	;RP1=0, select bank0
	movwf	(?___ftadd)
	movf	(1+(?___ftpack)),w
	movwf	(?___ftadd+1)
	movf	(2+(?___ftpack)),w
	movwf	(?___ftadd+2)
	goto	i1l662
	
i1l3403:	
	line	148
	
i1l662:	
	return
	opt stack 0
GLOBAL	__end_of___ftadd
	__end_of___ftadd:
	signat	___ftadd,8315
	global	_minimo

;; *************** function _minimo *****************
;; Defined at:
;;		line 25 in file "C:\Users\filip\programs\FuzzySI\firmware - Copia\main.c"
;; Parameters:    Size  Location     Type
;;  a               3    6[BANK0 ] float 
;;  b               3    9[BANK0 ] float 
;; Auto vars:     Size  Location     Type
;;		None
;; Return value:  Size  Location     Type
;;                  3    6[BANK0 ] float 
;; Registers used:
;;		wreg, status,2, status,0, pclath, cstack
;; Tracked objects:
;;		On entry : 0/0
;;		On exit  : 0/0
;;		Unchanged: 0/0
;; Data sizes:     COMMON   BANK0   BANK1   BANK3   BANK2
;;      Params:         0       6       0       0       0
;;      Locals:         0       0       0       0       0
;;      Temps:          0       0       0       0       0
;;      Totals:         0       6       0       0       0
;;Total ram usage:        6 bytes
;; Hardware stack levels used:    1
;; Hardware stack levels required when called:    1
;; This function calls:
;;		___ftge
;; This function is called by:
;;		_ISR
;; This function uses a non-reentrant model
;;
psect	text15,local,class=CODE,delta=2,merge=1
	file	"C:\Users\filip\programs\FuzzySI\firmware - Copia\main.c"
	line	25
global __ptext15
__ptext15:	;psect for function _minimo
psect	text15
	file	"C:\Users\filip\programs\FuzzySI\firmware - Copia\main.c"
	line	25
	global	__size_of_minimo
	__size_of_minimo	equ	__end_of_minimo-_minimo
	
_minimo:	
;incstack = 0
	opt	stack 3
; Regs used in _minimo: [wreg+status,2+status,0+pclath+cstack]
	line	26
	
i1l2211:	
;main.c: 26: if (a < b) {
	bcf	status, 5	;RP0=0, select bank0
	bcf	status, 6	;RP1=0, select bank0
	movf	(minimo@a),w
	movwf	(___ftge@ff1)
	movf	(minimo@a+1),w
	movwf	(___ftge@ff1+1)
	movf	(minimo@a+2),w
	movwf	(___ftge@ff1+2)
	movf	(minimo@b),w
	movwf	(___ftge@ff2)
	movf	(minimo@b+1),w
	movwf	(___ftge@ff2+1)
	movf	(minimo@b+2),w
	movwf	(___ftge@ff2+2)
	fcall	___ftge
	btfsc	status,0
	goto	u246_21
	goto	u246_20
u246_21:
	goto	i1l2215
u246_20:
	line	27
	
i1l2213:	
;main.c: 27: return a;
	goto	i1l60
	line	28
	
i1l59:	
	line	29
	
i1l2215:	
;main.c: 28: }
;main.c: 29: return b;
	bcf	status, 5	;RP0=0, select bank0
	bcf	status, 6	;RP1=0, select bank0
	movf	(minimo@b),w
	movwf	(?_minimo)
	movf	(minimo@b+1),w
	movwf	(?_minimo+1)
	movf	(minimo@b+2),w
	movwf	(?_minimo+2)
	goto	i1l60
	
i1l2217:	
	line	30
	
i1l60:	
	return
	opt stack 0
GLOBAL	__end_of_minimo
	__end_of_minimo:
	signat	_minimo,8315
	global	_maximo

;; *************** function _maximo *****************
;; Defined at:
;;		line 18 in file "C:\Users\filip\programs\FuzzySI\firmware - Copia\main.c"
;; Parameters:    Size  Location     Type
;;  a               3   12[BANK0 ] float 
;;  b               3   15[BANK0 ] float 
;; Auto vars:     Size  Location     Type
;;		None
;; Return value:  Size  Location     Type
;;                  3   12[BANK0 ] float 
;; Registers used:
;;		wreg, status,2, status,0, pclath, cstack
;; Tracked objects:
;;		On entry : 0/0
;;		On exit  : 0/0
;;		Unchanged: 0/0
;; Data sizes:     COMMON   BANK0   BANK1   BANK3   BANK2
;;      Params:         0       6       0       0       0
;;      Locals:         0       0       0       0       0
;;      Temps:          0       0       0       0       0
;;      Totals:         0       6       0       0       0
;;Total ram usage:        6 bytes
;; Hardware stack levels used:    1
;; Hardware stack levels required when called:    1
;; This function calls:
;;		___ftge
;; This function is called by:
;;		_ISR
;; This function uses a non-reentrant model
;;
psect	text16,local,class=CODE,delta=2,merge=1
	line	18
global __ptext16
__ptext16:	;psect for function _maximo
psect	text16
	file	"C:\Users\filip\programs\FuzzySI\firmware - Copia\main.c"
	line	18
	global	__size_of_maximo
	__size_of_maximo	equ	__end_of_maximo-_maximo
	
_maximo:	
;incstack = 0
	opt	stack 3
; Regs used in _maximo: [wreg+status,2+status,0+pclath+cstack]
	line	19
	
i1l2203:	
;main.c: 19: if (a > b) {
	bcf	status, 5	;RP0=0, select bank0
	bcf	status, 6	;RP1=0, select bank0
	movf	(maximo@b),w
	movwf	(___ftge@ff1)
	movf	(maximo@b+1),w
	movwf	(___ftge@ff1+1)
	movf	(maximo@b+2),w
	movwf	(___ftge@ff1+2)
	movf	(maximo@a),w
	movwf	(___ftge@ff2)
	movf	(maximo@a+1),w
	movwf	(___ftge@ff2+1)
	movf	(maximo@a+2),w
	movwf	(___ftge@ff2+2)
	fcall	___ftge
	btfsc	status,0
	goto	u245_21
	goto	u245_20
u245_21:
	goto	i1l2207
u245_20:
	line	20
	
i1l2205:	
;main.c: 20: return a;
	goto	i1l56
	line	21
	
i1l55:	
	line	22
	
i1l2207:	
;main.c: 21: }
;main.c: 22: return b;
	bcf	status, 5	;RP0=0, select bank0
	bcf	status, 6	;RP1=0, select bank0
	movf	(maximo@b),w
	movwf	(?_maximo)
	movf	(maximo@b+1),w
	movwf	(?_maximo+1)
	movf	(maximo@b+2),w
	movwf	(?_maximo+2)
	goto	i1l56
	
i1l2209:	
	line	23
	
i1l56:	
	return
	opt stack 0
GLOBAL	__end_of_maximo
	__end_of_maximo:
	signat	_maximo,8315
	global	___ftge

;; *************** function ___ftge *****************
;; Defined at:
;;		line 4 in file "C:\Program Files (x86)\Microchip\xc8\v1.33\sources\common\ftge.c"
;; Parameters:    Size  Location     Type
;;  ff1             3    4[COMMON] float 
;;  ff2             3    7[COMMON] float 
;; Auto vars:     Size  Location     Type
;;		None
;; Return value:  Size  Location     Type
;;		None               void
;; Registers used:
;;		wreg, status,2, status,0
;; Tracked objects:
;;		On entry : 0/0
;;		On exit  : 0/0
;;		Unchanged: 0/0
;; Data sizes:     COMMON   BANK0   BANK1   BANK3   BANK2
;;      Params:         6       0       0       0       0
;;      Locals:         0       0       0       0       0
;;      Temps:          0       6       0       0       0
;;      Totals:         6       6       0       0       0
;;Total ram usage:       12 bytes
;; Hardware stack levels used:    1
;; This function calls:
;;		Nothing
;; This function is called by:
;;		_maximo
;;		_minimo
;;		_trapmf
;;		_ISR
;; This function uses a non-reentrant model
;;
psect	text17,local,class=CODE,delta=2,merge=1
	file	"C:\Program Files (x86)\Microchip\xc8\v1.33\sources\common\ftge.c"
	line	4
global __ptext17
__ptext17:	;psect for function ___ftge
psect	text17
	file	"C:\Program Files (x86)\Microchip\xc8\v1.33\sources\common\ftge.c"
	line	4
	global	__size_of___ftge
	__size_of___ftge	equ	__end_of___ftge-___ftge
	
___ftge:	
;incstack = 0
	opt	stack 3
; Regs used in ___ftge: [wreg+status,2+status,0]
	line	6
	
i1l2175:	
	btfss	(___ftge@ff1+2),(23)&7
	goto	u239_21
	goto	u239_20
u239_21:
	goto	i1l2179
u239_20:
	line	7
	
i1l2177:	
	movlw	low(0800000h)
	bcf	status, 5	;RP0=0, select bank0
	bcf	status, 6	;RP1=0, select bank0
	movwf	((??___ftge+0)+0)
	movlw	high(0800000h)
	movwf	((??___ftge+0)+0+1)
	movlw	low highword(0800000h)
	movwf	((??___ftge+0)+0+2)
	comf	(___ftge@ff1),w
	movwf	(??___ftge+3)+0
	comf	(___ftge@ff1+1),w
	movwf	((??___ftge+3)+0+1)
	comf	(___ftge@ff1+2),w
	movwf	((??___ftge+3)+0+2)
	incf	(??___ftge+3)+0,f
	skipnz
	incf	((??___ftge+3)+0+1),f
	skipnz
	incf	((??___ftge+3)+0+2),f
	movf	0+(??___ftge+3)+0,w
	addwf	(??___ftge+0)+0,f
	movf	1+(??___ftge+3)+0,w
	skipnc
	incfsz	1+(??___ftge+3)+0,w
	goto	u240_21
	goto	u240_22
u240_21:
	addwf	(??___ftge+0)+1,f
	
u240_22:
	movf	2+(??___ftge+3)+0,w
	skipnc
	incfsz	2+(??___ftge+3)+0,w
	goto	u240_23
	goto	u240_24
u240_23:
	addwf	(??___ftge+0)+2,f
	
u240_24:
	movf	0+(??___ftge+0)+0,w
	movwf	(___ftge@ff1)
	movf	1+(??___ftge+0)+0,w
	movwf	(___ftge@ff1+1)
	movf	2+(??___ftge+0)+0,w
	movwf	(___ftge@ff1+2)
	goto	i1l2179
	
i1l700:	
	line	8
	
i1l2179:	
	btfss	(___ftge@ff2+2),(23)&7
	goto	u241_21
	goto	u241_20
u241_21:
	goto	i1l2183
u241_20:
	line	9
	
i1l2181:	
	movlw	low(0800000h)
	bcf	status, 5	;RP0=0, select bank0
	bcf	status, 6	;RP1=0, select bank0
	movwf	((??___ftge+0)+0)
	movlw	high(0800000h)
	movwf	((??___ftge+0)+0+1)
	movlw	low highword(0800000h)
	movwf	((??___ftge+0)+0+2)
	comf	(___ftge@ff2),w
	movwf	(??___ftge+3)+0
	comf	(___ftge@ff2+1),w
	movwf	((??___ftge+3)+0+1)
	comf	(___ftge@ff2+2),w
	movwf	((??___ftge+3)+0+2)
	incf	(??___ftge+3)+0,f
	skipnz
	incf	((??___ftge+3)+0+1),f
	skipnz
	incf	((??___ftge+3)+0+2),f
	movf	0+(??___ftge+3)+0,w
	addwf	(??___ftge+0)+0,f
	movf	1+(??___ftge+3)+0,w
	skipnc
	incfsz	1+(??___ftge+3)+0,w
	goto	u242_21
	goto	u242_22
u242_21:
	addwf	(??___ftge+0)+1,f
	
u242_22:
	movf	2+(??___ftge+3)+0,w
	skipnc
	incfsz	2+(??___ftge+3)+0,w
	goto	u242_23
	goto	u242_24
u242_23:
	addwf	(??___ftge+0)+2,f
	
u242_24:
	movf	0+(??___ftge+0)+0,w
	movwf	(___ftge@ff2)
	movf	1+(??___ftge+0)+0,w
	movwf	(___ftge@ff2+1)
	movf	2+(??___ftge+0)+0,w
	movwf	(___ftge@ff2+2)
	goto	i1l2183
	
i1l701:	
	line	10
	
i1l2183:	
	movlw	080h
	xorwf	(___ftge@ff1+2),f
	line	11
	
i1l2185:	
	movlw	080h
	xorwf	(___ftge@ff2+2),f
	line	12
	
i1l2187:	
	movf	(___ftge@ff2+2),w
	subwf	(___ftge@ff1+2),w
	skipz
	goto	u243_25
	movf	(___ftge@ff2+1),w
	subwf	(___ftge@ff1+1),w
	skipz
	goto	u243_25
	movf	(___ftge@ff2),w
	subwf	(___ftge@ff1),w
u243_25:
	skipnc
	goto	u243_21
	goto	u243_20
u243_21:
	goto	i1l2191
u243_20:
	
i1l2189:	
	clrc
	
	goto	i1l702
	
i1l1975:	
	
i1l2191:	
	setc
	
	goto	i1l702
	
i1l1977:	
	goto	i1l702
	
i1l2193:	
	line	13
	
i1l702:	
	return
	opt stack 0
GLOBAL	__end_of___ftge
	__end_of___ftge:
	signat	___ftge,8312
	global	_abs

;; *************** function _abs *****************
;; Defined at:
;;		line 4 in file "C:\Program Files (x86)\Microchip\xc8\v1.33\sources\common\abs.c"
;; Parameters:    Size  Location     Type
;;  a               2    0[COMMON] int 
;; Auto vars:     Size  Location     Type
;;		None
;; Return value:  Size  Location     Type
;;                  2    0[COMMON] int 
;; Registers used:
;;		wreg, status,2, status,0
;; Tracked objects:
;;		On entry : 0/0
;;		On exit  : 0/0
;;		Unchanged: 0/0
;; Data sizes:     COMMON   BANK0   BANK1   BANK3   BANK2
;;      Params:         2       0       0       0       0
;;      Locals:         0       0       0       0       0
;;      Temps:          2       0       0       0       0
;;      Totals:         4       0       0       0       0
;;Total ram usage:        4 bytes
;; Hardware stack levels used:    1
;; This function calls:
;;		Nothing
;; This function is called by:
;;		_ISR
;; This function uses a non-reentrant model
;;
psect	text18,local,class=CODE,delta=2,merge=1
	file	"C:\Program Files (x86)\Microchip\xc8\v1.33\sources\common\abs.c"
	line	4
global __ptext18
__ptext18:	;psect for function _abs
psect	text18
	file	"C:\Program Files (x86)\Microchip\xc8\v1.33\sources\common\abs.c"
	line	4
	global	__size_of_abs
	__size_of_abs	equ	__end_of_abs-_abs
	
_abs:	
;incstack = 0
	opt	stack 4
; Regs used in _abs: [wreg+status,2+status,0]
	line	6
	
i1l2271:	
	btfss	(abs@a+1),7
	goto	u256_21
	goto	u256_20
u256_21:
	goto	i1l531
u256_20:
	line	7
	
i1l2273:	
	comf	(abs@a),w
	movwf	(??_abs+0)+0
	comf	(abs@a+1),w
	movwf	((??_abs+0)+0+1)
	incf	(??_abs+0)+0,f
	skipnz
	incf	((??_abs+0)+0+1),f
	movf	0+(??_abs+0)+0,w
	movwf	(?_abs)
	movf	1+(??_abs+0)+0,w
	movwf	(?_abs+1)
	goto	i1l532
	
i1l2275:	
	goto	i1l532
	
i1l531:	
	line	8
	line	9
	
i1l532:	
	return
	opt stack 0
GLOBAL	__end_of_abs
	__end_of_abs:
	signat	_abs,4218
	global	___wmul

;; *************** function ___wmul *****************
;; Defined at:
;;		line 15 in file "C:\Program Files (x86)\Microchip\xc8\v1.33\sources\common\Umul16.c"
;; Parameters:    Size  Location     Type
;;  multiplier      2   32[BANK0 ] unsigned int 
;;  multiplicand    2   34[BANK0 ] unsigned int 
;; Auto vars:     Size  Location     Type
;;  product         2   36[BANK0 ] unsigned int 
;; Return value:  Size  Location     Type
;;                  2   32[BANK0 ] unsigned int 
;; Registers used:
;;		wreg, status,2, status,0
;; Tracked objects:
;;		On entry : 0/0
;;		On exit  : 0/0
;;		Unchanged: 0/0
;; Data sizes:     COMMON   BANK0   BANK1   BANK3   BANK2
;;      Params:         0       4       0       0       0
;;      Locals:         0       2       0       0       0
;;      Temps:          0       0       0       0       0
;;      Totals:         0       6       0       0       0
;;Total ram usage:        6 bytes
;; Hardware stack levels used:    1
;; This function calls:
;;		Nothing
;; This function is called by:
;;		_ISR
;; This function uses a non-reentrant model
;;
psect	text19,local,class=CODE,delta=2,merge=1
	file	"C:\Program Files (x86)\Microchip\xc8\v1.33\sources\common\Umul16.c"
	line	15
global __ptext19
__ptext19:	;psect for function ___wmul
psect	text19
	file	"C:\Program Files (x86)\Microchip\xc8\v1.33\sources\common\Umul16.c"
	line	15
	global	__size_of___wmul
	__size_of___wmul	equ	__end_of___wmul-___wmul
	
___wmul:	
;incstack = 0
	opt	stack 4
; Regs used in ___wmul: [wreg+status,2+status,0]
	line	43
	
i1l2355:	
	bcf	status, 5	;RP0=0, select bank0
	bcf	status, 6	;RP1=0, select bank0
	clrf	(___wmul@product)
	clrf	(___wmul@product+1)
	goto	i1l2357
	line	44
	
i1l481:	
	line	45
	
i1l2357:	
	btfss	(___wmul@multiplier),(0)&7
	goto	u260_21
	goto	u260_20
u260_21:
	goto	i1l482
u260_20:
	line	46
	
i1l2359:	
	movf	(___wmul@multiplicand),w
	addwf	(___wmul@product),f
	skipnc
	incf	(___wmul@product+1),f
	movf	(___wmul@multiplicand+1),w
	addwf	(___wmul@product+1),f
	
i1l482:	
	line	47
	movlw	01h
	
u261_25:
	clrc
	rlf	(___wmul@multiplicand),f
	rlf	(___wmul@multiplicand+1),f
	addlw	-1
	skipz
	goto	u261_25
	line	48
	
i1l2361:	
	movlw	01h
	
u262_25:
	clrc
	rrf	(___wmul@multiplier+1),f
	rrf	(___wmul@multiplier),f
	addlw	-1
	skipz
	goto	u262_25
	line	49
	movf	((___wmul@multiplier+1)),w
	iorwf	((___wmul@multiplier)),w
	skipz
	goto	u263_21
	goto	u263_20
u263_21:
	goto	i1l2357
u263_20:
	goto	i1l2363
	
i1l483:	
	line	52
	
i1l2363:	
	movf	(___wmul@product+1),w
	clrf	(?___wmul+1)
	addwf	(?___wmul+1)
	movf	(___wmul@product),w
	clrf	(?___wmul)
	addwf	(?___wmul)

	goto	i1l484
	
i1l2365:	
	line	53
	
i1l484:	
	return
	opt stack 0
GLOBAL	__end_of___wmul
	__end_of___wmul:
	signat	___wmul,8314
	global	___lwtoft

;; *************** function ___lwtoft *****************
;; Defined at:
;;		line 28 in file "C:\Program Files (x86)\Microchip\xc8\v1.33\sources\common\lwtoft.c"
;; Parameters:    Size  Location     Type
;;  c               2   38[BANK0 ] unsigned int 
;; Auto vars:     Size  Location     Type
;;		None
;; Return value:  Size  Location     Type
;;                  3   38[BANK0 ] float 
;; Registers used:
;;		wreg, status,2, status,0, pclath, cstack
;; Tracked objects:
;;		On entry : 0/0
;;		On exit  : 0/0
;;		Unchanged: 0/0
;; Data sizes:     COMMON   BANK0   BANK1   BANK3   BANK2
;;      Params:         0       3       0       0       0
;;      Locals:         0       0       0       0       0
;;      Temps:          0       1       0       0       0
;;      Totals:         0       4       0       0       0
;;Total ram usage:        4 bytes
;; Hardware stack levels used:    1
;; Hardware stack levels required when called:    1
;; This function calls:
;;		___ftpack
;; This function is called by:
;;		_ISR
;; This function uses a non-reentrant model
;;
psect	text20,local,class=CODE,delta=2,merge=1
	file	"C:\Program Files (x86)\Microchip\xc8\v1.33\sources\common\lwtoft.c"
	line	28
global __ptext20
__ptext20:	;psect for function ___lwtoft
psect	text20
	file	"C:\Program Files (x86)\Microchip\xc8\v1.33\sources\common\lwtoft.c"
	line	28
	global	__size_of___lwtoft
	__size_of___lwtoft	equ	__end_of___lwtoft-___lwtoft
	
___lwtoft:	
;incstack = 0
	opt	stack 3
; Regs used in ___lwtoft: [wreg+status,2+status,0+pclath+cstack]
	line	30
	
i1l2597:	
	bcf	status, 5	;RP0=0, select bank0
	bcf	status, 6	;RP1=0, select bank0
	movf	(___lwtoft@c),w
	movwf	(___ftpack@arg)
	movf	(___lwtoft@c+1),w
	movwf	(___ftpack@arg+1)
	clrf	(___ftpack@arg+2)
	movlw	(08Eh)
	movwf	(??___lwtoft+0)+0
	movf	(??___lwtoft+0)+0,w
	movwf	(___ftpack@exp)
	clrf	(___ftpack@sign)
	fcall	___ftpack
	movf	(0+(?___ftpack)),w
	bcf	status, 5	;RP0=0, select bank0
	bcf	status, 6	;RP1=0, select bank0
	movwf	(?___lwtoft)
	movf	(1+(?___ftpack)),w
	movwf	(?___lwtoft+1)
	movf	(2+(?___ftpack)),w
	movwf	(?___lwtoft+2)
	goto	i1l837
	
i1l2599:	
	line	31
	
i1l837:	
	return
	opt stack 0
GLOBAL	__end_of___lwtoft
	__end_of___lwtoft:
	signat	___lwtoft,4219
	global	___lwdiv

;; *************** function ___lwdiv *****************
;; Defined at:
;;		line 6 in file "C:\Program Files (x86)\Microchip\xc8\v1.33\sources\common\lwdiv.c"
;; Parameters:    Size  Location     Type
;;  divisor         2    0[COMMON] unsigned int 
;;  dividend        2    2[COMMON] unsigned int 
;; Auto vars:     Size  Location     Type
;;  quotient        2    5[COMMON] unsigned int 
;;  counter         1    7[COMMON] unsigned char 
;; Return value:  Size  Location     Type
;;                  2    0[COMMON] unsigned int 
;; Registers used:
;;		wreg, status,2, status,0
;; Tracked objects:
;;		On entry : 0/0
;;		On exit  : 0/0
;;		Unchanged: 0/0
;; Data sizes:     COMMON   BANK0   BANK1   BANK3   BANK2
;;      Params:         4       0       0       0       0
;;      Locals:         3       0       0       0       0
;;      Temps:          1       0       0       0       0
;;      Totals:         8       0       0       0       0
;;Total ram usage:        8 bytes
;; Hardware stack levels used:    1
;; This function calls:
;;		Nothing
;; This function is called by:
;;		_ISR
;; This function uses a non-reentrant model
;;
psect	text21,local,class=CODE,delta=2,merge=1
	file	"C:\Program Files (x86)\Microchip\xc8\v1.33\sources\common\lwdiv.c"
	line	6
global __ptext21
__ptext21:	;psect for function ___lwdiv
psect	text21
	file	"C:\Program Files (x86)\Microchip\xc8\v1.33\sources\common\lwdiv.c"
	line	6
	global	__size_of___lwdiv
	__size_of___lwdiv	equ	__end_of___lwdiv-___lwdiv
	
___lwdiv:	
;incstack = 0
	opt	stack 4
; Regs used in ___lwdiv: [wreg+status,2+status,0]
	line	14
	
i1l2571:	
	clrf	(___lwdiv@quotient)
	clrf	(___lwdiv@quotient+1)
	line	15
	
i1l2573:	
	movf	(___lwdiv@divisor+1),w
	iorwf	(___lwdiv@divisor),w
	skipnz
	goto	u310_21
	goto	u310_20
u310_21:
	goto	i1l2593
u310_20:
	line	16
	
i1l2575:	
	clrf	(___lwdiv@counter)
	incf	(___lwdiv@counter),f
	line	17
	goto	i1l2581
	
i1l817:	
	line	18
	
i1l2577:	
	movlw	01h
	
u311_25:
	clrc
	rlf	(___lwdiv@divisor),f
	rlf	(___lwdiv@divisor+1),f
	addlw	-1
	skipz
	goto	u311_25
	line	19
	
i1l2579:	
	movlw	(01h)
	movwf	(??___lwdiv+0)+0
	movf	(??___lwdiv+0)+0,w
	addwf	(___lwdiv@counter),f
	goto	i1l2581
	line	20
	
i1l816:	
	line	17
	
i1l2581:	
	btfss	(___lwdiv@divisor+1),(15)&7
	goto	u312_21
	goto	u312_20
u312_21:
	goto	i1l2577
u312_20:
	goto	i1l2583
	
i1l818:	
	goto	i1l2583
	line	21
	
i1l819:	
	line	22
	
i1l2583:	
	movlw	01h
	
u313_25:
	clrc
	rlf	(___lwdiv@quotient),f
	rlf	(___lwdiv@quotient+1),f
	addlw	-1
	skipz
	goto	u313_25
	line	23
	movf	(___lwdiv@divisor+1),w
	subwf	(___lwdiv@dividend+1),w
	skipz
	goto	u314_25
	movf	(___lwdiv@divisor),w
	subwf	(___lwdiv@dividend),w
u314_25:
	skipc
	goto	u314_21
	goto	u314_20
u314_21:
	goto	i1l2589
u314_20:
	line	24
	
i1l2585:	
	movf	(___lwdiv@divisor),w
	subwf	(___lwdiv@dividend),f
	movf	(___lwdiv@divisor+1),w
	skipc
	decf	(___lwdiv@dividend+1),f
	subwf	(___lwdiv@dividend+1),f
	line	25
	
i1l2587:	
	bsf	(___lwdiv@quotient)+(0/8),(0)&7
	goto	i1l2589
	line	26
	
i1l820:	
	line	27
	
i1l2589:	
	movlw	01h
	
u315_25:
	clrc
	rrf	(___lwdiv@divisor+1),f
	rrf	(___lwdiv@divisor),f
	addlw	-1
	skipz
	goto	u315_25
	line	28
	
i1l2591:	
	movlw	low(01h)
	subwf	(___lwdiv@counter),f
	btfss	status,2
	goto	u316_21
	goto	u316_20
u316_21:
	goto	i1l2583
u316_20:
	goto	i1l2593
	
i1l821:	
	goto	i1l2593
	line	29
	
i1l815:	
	line	30
	
i1l2593:	
	movf	(___lwdiv@quotient+1),w
	clrf	(?___lwdiv+1)
	addwf	(?___lwdiv+1)
	movf	(___lwdiv@quotient),w
	clrf	(?___lwdiv)
	addwf	(?___lwdiv)

	goto	i1l822
	
i1l2595:	
	line	31
	
i1l822:	
	return
	opt stack 0
GLOBAL	__end_of___lwdiv
	__end_of___lwdiv:
	signat	___lwdiv,8314
	global	___fttol

;; *************** function ___fttol *****************
;; Defined at:
;;		line 44 in file "C:\Program Files (x86)\Microchip\xc8\v1.33\sources\common\fttol.c"
;; Parameters:    Size  Location     Type
;;  f1              3   18[BANK0 ] float 
;; Auto vars:     Size  Location     Type
;;  lval            4   27[BANK0 ] unsigned long 
;;  exp1            1   31[BANK0 ] unsigned char 
;;  sign1           1   26[BANK0 ] unsigned char 
;; Return value:  Size  Location     Type
;;                  4   18[BANK0 ] long 
;; Registers used:
;;		wreg, status,2, status,0
;; Tracked objects:
;;		On entry : 0/0
;;		On exit  : 0/0
;;		Unchanged: 0/0
;; Data sizes:     COMMON   BANK0   BANK1   BANK3   BANK2
;;      Params:         0       4       0       0       0
;;      Locals:         0       6       0       0       0
;;      Temps:          0       4       0       0       0
;;      Totals:         0      14       0       0       0
;;Total ram usage:       14 bytes
;; Hardware stack levels used:    1
;; This function calls:
;;		Nothing
;; This function is called by:
;;		_ISR
;; This function uses a non-reentrant model
;;
psect	text22,local,class=CODE,delta=2,merge=1
	file	"C:\Program Files (x86)\Microchip\xc8\v1.33\sources\common\fttol.c"
	line	44
global __ptext22
__ptext22:	;psect for function ___fttol
psect	text22
	file	"C:\Program Files (x86)\Microchip\xc8\v1.33\sources\common\fttol.c"
	line	44
	global	__size_of___fttol
	__size_of___fttol	equ	__end_of___fttol-___fttol
	
___fttol:	
;incstack = 0
	opt	stack 4
; Regs used in ___fttol: [wreg+status,2+status,0]
	line	49
	
i1l2527:	
	bcf	status, 5	;RP0=0, select bank0
	bcf	status, 6	;RP1=0, select bank0
	movf	(___fttol@f1),w
	movwf	((??___fttol+0)+0)
	movf	(___fttol@f1+1),w
	movwf	((??___fttol+0)+0+1)
	movf	(___fttol@f1+2),w
	movwf	((??___fttol+0)+0+2)
	clrc
	rlf	(??___fttol+0)+1,w
	rlf	(??___fttol+0)+2,w
	movwf	(??___fttol+3)+0
	movf	(??___fttol+3)+0,w
	movwf	(___fttol@exp1)
	movf	((___fttol@exp1)),f
	skipz
	goto	u300_21
	goto	u300_20
u300_21:
	goto	i1l2533
u300_20:
	line	50
	
i1l2529:	
	movlw	0
	movwf	(?___fttol+3)
	movlw	0
	movwf	(?___fttol+2)
	movlw	0
	movwf	(?___fttol+1)
	movlw	0
	movwf	(?___fttol)

	goto	i1l728
	
i1l2531:	
	goto	i1l728
	
i1l727:	
	line	51
	
i1l2533:	
	movf	(___fttol@f1),w
	movwf	((??___fttol+0)+0)
	movf	(___fttol@f1+1),w
	movwf	((??___fttol+0)+0+1)
	movf	(___fttol@f1+2),w
	movwf	((??___fttol+0)+0+2)
	movlw	017h
u301_25:
	clrc
	rrf	(??___fttol+0)+2,f
	rrf	(??___fttol+0)+1,f
	rrf	(??___fttol+0)+0,f
u301_20:
	addlw	-1
	skipz
	goto	u301_25
	movf	0+(??___fttol+0)+0,w
	movwf	(??___fttol+3)+0
	movf	(??___fttol+3)+0,w
	movwf	(___fttol@sign1)
	line	52
	
i1l2535:	
	bsf	(___fttol@f1)+(15/8),(15)&7
	line	53
	
i1l2537:	
	movlw	0FFh
	andwf	(___fttol@f1),f
	movlw	0FFh
	andwf	(___fttol@f1+1),f
	movlw	0
	andwf	(___fttol@f1+2),f
	line	54
	
i1l2539:	
	movf	(___fttol@f1),w
	movwf	(___fttol@lval)
	movf	(___fttol@f1+1),w
	movwf	((___fttol@lval))+1
	movf	(___fttol@f1+2),w
	movwf	((___fttol@lval))+2
	clrf	((___fttol@lval))+3
	line	55
	
i1l2541:	
	movlw	low(08Eh)
	subwf	(___fttol@exp1),f
	line	56
	
i1l2543:	
	btfss	(___fttol@exp1),7
	goto	u302_21
	goto	u302_20
u302_21:
	goto	i1l2553
u302_20:
	line	57
	
i1l2545:	
	movf	(___fttol@exp1),w
	xorlw	80h
	addlw	-((-15)^80h)
	skipnc
	goto	u303_21
	goto	u303_20
u303_21:
	goto	i1l2551
u303_20:
	line	58
	
i1l2547:	
	movlw	0
	movwf	(?___fttol+3)
	movlw	0
	movwf	(?___fttol+2)
	movlw	0
	movwf	(?___fttol+1)
	movlw	0
	movwf	(?___fttol)

	goto	i1l728
	
i1l2549:	
	goto	i1l728
	
i1l730:	
	goto	i1l2551
	line	59
	
i1l731:	
	line	60
	
i1l2551:	
	movlw	01h
u304_25:
	clrc
	rrf	(___fttol@lval+3),f
	rrf	(___fttol@lval+2),f
	rrf	(___fttol@lval+1),f
	rrf	(___fttol@lval),f
	addlw	-1
	skipz
	goto	u304_25

	line	61
	movlw	(01h)
	movwf	(??___fttol+0)+0
	movf	(??___fttol+0)+0,w
	addwf	(___fttol@exp1),f
	btfss	status,2
	goto	u305_21
	goto	u305_20
u305_21:
	goto	i1l2551
u305_20:
	goto	i1l2563
	
i1l732:	
	line	62
	goto	i1l2563
	
i1l729:	
	line	63
	
i1l2553:	
	movlw	(018h)
	subwf	(___fttol@exp1),w
	skipc
	goto	u306_21
	goto	u306_20
u306_21:
	goto	i1l2561
u306_20:
	line	64
	
i1l2555:	
	movlw	0
	movwf	(?___fttol+3)
	movlw	0
	movwf	(?___fttol+2)
	movlw	0
	movwf	(?___fttol+1)
	movlw	0
	movwf	(?___fttol)

	goto	i1l728
	
i1l2557:	
	goto	i1l728
	
i1l734:	
	line	65
	goto	i1l2561
	
i1l736:	
	line	66
	
i1l2559:	
	movlw	01h
	movwf	(??___fttol+0)+0
u307_25:
	clrc
	rlf	(___fttol@lval),f
	rlf	(___fttol@lval+1),f
	rlf	(___fttol@lval+2),f
	rlf	(___fttol@lval+3),f
	decfsz	(??___fttol+0)+0
	goto	u307_25
	line	67
	movlw	low(01h)
	subwf	(___fttol@exp1),f
	goto	i1l2561
	line	68
	
i1l735:	
	line	65
	
i1l2561:	
	movf	(___fttol@exp1),f
	skipz
	goto	u308_21
	goto	u308_20
u308_21:
	goto	i1l2559
u308_20:
	goto	i1l2563
	
i1l737:	
	goto	i1l2563
	line	69
	
i1l733:	
	line	70
	
i1l2563:	
	movf	(___fttol@sign1),w
	skipz
	goto	u309_20
	goto	i1l2567
u309_20:
	line	71
	
i1l2565:	
	comf	(___fttol@lval),f
	comf	(___fttol@lval+1),f
	comf	(___fttol@lval+2),f
	comf	(___fttol@lval+3),f
	incf	(___fttol@lval),f
	skipnz
	incf	(___fttol@lval+1),f
	skipnz
	incf	(___fttol@lval+2),f
	skipnz
	incf	(___fttol@lval+3),f
	goto	i1l2567
	
i1l738:	
	line	72
	
i1l2567:	
	movf	(___fttol@lval+3),w
	movwf	(?___fttol+3)
	movf	(___fttol@lval+2),w
	movwf	(?___fttol+2)
	movf	(___fttol@lval+1),w
	movwf	(?___fttol+1)
	movf	(___fttol@lval),w
	movwf	(?___fttol)

	goto	i1l728
	
i1l2569:	
	line	73
	
i1l728:	
	return
	opt stack 0
GLOBAL	__end_of___fttol
	__end_of___fttol:
	signat	___fttol,4220
	global	___ftmul

;; *************** function ___ftmul *****************
;; Defined at:
;;		line 62 in file "C:\Program Files (x86)\Microchip\xc8\v1.33\sources\common\ftmul.c"
;; Parameters:    Size  Location     Type
;;  f1              3   50[BANK0 ] float 
;;  f2              3   53[BANK0 ] float 
;; Auto vars:     Size  Location     Type
;;  f3_as_produc    3   61[BANK0 ] unsigned um
;;  sign            1   65[BANK0 ] unsigned char 
;;  cntr            1   64[BANK0 ] unsigned char 
;;  exp             1   60[BANK0 ] unsigned char 
;; Return value:  Size  Location     Type
;;                  3   50[BANK0 ] float 
;; Registers used:
;;		wreg, status,2, status,0, pclath, cstack
;; Tracked objects:
;;		On entry : 0/0
;;		On exit  : 0/0
;;		Unchanged: 0/0
;; Data sizes:     COMMON   BANK0   BANK1   BANK3   BANK2
;;      Params:         0       6       0       0       0
;;      Locals:         0       6       0       0       0
;;      Temps:          0       4       0       0       0
;;      Totals:         0      16       0       0       0
;;Total ram usage:       16 bytes
;; Hardware stack levels used:    1
;; Hardware stack levels required when called:    1
;; This function calls:
;;		___ftpack
;; This function is called by:
;;		_ISR
;; This function uses a non-reentrant model
;;
psect	text23,local,class=CODE,delta=2,merge=1
	file	"C:\Program Files (x86)\Microchip\xc8\v1.33\sources\common\ftmul.c"
	line	62
global __ptext23
__ptext23:	;psect for function ___ftmul
psect	text23
	file	"C:\Program Files (x86)\Microchip\xc8\v1.33\sources\common\ftmul.c"
	line	62
	global	__size_of___ftmul
	__size_of___ftmul	equ	__end_of___ftmul-___ftmul
	
___ftmul:	
;incstack = 0
	opt	stack 3
; Regs used in ___ftmul: [wreg+status,2+status,0+pclath+cstack]
	line	67
	
i1l2477:	
	bcf	status, 5	;RP0=0, select bank0
	bcf	status, 6	;RP1=0, select bank0
	movf	(___ftmul@f1),w
	movwf	((??___ftmul+0)+0)
	movf	(___ftmul@f1+1),w
	movwf	((??___ftmul+0)+0+1)
	movf	(___ftmul@f1+2),w
	movwf	((??___ftmul+0)+0+2)
	clrc
	rlf	(??___ftmul+0)+1,w
	rlf	(??___ftmul+0)+2,w
	movwf	(??___ftmul+3)+0
	movf	(??___ftmul+3)+0,w
	movwf	(___ftmul@exp)
	movf	((___ftmul@exp)),f
	skipz
	goto	u286_21
	goto	u286_20
u286_21:
	goto	i1l2483
u286_20:
	line	68
	
i1l2479:	
	movlw	0x0
	movwf	(?___ftmul)
	movlw	0x0
	movwf	(?___ftmul+1)
	movlw	0x0
	movwf	(?___ftmul+2)
	goto	i1l708
	
i1l2481:	
	goto	i1l708
	
i1l707:	
	line	69
	
i1l2483:	
	movf	(___ftmul@f2),w
	movwf	((??___ftmul+0)+0)
	movf	(___ftmul@f2+1),w
	movwf	((??___ftmul+0)+0+1)
	movf	(___ftmul@f2+2),w
	movwf	((??___ftmul+0)+0+2)
	clrc
	rlf	(??___ftmul+0)+1,w
	rlf	(??___ftmul+0)+2,w
	movwf	(??___ftmul+3)+0
	movf	(??___ftmul+3)+0,w
	movwf	(___ftmul@sign)
	movf	((___ftmul@sign)),f
	skipz
	goto	u287_21
	goto	u287_20
u287_21:
	goto	i1l2489
u287_20:
	line	70
	
i1l2485:	
	movlw	0x0
	movwf	(?___ftmul)
	movlw	0x0
	movwf	(?___ftmul+1)
	movlw	0x0
	movwf	(?___ftmul+2)
	goto	i1l708
	
i1l2487:	
	goto	i1l708
	
i1l709:	
	line	71
	
i1l2489:	
	movf	(___ftmul@sign),w
	addlw	07Bh
	movwf	(??___ftmul+0)+0
	movf	(??___ftmul+0)+0,w
	addwf	(___ftmul@exp),f
	line	72
	movf	(___ftmul@f1),w
	movwf	((??___ftmul+0)+0)
	movf	(___ftmul@f1+1),w
	movwf	((??___ftmul+0)+0+1)
	movf	(___ftmul@f1+2),w
	movwf	((??___ftmul+0)+0+2)
	movlw	010h
u288_25:
	clrc
	rrf	(??___ftmul+0)+2,f
	rrf	(??___ftmul+0)+1,f
	rrf	(??___ftmul+0)+0,f
u288_20:
	addlw	-1
	skipz
	goto	u288_25
	movf	0+(??___ftmul+0)+0,w
	movwf	(??___ftmul+3)+0
	movf	(??___ftmul+3)+0,w
	movwf	(___ftmul@sign)
	line	73
	movf	(___ftmul@f2),w
	movwf	((??___ftmul+0)+0)
	movf	(___ftmul@f2+1),w
	movwf	((??___ftmul+0)+0+1)
	movf	(___ftmul@f2+2),w
	movwf	((??___ftmul+0)+0+2)
	movlw	010h
u289_25:
	clrc
	rrf	(??___ftmul+0)+2,f
	rrf	(??___ftmul+0)+1,f
	rrf	(??___ftmul+0)+0,f
u289_20:
	addlw	-1
	skipz
	goto	u289_25
	movf	0+(??___ftmul+0)+0,w
	movwf	(??___ftmul+3)+0
	movf	(??___ftmul+3)+0,w
	xorwf	(___ftmul@sign),f
	line	74
	movlw	(080h)
	movwf	(??___ftmul+0)+0
	movf	(??___ftmul+0)+0,w
	andwf	(___ftmul@sign),f
	line	75
	
i1l2491:	
	bsf	(___ftmul@f1)+(15/8),(15)&7
	line	77
	
i1l2493:	
	bsf	(___ftmul@f2)+(15/8),(15)&7
	line	78
	
i1l2495:	
	movlw	0FFh
	andwf	(___ftmul@f2),f
	movlw	0FFh
	andwf	(___ftmul@f2+1),f
	movlw	0
	andwf	(___ftmul@f2+2),f
	line	79
	
i1l2497:	
	movlw	0
	movwf	(___ftmul@f3_as_product)
	movlw	0
	movwf	(___ftmul@f3_as_product+1)
	movlw	0
	movwf	(___ftmul@f3_as_product+2)
	line	134
	
i1l2499:	
	movlw	(07h)
	movwf	(??___ftmul+0)+0
	movf	(??___ftmul+0)+0,w
	movwf	(___ftmul@cntr)
	goto	i1l2501
	line	135
	
i1l710:	
	line	136
	
i1l2501:	
	btfss	(___ftmul@f1),(0)&7
	goto	u290_21
	goto	u290_20
u290_21:
	goto	i1l2505
u290_20:
	line	137
	
i1l2503:	
	movf	(___ftmul@f2),w
	addwf	(___ftmul@f3_as_product),f
	movf	(___ftmul@f2+1),w
	clrz
	skipnc
	incf	(___ftmul@f2+1),w
	skipnz
	goto	u291_21
	addwf	(___ftmul@f3_as_product+1),f
u291_21:
	movf	(___ftmul@f2+2),w
	clrz
	skipnc
	incf	(___ftmul@f2+2),w
	skipnz
	goto	u291_22
	addwf	(___ftmul@f3_as_product+2),f
u291_22:

	goto	i1l2505
	
i1l711:	
	line	138
	
i1l2505:	
	movlw	01h
u292_25:
	clrc
	rrf	(___ftmul@f1+2),f
	rrf	(___ftmul@f1+1),f
	rrf	(___ftmul@f1),f
	addlw	-1
	skipz
	goto	u292_25

	line	139
	
i1l2507:	
	movlw	01h
u293_25:
	clrc
	rlf	(___ftmul@f2),f
	rlf	(___ftmul@f2+1),f
	rlf	(___ftmul@f2+2),f
	addlw	-1
	skipz
	goto	u293_25
	line	140
	
i1l2509:	
	movlw	low(01h)
	subwf	(___ftmul@cntr),f
	btfss	status,2
	goto	u294_21
	goto	u294_20
u294_21:
	goto	i1l2501
u294_20:
	goto	i1l2511
	
i1l712:	
	line	143
	
i1l2511:	
	movlw	(09h)
	movwf	(??___ftmul+0)+0
	movf	(??___ftmul+0)+0,w
	movwf	(___ftmul@cntr)
	goto	i1l2513
	line	144
	
i1l713:	
	line	145
	
i1l2513:	
	btfss	(___ftmul@f1),(0)&7
	goto	u295_21
	goto	u295_20
u295_21:
	goto	i1l2517
u295_20:
	line	146
	
i1l2515:	
	movf	(___ftmul@f2),w
	addwf	(___ftmul@f3_as_product),f
	movf	(___ftmul@f2+1),w
	clrz
	skipnc
	incf	(___ftmul@f2+1),w
	skipnz
	goto	u296_21
	addwf	(___ftmul@f3_as_product+1),f
u296_21:
	movf	(___ftmul@f2+2),w
	clrz
	skipnc
	incf	(___ftmul@f2+2),w
	skipnz
	goto	u296_22
	addwf	(___ftmul@f3_as_product+2),f
u296_22:

	goto	i1l2517
	
i1l714:	
	line	147
	
i1l2517:	
	movlw	01h
u297_25:
	clrc
	rrf	(___ftmul@f1+2),f
	rrf	(___ftmul@f1+1),f
	rrf	(___ftmul@f1),f
	addlw	-1
	skipz
	goto	u297_25

	line	148
	
i1l2519:	
	movlw	01h
u298_25:
	clrc
	rrf	(___ftmul@f3_as_product+2),f
	rrf	(___ftmul@f3_as_product+1),f
	rrf	(___ftmul@f3_as_product),f
	addlw	-1
	skipz
	goto	u298_25

	line	149
	
i1l2521:	
	movlw	low(01h)
	subwf	(___ftmul@cntr),f
	btfss	status,2
	goto	u299_21
	goto	u299_20
u299_21:
	goto	i1l2513
u299_20:
	goto	i1l2523
	
i1l715:	
	line	156
	
i1l2523:	
	movf	(___ftmul@f3_as_product),w
	movwf	(___ftpack@arg)
	movf	(___ftmul@f3_as_product+1),w
	movwf	(___ftpack@arg+1)
	movf	(___ftmul@f3_as_product+2),w
	movwf	(___ftpack@arg+2)
	movf	(___ftmul@exp),w
	movwf	(??___ftmul+0)+0
	movf	(??___ftmul+0)+0,w
	movwf	(___ftpack@exp)
	movf	(___ftmul@sign),w
	movwf	(??___ftmul+1)+0
	movf	(??___ftmul+1)+0,w
	movwf	(___ftpack@sign)
	fcall	___ftpack
	movf	(0+(?___ftpack)),w
	bcf	status, 5	;RP0=0, select bank0
	bcf	status, 6	;RP1=0, select bank0
	movwf	(?___ftmul)
	movf	(1+(?___ftpack)),w
	movwf	(?___ftmul+1)
	movf	(2+(?___ftpack)),w
	movwf	(?___ftmul+2)
	goto	i1l708
	
i1l2525:	
	line	157
	
i1l708:	
	return
	opt stack 0
GLOBAL	__end_of___ftmul
	__end_of___ftmul:
	signat	___ftmul,8315
	global	___bmul

;; *************** function ___bmul *****************
;; Defined at:
;;		line 4 in file "C:\Program Files (x86)\Microchip\xc8\v1.33\sources\common\Umul8.c"
;; Parameters:    Size  Location     Type
;;  multiplier      1    wreg     unsigned char 
;;  multiplicand    1    0[COMMON] unsigned char 
;; Auto vars:     Size  Location     Type
;;  multiplier      1    3[COMMON] unsigned char 
;;  product         1    2[COMMON] unsigned char 
;; Return value:  Size  Location     Type
;;                  1    wreg      unsigned char 
;; Registers used:
;;		wreg, status,2, status,0
;; Tracked objects:
;;		On entry : 0/0
;;		On exit  : 0/0
;;		Unchanged: 0/0
;; Data sizes:     COMMON   BANK0   BANK1   BANK3   BANK2
;;      Params:         1       0       0       0       0
;;      Locals:         2       0       0       0       0
;;      Temps:          1       0       0       0       0
;;      Totals:         4       0       0       0       0
;;Total ram usage:        4 bytes
;; Hardware stack levels used:    1
;; This function calls:
;;		Nothing
;; This function is called by:
;;		_ISR
;; This function uses a non-reentrant model
;;
psect	text24,local,class=CODE,delta=2,merge=1
	file	"C:\Program Files (x86)\Microchip\xc8\v1.33\sources\common\Umul8.c"
	line	4
global __ptext24
__ptext24:	;psect for function ___bmul
psect	text24
	file	"C:\Program Files (x86)\Microchip\xc8\v1.33\sources\common\Umul8.c"
	line	4
	global	__size_of___bmul
	__size_of___bmul	equ	__end_of___bmul-___bmul
	
___bmul:	
;incstack = 0
	opt	stack 4
; Regs used in ___bmul: [wreg+status,2+status,0]
;___bmul@multiplier stored from wreg
	movwf	(___bmul@multiplier)
	line	6
	
i1l2367:	
	clrf	(___bmul@product)
	goto	i1l2369
	line	42
	
i1l499:	
	line	43
	
i1l2369:	
	btfss	(___bmul@multiplier),(0)&7
	goto	u264_21
	goto	u264_20
u264_21:
	goto	i1l2373
u264_20:
	line	44
	
i1l2371:	
	movf	(___bmul@multiplicand),w
	movwf	(??___bmul+0)+0
	movf	(??___bmul+0)+0,w
	addwf	(___bmul@product),f
	goto	i1l2373
	
i1l500:	
	line	45
	
i1l2373:	
	clrc
	rlf	(___bmul@multiplicand),f

	line	46
	
i1l2375:	
	clrc
	rrf	(___bmul@multiplier),f

	line	47
	
i1l2377:	
	movf	(___bmul@multiplier),f
	skipz
	goto	u265_21
	goto	u265_20
u265_21:
	goto	i1l2369
u265_20:
	goto	i1l2379
	
i1l501:	
	line	50
	
i1l2379:	
	movf	(___bmul@product),w
	goto	i1l502
	
i1l2381:	
	line	51
	
i1l502:	
	return
	opt stack 0
GLOBAL	__end_of___bmul
	__end_of___bmul:
	signat	___bmul,8313
	global	___awtoft

;; *************** function ___awtoft *****************
;; Defined at:
;;		line 32 in file "C:\Program Files (x86)\Microchip\xc8\v1.33\sources\common\awtoft.c"
;; Parameters:    Size  Location     Type
;;  c               2    8[COMMON] int 
;; Auto vars:     Size  Location     Type
;;  sign            1   13[COMMON] unsigned char 
;; Return value:  Size  Location     Type
;;                  3    8[COMMON] float 
;; Registers used:
;;		wreg, status,2, status,0, pclath, cstack
;; Tracked objects:
;;		On entry : 0/0
;;		On exit  : 0/0
;;		Unchanged: 0/0
;; Data sizes:     COMMON   BANK0   BANK1   BANK3   BANK2
;;      Params:         3       0       0       0       0
;;      Locals:         1       0       0       0       0
;;      Temps:          2       0       0       0       0
;;      Totals:         6       0       0       0       0
;;Total ram usage:        6 bytes
;; Hardware stack levels used:    1
;; Hardware stack levels required when called:    1
;; This function calls:
;;		___ftpack
;; This function is called by:
;;		_ISR
;; This function uses a non-reentrant model
;;
psect	text25,local,class=CODE,delta=2,merge=1
	file	"C:\Program Files (x86)\Microchip\xc8\v1.33\sources\common\awtoft.c"
	line	32
global __ptext25
__ptext25:	;psect for function ___awtoft
psect	text25
	file	"C:\Program Files (x86)\Microchip\xc8\v1.33\sources\common\awtoft.c"
	line	32
	global	__size_of___awtoft
	__size_of___awtoft	equ	__end_of___awtoft-___awtoft
	
___awtoft:	
;incstack = 0
	opt	stack 3
; Regs used in ___awtoft: [wreg+status,2+status,0+pclath+cstack]
	line	36
	
i1l2465:	
	clrf	(___awtoft@sign)
	line	37
	
i1l2467:	
	btfss	(___awtoft@c+1),7
	goto	u285_21
	goto	u285_20
u285_21:
	goto	i1l2473
u285_20:
	line	38
	
i1l2469:	
	comf	(___awtoft@c),f
	comf	(___awtoft@c+1),f
	incf	(___awtoft@c),f
	skipnz
	incf	(___awtoft@c+1),f
	line	39
	
i1l2471:	
	clrf	(___awtoft@sign)
	incf	(___awtoft@sign),f
	goto	i1l2473
	line	40
	
i1l636:	
	line	41
	
i1l2473:	
	movf	(___awtoft@c),w
	movwf	(___ftpack@arg)
	movf	(___awtoft@c+1),w
	movwf	(___ftpack@arg+1)
	clrf	(___ftpack@arg+2)
	movlw	(08Eh)
	movwf	(??___awtoft+0)+0
	movf	(??___awtoft+0)+0,w
	movwf	(___ftpack@exp)
	movf	(___awtoft@sign),w
	movwf	(??___awtoft+1)+0
	movf	(??___awtoft+1)+0,w
	movwf	(___ftpack@sign)
	fcall	___ftpack
	movf	(0+(?___ftpack)),w
	movwf	(?___awtoft)
	movf	(1+(?___ftpack)),w
	movwf	(?___awtoft+1)
	movf	(2+(?___ftpack)),w
	movwf	(?___awtoft+2)
	goto	i1l637
	
i1l2475:	
	line	42
	
i1l637:	
	return
	opt stack 0
GLOBAL	__end_of___awtoft
	__end_of___awtoft:
	signat	___awtoft,4219
	global	___ftpack

;; *************** function ___ftpack *****************
;; Defined at:
;;		line 62 in file "C:\Program Files (x86)\Microchip\xc8\v1.33\sources\common\float.c"
;; Parameters:    Size  Location     Type
;;  arg             3    0[COMMON] unsigned um
;;  exp             1    3[COMMON] unsigned char 
;;  sign            1    4[COMMON] unsigned char 
;; Auto vars:     Size  Location     Type
;;		None
;; Return value:  Size  Location     Type
;;                  3    0[COMMON] float 
;; Registers used:
;;		wreg, status,2, status,0
;; Tracked objects:
;;		On entry : 0/0
;;		On exit  : 0/0
;;		Unchanged: 0/0
;; Data sizes:     COMMON   BANK0   BANK1   BANK3   BANK2
;;      Params:         5       0       0       0       0
;;      Locals:         0       0       0       0       0
;;      Temps:          3       0       0       0       0
;;      Totals:         8       0       0       0       0
;;Total ram usage:        8 bytes
;; Hardware stack levels used:    1
;; This function calls:
;;		Nothing
;; This function is called by:
;;		___awtoft
;;		___ftadd
;;		___ftdiv
;;		___ftmul
;;		___lwtoft
;; This function uses a non-reentrant model
;;
psect	text26,local,class=CODE,delta=2,merge=1
	file	"C:\Program Files (x86)\Microchip\xc8\v1.33\sources\common\float.c"
	line	62
global __ptext26
__ptext26:	;psect for function ___ftpack
psect	text26
	file	"C:\Program Files (x86)\Microchip\xc8\v1.33\sources\common\float.c"
	line	62
	global	__size_of___ftpack
	__size_of___ftpack	equ	__end_of___ftpack-___ftpack
	
___ftpack:	
;incstack = 0
	opt	stack 2
; Regs used in ___ftpack: [wreg+status,2+status,0]
	line	64
	
i1l1983:	
	movf	(___ftpack@exp),w
	skipz
	goto	u185_20
	goto	i1l1987
u185_20:
	
i1l1985:	
	movf	(___ftpack@arg+2),w
	iorwf	(___ftpack@arg+1),w
	iorwf	(___ftpack@arg),w
	skipz
	goto	u186_21
	goto	u186_20
u186_21:
	goto	i1l1993
u186_20:
	goto	i1l1987
	
i1l642:	
	line	65
	
i1l1987:	
	movlw	0x0
	movwf	(?___ftpack)
	movlw	0x0
	movwf	(?___ftpack+1)
	movlw	0x0
	movwf	(?___ftpack+2)
	goto	i1l643
	
i1l1989:	
	goto	i1l643
	
i1l640:	
	line	66
	goto	i1l1993
	
i1l645:	
	line	67
	
i1l1991:	
	movlw	(01h)
	movwf	(??___ftpack+0)+0
	movf	(??___ftpack+0)+0,w
	addwf	(___ftpack@exp),f
	line	68
	movlw	01h
u187_25:
	clrc
	rrf	(___ftpack@arg+2),f
	rrf	(___ftpack@arg+1),f
	rrf	(___ftpack@arg),f
	addlw	-1
	skipz
	goto	u187_25

	goto	i1l1993
	line	69
	
i1l644:	
	line	66
	
i1l1993:	
	movlw	low highword(0FE0000h)
	andwf	(___ftpack@arg+2),w
	btfss	status,2
	goto	u188_21
	goto	u188_20
u188_21:
	goto	i1l1991
u188_20:
	goto	i1l647
	
i1l646:	
	line	70
	goto	i1l647
	
i1l648:	
	line	71
	
i1l1995:	
	movlw	(01h)
	movwf	(??___ftpack+0)+0
	movf	(??___ftpack+0)+0,w
	addwf	(___ftpack@exp),f
	line	72
	
i1l1997:	
	movlw	01h
	addwf	(___ftpack@arg),f
	movlw	0
	skipnc
movlw 1
	addwf	(___ftpack@arg+1),f
	movlw	0
	skipnc
movlw 1
	addwf	(___ftpack@arg+2),f
	line	73
	
i1l1999:	
	movlw	01h
u189_25:
	clrc
	rrf	(___ftpack@arg+2),f
	rrf	(___ftpack@arg+1),f
	rrf	(___ftpack@arg),f
	addlw	-1
	skipz
	goto	u189_25

	line	74
	
i1l647:	
	line	70
	movlw	low highword(0FF0000h)
	andwf	(___ftpack@arg+2),w
	btfss	status,2
	goto	u190_21
	goto	u190_20
u190_21:
	goto	i1l1995
u190_20:
	goto	i1l2003
	
i1l649:	
	line	75
	goto	i1l2003
	
i1l651:	
	line	76
	
i1l2001:	
	movlw	low(01h)
	subwf	(___ftpack@exp),f
	line	77
	movlw	01h
u191_25:
	clrc
	rlf	(___ftpack@arg),f
	rlf	(___ftpack@arg+1),f
	rlf	(___ftpack@arg+2),f
	addlw	-1
	skipz
	goto	u191_25
	goto	i1l2003
	line	78
	
i1l650:	
	line	75
	
i1l2003:	
	btfss	(___ftpack@arg+1),(15)&7
	goto	u192_21
	goto	u192_20
u192_21:
	goto	i1l2001
u192_20:
	
i1l652:	
	line	79
	btfsc	(___ftpack@exp),(0)&7
	goto	u193_21
	goto	u193_20
u193_21:
	goto	i1l653
u193_20:
	line	80
	
i1l2005:	
	movlw	0FFh
	andwf	(___ftpack@arg),f
	movlw	07Fh
	andwf	(___ftpack@arg+1),f
	movlw	0FFh
	andwf	(___ftpack@arg+2),f
	
i1l653:	
	line	81
	clrc
	rrf	(___ftpack@exp),f

	line	82
	
i1l2007:	
	movf	(___ftpack@exp),w
	movwf	((??___ftpack+0)+0)
	clrf	((??___ftpack+0)+0+1)
	clrf	((??___ftpack+0)+0+2)
	movlw	010h
u194_25:
	clrc
	rlf	(??___ftpack+0)+0,f
	rlf	(??___ftpack+0)+1,f
	rlf	(??___ftpack+0)+2,f
u194_20:
	addlw	-1
	skipz
	goto	u194_25
	movf	0+(??___ftpack+0)+0,w
	iorwf	(___ftpack@arg),f
	movf	1+(??___ftpack+0)+0,w
	iorwf	(___ftpack@arg+1),f
	movf	2+(??___ftpack+0)+0,w
	iorwf	(___ftpack@arg+2),f
	line	83
	
i1l2009:	
	movf	(___ftpack@sign),w
	skipz
	goto	u195_20
	goto	i1l654
u195_20:
	line	84
	
i1l2011:	
	bsf	(___ftpack@arg)+(23/8),(23)&7
	
i1l654:	
	line	85
	line	86
	
i1l643:	
	return
	opt stack 0
GLOBAL	__end_of___ftpack
	__end_of___ftpack:
	signat	___ftpack,12411
	global	___awmod

;; *************** function ___awmod *****************
;; Defined at:
;;		line 6 in file "C:\Program Files (x86)\Microchip\xc8\v1.33\sources\common\awmod.c"
;; Parameters:    Size  Location     Type
;;  divisor         2    0[COMMON] int 
;;  dividend        2    2[COMMON] int 
;; Auto vars:     Size  Location     Type
;;  sign            1    6[COMMON] unsigned char 
;;  counter         1    5[COMMON] unsigned char 
;; Return value:  Size  Location     Type
;;                  2    0[COMMON] int 
;; Registers used:
;;		wreg, status,2, status,0
;; Tracked objects:
;;		On entry : 0/0
;;		On exit  : 0/0
;;		Unchanged: 0/0
;; Data sizes:     COMMON   BANK0   BANK1   BANK3   BANK2
;;      Params:         4       0       0       0       0
;;      Locals:         2       0       0       0       0
;;      Temps:          1       0       0       0       0
;;      Totals:         7       0       0       0       0
;;Total ram usage:        7 bytes
;; Hardware stack levels used:    1
;; This function calls:
;;		Nothing
;; This function is called by:
;;		_ISR
;; This function uses a non-reentrant model
;;
psect	text27,local,class=CODE,delta=2,merge=1
	file	"C:\Program Files (x86)\Microchip\xc8\v1.33\sources\common\awmod.c"
	line	6
global __ptext27
__ptext27:	;psect for function ___awmod
psect	text27
	file	"C:\Program Files (x86)\Microchip\xc8\v1.33\sources\common\awmod.c"
	line	6
	global	__size_of___awmod
	__size_of___awmod	equ	__end_of___awmod-___awmod
	
___awmod:	
;incstack = 0
	opt	stack 4
; Regs used in ___awmod: [wreg+status,2+status,0]
	line	13
	
i1l2427:	
	clrf	(___awmod@sign)
	line	14
	
i1l2429:	
	btfss	(___awmod@dividend+1),7
	goto	u276_21
	goto	u276_20
u276_21:
	goto	i1l2435
u276_20:
	line	15
	
i1l2431:	
	comf	(___awmod@dividend),f
	comf	(___awmod@dividend+1),f
	incf	(___awmod@dividend),f
	skipnz
	incf	(___awmod@dividend+1),f
	line	16
	
i1l2433:	
	clrf	(___awmod@sign)
	incf	(___awmod@sign),f
	goto	i1l2435
	line	17
	
i1l621:	
	line	18
	
i1l2435:	
	btfss	(___awmod@divisor+1),7
	goto	u277_21
	goto	u277_20
u277_21:
	goto	i1l2439
u277_20:
	line	19
	
i1l2437:	
	comf	(___awmod@divisor),f
	comf	(___awmod@divisor+1),f
	incf	(___awmod@divisor),f
	skipnz
	incf	(___awmod@divisor+1),f
	goto	i1l2439
	
i1l622:	
	line	20
	
i1l2439:	
	movf	(___awmod@divisor+1),w
	iorwf	(___awmod@divisor),w
	skipnz
	goto	u278_21
	goto	u278_20
u278_21:
	goto	i1l2457
u278_20:
	line	21
	
i1l2441:	
	clrf	(___awmod@counter)
	incf	(___awmod@counter),f
	line	22
	goto	i1l2447
	
i1l625:	
	line	23
	
i1l2443:	
	movlw	01h
	
u279_25:
	clrc
	rlf	(___awmod@divisor),f
	rlf	(___awmod@divisor+1),f
	addlw	-1
	skipz
	goto	u279_25
	line	24
	
i1l2445:	
	movlw	(01h)
	movwf	(??___awmod+0)+0
	movf	(??___awmod+0)+0,w
	addwf	(___awmod@counter),f
	goto	i1l2447
	line	25
	
i1l624:	
	line	22
	
i1l2447:	
	btfss	(___awmod@divisor+1),(15)&7
	goto	u280_21
	goto	u280_20
u280_21:
	goto	i1l2443
u280_20:
	goto	i1l2449
	
i1l626:	
	goto	i1l2449
	line	26
	
i1l627:	
	line	27
	
i1l2449:	
	movf	(___awmod@divisor+1),w
	subwf	(___awmod@dividend+1),w
	skipz
	goto	u281_25
	movf	(___awmod@divisor),w
	subwf	(___awmod@dividend),w
u281_25:
	skipc
	goto	u281_21
	goto	u281_20
u281_21:
	goto	i1l2453
u281_20:
	line	28
	
i1l2451:	
	movf	(___awmod@divisor),w
	subwf	(___awmod@dividend),f
	movf	(___awmod@divisor+1),w
	skipc
	decf	(___awmod@dividend+1),f
	subwf	(___awmod@dividend+1),f
	goto	i1l2453
	
i1l628:	
	line	29
	
i1l2453:	
	movlw	01h
	
u282_25:
	clrc
	rrf	(___awmod@divisor+1),f
	rrf	(___awmod@divisor),f
	addlw	-1
	skipz
	goto	u282_25
	line	30
	
i1l2455:	
	movlw	low(01h)
	subwf	(___awmod@counter),f
	btfss	status,2
	goto	u283_21
	goto	u283_20
u283_21:
	goto	i1l2449
u283_20:
	goto	i1l2457
	
i1l629:	
	goto	i1l2457
	line	31
	
i1l623:	
	line	32
	
i1l2457:	
	movf	(___awmod@sign),w
	skipz
	goto	u284_20
	goto	i1l2461
u284_20:
	line	33
	
i1l2459:	
	comf	(___awmod@dividend),f
	comf	(___awmod@dividend+1),f
	incf	(___awmod@dividend),f
	skipnz
	incf	(___awmod@dividend+1),f
	goto	i1l2461
	
i1l630:	
	line	34
	
i1l2461:	
	movf	(___awmod@dividend+1),w
	clrf	(?___awmod+1)
	addwf	(?___awmod+1)
	movf	(___awmod@dividend),w
	clrf	(?___awmod)
	addwf	(?___awmod)

	goto	i1l631
	
i1l2463:	
	line	35
	
i1l631:	
	return
	opt stack 0
GLOBAL	__end_of___awmod
	__end_of___awmod:
	signat	___awmod,8314
	global	___awdiv

;; *************** function ___awdiv *****************
;; Defined at:
;;		line 6 in file "C:\Program Files (x86)\Microchip\xc8\v1.33\sources\common\awdiv.c"
;; Parameters:    Size  Location     Type
;;  divisor         2    0[COMMON] int 
;;  dividend        2    2[COMMON] int 
;; Auto vars:     Size  Location     Type
;;  quotient        2    7[COMMON] int 
;;  sign            1    6[COMMON] unsigned char 
;;  counter         1    5[COMMON] unsigned char 
;; Return value:  Size  Location     Type
;;                  2    0[COMMON] int 
;; Registers used:
;;		wreg, status,2, status,0
;; Tracked objects:
;;		On entry : 0/0
;;		On exit  : 0/0
;;		Unchanged: 0/0
;; Data sizes:     COMMON   BANK0   BANK1   BANK3   BANK2
;;      Params:         4       0       0       0       0
;;      Locals:         4       0       0       0       0
;;      Temps:          1       0       0       0       0
;;      Totals:         9       0       0       0       0
;;Total ram usage:        9 bytes
;; Hardware stack levels used:    1
;; This function calls:
;;		Nothing
;; This function is called by:
;;		_ISR
;; This function uses a non-reentrant model
;;
psect	text28,local,class=CODE,delta=2,merge=1
	file	"C:\Program Files (x86)\Microchip\xc8\v1.33\sources\common\awdiv.c"
	line	6
global __ptext28
__ptext28:	;psect for function ___awdiv
psect	text28
	file	"C:\Program Files (x86)\Microchip\xc8\v1.33\sources\common\awdiv.c"
	line	6
	global	__size_of___awdiv
	__size_of___awdiv	equ	__end_of___awdiv-___awdiv
	
___awdiv:	
;incstack = 0
	opt	stack 4
; Regs used in ___awdiv: [wreg+status,2+status,0]
	line	14
	
i1l2383:	
	clrf	(___awdiv@sign)
	line	15
	
i1l2385:	
	btfss	(___awdiv@divisor+1),7
	goto	u266_21
	goto	u266_20
u266_21:
	goto	i1l2391
u266_20:
	line	16
	
i1l2387:	
	comf	(___awdiv@divisor),f
	comf	(___awdiv@divisor+1),f
	incf	(___awdiv@divisor),f
	skipnz
	incf	(___awdiv@divisor+1),f
	line	17
	
i1l2389:	
	clrf	(___awdiv@sign)
	incf	(___awdiv@sign),f
	goto	i1l2391
	line	18
	
i1l608:	
	line	19
	
i1l2391:	
	btfss	(___awdiv@dividend+1),7
	goto	u267_21
	goto	u267_20
u267_21:
	goto	i1l2397
u267_20:
	line	20
	
i1l2393:	
	comf	(___awdiv@dividend),f
	comf	(___awdiv@dividend+1),f
	incf	(___awdiv@dividend),f
	skipnz
	incf	(___awdiv@dividend+1),f
	line	21
	
i1l2395:	
	movlw	(01h)
	movwf	(??___awdiv+0)+0
	movf	(??___awdiv+0)+0,w
	xorwf	(___awdiv@sign),f
	goto	i1l2397
	line	22
	
i1l609:	
	line	23
	
i1l2397:	
	clrf	(___awdiv@quotient)
	clrf	(___awdiv@quotient+1)
	line	24
	
i1l2399:	
	movf	(___awdiv@divisor+1),w
	iorwf	(___awdiv@divisor),w
	skipnz
	goto	u268_21
	goto	u268_20
u268_21:
	goto	i1l2419
u268_20:
	line	25
	
i1l2401:	
	clrf	(___awdiv@counter)
	incf	(___awdiv@counter),f
	line	26
	goto	i1l2407
	
i1l612:	
	line	27
	
i1l2403:	
	movlw	01h
	
u269_25:
	clrc
	rlf	(___awdiv@divisor),f
	rlf	(___awdiv@divisor+1),f
	addlw	-1
	skipz
	goto	u269_25
	line	28
	
i1l2405:	
	movlw	(01h)
	movwf	(??___awdiv+0)+0
	movf	(??___awdiv+0)+0,w
	addwf	(___awdiv@counter),f
	goto	i1l2407
	line	29
	
i1l611:	
	line	26
	
i1l2407:	
	btfss	(___awdiv@divisor+1),(15)&7
	goto	u270_21
	goto	u270_20
u270_21:
	goto	i1l2403
u270_20:
	goto	i1l2409
	
i1l613:	
	goto	i1l2409
	line	30
	
i1l614:	
	line	31
	
i1l2409:	
	movlw	01h
	
u271_25:
	clrc
	rlf	(___awdiv@quotient),f
	rlf	(___awdiv@quotient+1),f
	addlw	-1
	skipz
	goto	u271_25
	line	32
	movf	(___awdiv@divisor+1),w
	subwf	(___awdiv@dividend+1),w
	skipz
	goto	u272_25
	movf	(___awdiv@divisor),w
	subwf	(___awdiv@dividend),w
u272_25:
	skipc
	goto	u272_21
	goto	u272_20
u272_21:
	goto	i1l2415
u272_20:
	line	33
	
i1l2411:	
	movf	(___awdiv@divisor),w
	subwf	(___awdiv@dividend),f
	movf	(___awdiv@divisor+1),w
	skipc
	decf	(___awdiv@dividend+1),f
	subwf	(___awdiv@dividend+1),f
	line	34
	
i1l2413:	
	bsf	(___awdiv@quotient)+(0/8),(0)&7
	goto	i1l2415
	line	35
	
i1l615:	
	line	36
	
i1l2415:	
	movlw	01h
	
u273_25:
	clrc
	rrf	(___awdiv@divisor+1),f
	rrf	(___awdiv@divisor),f
	addlw	-1
	skipz
	goto	u273_25
	line	37
	
i1l2417:	
	movlw	low(01h)
	subwf	(___awdiv@counter),f
	btfss	status,2
	goto	u274_21
	goto	u274_20
u274_21:
	goto	i1l2409
u274_20:
	goto	i1l2419
	
i1l616:	
	goto	i1l2419
	line	38
	
i1l610:	
	line	39
	
i1l2419:	
	movf	(___awdiv@sign),w
	skipz
	goto	u275_20
	goto	i1l2423
u275_20:
	line	40
	
i1l2421:	
	comf	(___awdiv@quotient),f
	comf	(___awdiv@quotient+1),f
	incf	(___awdiv@quotient),f
	skipnz
	incf	(___awdiv@quotient+1),f
	goto	i1l2423
	
i1l617:	
	line	41
	
i1l2423:	
	movf	(___awdiv@quotient+1),w
	clrf	(?___awdiv+1)
	addwf	(?___awdiv+1)
	movf	(___awdiv@quotient),w
	clrf	(?___awdiv)
	addwf	(?___awdiv)

	goto	i1l618
	
i1l2425:	
	line	42
	
i1l618:	
	return
	opt stack 0
GLOBAL	__end_of___awdiv
	__end_of___awdiv:
	signat	___awdiv,8314
	global	_USART_ReceiveChar

;; *************** function _USART_ReceiveChar *****************
;; Defined at:
;;		line 63 in file "C:\Users\filip\programs\FuzzySI\firmware - Copia\usart.c"
;; Parameters:    Size  Location     Type
;;		None
;; Auto vars:     Size  Location     Type
;;  byte            1    4[COMMON] unsigned char 
;; Return value:  Size  Location     Type
;;                  1    wreg      unsigned char 
;; Registers used:
;;		wreg, fsr0l, fsr0h, status,2, status,0, pclath, cstack
;; Tracked objects:
;;		On entry : 0/0
;;		On exit  : 0/0
;;		Unchanged: 0/0
;; Data sizes:     COMMON   BANK0   BANK1   BANK3   BANK2
;;      Params:         0       0       0       0       0
;;      Locals:         1       0       0       0       0
;;      Temps:          1       0       0       0       0
;;      Totals:         2       0       0       0       0
;;Total ram usage:        2 bytes
;; Hardware stack levels used:    1
;; Hardware stack levels required when called:    2
;; This function calls:
;;		_USART_WriteString
;; This function is called by:
;;		_ISR
;; This function uses a non-reentrant model
;;
psect	text29,local,class=CODE,delta=2,merge=1
	file	"C:\Users\filip\programs\FuzzySI\firmware - Copia\usart.c"
	line	63
global __ptext29
__ptext29:	;psect for function _USART_ReceiveChar
psect	text29
	file	"C:\Users\filip\programs\FuzzySI\firmware - Copia\usart.c"
	line	63
	global	__size_of_USART_ReceiveChar
	__size_of_USART_ReceiveChar	equ	__end_of_USART_ReceiveChar-_USART_ReceiveChar
	
_USART_ReceiveChar:	
;incstack = 0
	opt	stack 2
; Regs used in _USART_ReceiveChar: [wreg-fsr0h+status,2+status,0+pclath+cstack]
	line	67
	
i1l2249:	
;usart.c: 65: unsigned char byte;
;usart.c: 67: if (!OERR)
	bcf	status, 5	;RP0=0, select bank0
	bcf	status, 6	;RP1=0, select bank0
	btfsc	(193/8),(193)&7	;volatile
	goto	u255_21
	goto	u255_20
u255_21:
	goto	i1l2255
u255_20:
	line	69
	
i1l2251:	
;usart.c: 68: {
;usart.c: 69: byte = RCREG;
	movf	(26),w	;volatile
	movwf	(??_USART_ReceiveChar+0)+0
	movf	(??_USART_ReceiveChar+0)+0,w
	movwf	(USART_ReceiveChar@byte)
	line	70
	
i1l2253:	
;usart.c: 70: PIR1bits.RCIF = 0;
	bcf	(12),5	;volatile
	line	71
;usart.c: 71: }
	goto	i1l2265
	line	72
	
i1l174:	
	line	74
	
i1l2255:	
;usart.c: 72: else
;usart.c: 73: {
;usart.c: 74: USART_WriteString("\n\r ------- ESTOURO DE PILHA ------- \n\r ");
	movlw	((STR_1)-__stringbase)&0ffh
	fcall	_USART_WriteString
	line	76
	
i1l2257:	
;usart.c: 76: RCSTAbits.CREN = 0;
	bcf	status, 5	;RP0=0, select bank0
	bcf	status, 6	;RP1=0, select bank0
	bcf	(24),4	;volatile
	line	77
	
i1l2259:	
;usart.c: 77: byte = RCREG;
	movf	(26),w	;volatile
	movwf	(??_USART_ReceiveChar+0)+0
	movf	(??_USART_ReceiveChar+0)+0,w
	movwf	(USART_ReceiveChar@byte)
	line	78
	
i1l2261:	
;usart.c: 78: RCSTAbits.CREN = 1;
	bsf	(24),4	;volatile
	line	79
	
i1l2263:	
;usart.c: 79: PIR1bits.RCIF = 0;
	bcf	(12),5	;volatile
	goto	i1l2265
	line	80
	
i1l175:	
	line	82
	
i1l2265:	
;usart.c: 80: }
;usart.c: 82: return(byte);
	movf	(USART_ReceiveChar@byte),w
	goto	i1l176
	
i1l2267:	
	line	83
	
i1l176:	
	return
	opt stack 0
GLOBAL	__end_of_USART_ReceiveChar
	__end_of_USART_ReceiveChar:
	signat	_USART_ReceiveChar,89
	global	_USART_WriteString

;; *************** function _USART_WriteString *****************
;; Defined at:
;;		line 52 in file "C:\Users\filip\programs\FuzzySI\firmware - Copia\usart.c"
;; Parameters:    Size  Location     Type
;;  str             1    wreg     PTR const unsigned char 
;;		 -> STR_1(40), 
;; Auto vars:     Size  Location     Type
;;  str             1    2[COMMON] PTR const unsigned char 
;;		 -> STR_1(40), 
;; Return value:  Size  Location     Type
;;		None               void
;; Registers used:
;;		wreg, fsr0l, fsr0h, status,2, status,0, pclath, cstack
;; Tracked objects:
;;		On entry : 0/0
;;		On exit  : 0/0
;;		Unchanged: 0/0
;; Data sizes:     COMMON   BANK0   BANK1   BANK3   BANK2
;;      Params:         0       0       0       0       0
;;      Locals:         1       0       0       0       0
;;      Temps:          1       0       0       0       0
;;      Totals:         2       0       0       0       0
;;Total ram usage:        2 bytes
;; Hardware stack levels used:    1
;; Hardware stack levels required when called:    1
;; This function calls:
;;		_USART_WriteChar
;; This function is called by:
;;		_USART_ReceiveChar
;; This function uses a non-reentrant model
;;
psect	text30,local,class=CODE,delta=2,merge=1
	line	52
global __ptext30
__ptext30:	;psect for function _USART_WriteString
psect	text30
	file	"C:\Users\filip\programs\FuzzySI\firmware - Copia\usart.c"
	line	52
	global	__size_of_USART_WriteString
	__size_of_USART_WriteString	equ	__end_of_USART_WriteString-_USART_WriteString
	
_USART_WriteString:	
;incstack = 0
	opt	stack 2
; Regs used in _USART_WriteString: [wreg-fsr0h+status,2+status,0+pclath+cstack]
;USART_WriteString@str stored from wreg
	movwf	(USART_WriteString@str)
	line	54
	
i1l2013:	
;usart.c: 54: while(*str != '\0')
	goto	i1l2019
	
i1l169:	
	line	56
	
i1l2015:	
;usart.c: 55: {
;usart.c: 56: USART_WriteChar(*str);
	movf	(USART_WriteString@str),w
	movwf	fsr0
	fcall	stringdir
	fcall	_USART_WriteChar
	line	57
	
i1l2017:	
;usart.c: 57: str++;
	movlw	(01h)
	movwf	(??_USART_WriteString+0)+0
	movf	(??_USART_WriteString+0)+0,w
	addwf	(USART_WriteString@str),f
	goto	i1l2019
	line	58
	
i1l168:	
	line	54
	
i1l2019:	
	movf	(USART_WriteString@str),w
	movwf	fsr0
	fcall	stringdir
	iorlw	0
	skipz
	goto	u196_21
	goto	u196_20
u196_21:
	goto	i1l2015
u196_20:
	goto	i1l171
	
i1l170:	
	line	59
	
i1l171:	
	return
	opt stack 0
GLOBAL	__end_of_USART_WriteString
	__end_of_USART_WriteString:
	signat	_USART_WriteString,4216
	global	_USART_WriteChar

;; *************** function _USART_WriteChar *****************
;; Defined at:
;;		line 44 in file "C:\Users\filip\programs\FuzzySI\firmware - Copia\usart.c"
;; Parameters:    Size  Location     Type
;;  byte            1    wreg     unsigned char 
;; Auto vars:     Size  Location     Type
;;  byte            1    0[COMMON] unsigned char 
;; Return value:  Size  Location     Type
;;		None               void
;; Registers used:
;;		wreg
;; Tracked objects:
;;		On entry : 0/0
;;		On exit  : 0/0
;;		Unchanged: 0/0
;; Data sizes:     COMMON   BANK0   BANK1   BANK3   BANK2
;;      Params:         0       0       0       0       0
;;      Locals:         1       0       0       0       0
;;      Temps:          0       0       0       0       0
;;      Totals:         1       0       0       0       0
;;Total ram usage:        1 bytes
;; Hardware stack levels used:    1
;; This function calls:
;;		Nothing
;; This function is called by:
;;		_ISR
;;		_USART_WriteString
;; This function uses a non-reentrant model
;;
psect	text31,local,class=CODE,delta=2,merge=1
	line	44
global __ptext31
__ptext31:	;psect for function _USART_WriteChar
psect	text31
	file	"C:\Users\filip\programs\FuzzySI\firmware - Copia\usart.c"
	line	44
	global	__size_of_USART_WriteChar
	__size_of_USART_WriteChar	equ	__end_of_USART_WriteChar-_USART_WriteChar
	
_USART_WriteChar:	
;incstack = 0
	opt	stack 4
; Regs used in _USART_WriteChar: [wreg]
;USART_WriteChar@byte stored from wreg
	movwf	(USART_WriteChar@byte)
	line	46
	
i1l1979:	
;usart.c: 46: while(!PIR1bits.TXIF);
	goto	i1l162
	
i1l163:	
	
i1l162:	
	bcf	status, 5	;RP0=0, select bank0
	bcf	status, 6	;RP1=0, select bank0
	btfss	(12),4	;volatile
	goto	u184_21
	goto	u184_20
u184_21:
	goto	i1l162
u184_20:
	goto	i1l1981
	
i1l164:	
	line	47
	
i1l1981:	
;usart.c: 47: TXREG = byte;
	movf	(USART_WriteChar@byte),w
	movwf	(25)	;volatile
	line	48
	
i1l165:	
	return
	opt stack 0
GLOBAL	__end_of_USART_WriteChar
	__end_of_USART_WriteChar:
	signat	_USART_WriteChar,4216
global	___latbits
___latbits	equ	2
	global	btemp
	btemp set 07Eh

	DABS	1,126,2	;btemp
	global	wtemp
	global	wtemp0
	wtemp set btemp
	wtemp0 set btemp
	global	wtemp1
	wtemp1 set btemp+2
	global	wtemp2
	wtemp2 set btemp+4
	global	wtemp3
	wtemp3 set btemp+6
	global	wtemp4
	wtemp4 set btemp+8
	global	wtemp5
	wtemp5 set btemp+10
	global	wtemp6
	wtemp6 set btemp+1
	global	ttemp
	global	ttemp0
	ttemp set btemp
	ttemp0 set btemp
	global	ttemp1
	ttemp1 set btemp+3
	global	ttemp2
	ttemp2 set btemp+6
	global	ttemp3
	ttemp3 set btemp+9
	global	ttemp4
	ttemp4 set btemp+1
	global	ltemp
	global	ltemp0
	ltemp set btemp
	ltemp0 set btemp
	global	ltemp1
	ltemp1 set btemp+4
	global	ltemp2
	ltemp2 set btemp+8
	global	ltemp3
	ltemp3 set btemp+2
	end
