opt subtitle "Microchip Technology Omniscient Code Generator (Lite mode) build 59893"

opt pagewidth 120

	opt lm

	processor	16F877A
clrc	macro
	bcf	3,0
	endm
clrz	macro
	bcf	3,2
	endm
setc	macro
	bsf	3,0
	endm
setz	macro
	bsf	3,2
	endm
skipc	macro
	btfss	3,0
	endm
skipz	macro
	btfss	3,2
	endm
skipnc	macro
	btfsc	3,0
	endm
skipnz	macro
	btfsc	3,2
	endm
indf	equ	0
indf0	equ	0
pc	equ	2
pcl	equ	2
status	equ	3
fsr	equ	4
fsr0	equ	4
c	equ	1
z	equ	0
pclath	equ	10
# 49 "C:\Program Files (x86)\Microchip\xc8\v1.33\include\pic16f877a.h"
INDF equ 00h ;# 
# 55 "C:\Program Files (x86)\Microchip\xc8\v1.33\include\pic16f877a.h"
TMR0 equ 01h ;# 
# 61 "C:\Program Files (x86)\Microchip\xc8\v1.33\include\pic16f877a.h"
PCL equ 02h ;# 
# 67 "C:\Program Files (x86)\Microchip\xc8\v1.33\include\pic16f877a.h"
STATUS equ 03h ;# 
# 154 "C:\Program Files (x86)\Microchip\xc8\v1.33\include\pic16f877a.h"
FSR equ 04h ;# 
# 160 "C:\Program Files (x86)\Microchip\xc8\v1.33\include\pic16f877a.h"
PORTA equ 05h ;# 
# 209 "C:\Program Files (x86)\Microchip\xc8\v1.33\include\pic16f877a.h"
PORTB equ 06h ;# 
# 270 "C:\Program Files (x86)\Microchip\xc8\v1.33\include\pic16f877a.h"
PORTC equ 07h ;# 
# 331 "C:\Program Files (x86)\Microchip\xc8\v1.33\include\pic16f877a.h"
PORTD equ 08h ;# 
# 392 "C:\Program Files (x86)\Microchip\xc8\v1.33\include\pic16f877a.h"
PORTE equ 09h ;# 
# 423 "C:\Program Files (x86)\Microchip\xc8\v1.33\include\pic16f877a.h"
PCLATH equ 0Ah ;# 
# 442 "C:\Program Files (x86)\Microchip\xc8\v1.33\include\pic16f877a.h"
INTCON equ 0Bh ;# 
# 519 "C:\Program Files (x86)\Microchip\xc8\v1.33\include\pic16f877a.h"
PIR1 equ 0Ch ;# 
# 580 "C:\Program Files (x86)\Microchip\xc8\v1.33\include\pic16f877a.h"
PIR2 equ 0Dh ;# 
# 619 "C:\Program Files (x86)\Microchip\xc8\v1.33\include\pic16f877a.h"
TMR1 equ 0Eh ;# 
# 625 "C:\Program Files (x86)\Microchip\xc8\v1.33\include\pic16f877a.h"
TMR1L equ 0Eh ;# 
# 631 "C:\Program Files (x86)\Microchip\xc8\v1.33\include\pic16f877a.h"
TMR1H equ 0Fh ;# 
# 637 "C:\Program Files (x86)\Microchip\xc8\v1.33\include\pic16f877a.h"
T1CON equ 010h ;# 
# 711 "C:\Program Files (x86)\Microchip\xc8\v1.33\include\pic16f877a.h"
TMR2 equ 011h ;# 
# 717 "C:\Program Files (x86)\Microchip\xc8\v1.33\include\pic16f877a.h"
T2CON equ 012h ;# 
# 787 "C:\Program Files (x86)\Microchip\xc8\v1.33\include\pic16f877a.h"
SSPBUF equ 013h ;# 
# 793 "C:\Program Files (x86)\Microchip\xc8\v1.33\include\pic16f877a.h"
SSPCON equ 014h ;# 
# 862 "C:\Program Files (x86)\Microchip\xc8\v1.33\include\pic16f877a.h"
CCPR1 equ 015h ;# 
# 868 "C:\Program Files (x86)\Microchip\xc8\v1.33\include\pic16f877a.h"
CCPR1L equ 015h ;# 
# 874 "C:\Program Files (x86)\Microchip\xc8\v1.33\include\pic16f877a.h"
CCPR1H equ 016h ;# 
# 880 "C:\Program Files (x86)\Microchip\xc8\v1.33\include\pic16f877a.h"
CCP1CON equ 017h ;# 
# 937 "C:\Program Files (x86)\Microchip\xc8\v1.33\include\pic16f877a.h"
RCSTA equ 018h ;# 
# 1031 "C:\Program Files (x86)\Microchip\xc8\v1.33\include\pic16f877a.h"
TXREG equ 019h ;# 
# 1037 "C:\Program Files (x86)\Microchip\xc8\v1.33\include\pic16f877a.h"
RCREG equ 01Ah ;# 
# 1043 "C:\Program Files (x86)\Microchip\xc8\v1.33\include\pic16f877a.h"
CCPR2 equ 01Bh ;# 
# 1049 "C:\Program Files (x86)\Microchip\xc8\v1.33\include\pic16f877a.h"
CCPR2L equ 01Bh ;# 
# 1055 "C:\Program Files (x86)\Microchip\xc8\v1.33\include\pic16f877a.h"
CCPR2H equ 01Ch ;# 
# 1061 "C:\Program Files (x86)\Microchip\xc8\v1.33\include\pic16f877a.h"
CCP2CON equ 01Dh ;# 
# 1118 "C:\Program Files (x86)\Microchip\xc8\v1.33\include\pic16f877a.h"
ADRESH equ 01Eh ;# 
# 1124 "C:\Program Files (x86)\Microchip\xc8\v1.33\include\pic16f877a.h"
ADCON0 equ 01Fh ;# 
# 1219 "C:\Program Files (x86)\Microchip\xc8\v1.33\include\pic16f877a.h"
OPTION_REG equ 081h ;# 
# 1288 "C:\Program Files (x86)\Microchip\xc8\v1.33\include\pic16f877a.h"
TRISA equ 085h ;# 
# 1337 "C:\Program Files (x86)\Microchip\xc8\v1.33\include\pic16f877a.h"
TRISB equ 086h ;# 
# 1398 "C:\Program Files (x86)\Microchip\xc8\v1.33\include\pic16f877a.h"
TRISC equ 087h ;# 
# 1459 "C:\Program Files (x86)\Microchip\xc8\v1.33\include\pic16f877a.h"
TRISD equ 088h ;# 
# 1520 "C:\Program Files (x86)\Microchip\xc8\v1.33\include\pic16f877a.h"
TRISE equ 089h ;# 
# 1576 "C:\Program Files (x86)\Microchip\xc8\v1.33\include\pic16f877a.h"
PIE1 equ 08Ch ;# 
# 1637 "C:\Program Files (x86)\Microchip\xc8\v1.33\include\pic16f877a.h"
PIE2 equ 08Dh ;# 
# 1676 "C:\Program Files (x86)\Microchip\xc8\v1.33\include\pic16f877a.h"
PCON equ 08Eh ;# 
# 1709 "C:\Program Files (x86)\Microchip\xc8\v1.33\include\pic16f877a.h"
SSPCON2 equ 091h ;# 
# 1770 "C:\Program Files (x86)\Microchip\xc8\v1.33\include\pic16f877a.h"
PR2 equ 092h ;# 
# 1776 "C:\Program Files (x86)\Microchip\xc8\v1.33\include\pic16f877a.h"
SSPADD equ 093h ;# 
# 1782 "C:\Program Files (x86)\Microchip\xc8\v1.33\include\pic16f877a.h"
SSPSTAT equ 094h ;# 
# 1950 "C:\Program Files (x86)\Microchip\xc8\v1.33\include\pic16f877a.h"
TXSTA equ 098h ;# 
# 2030 "C:\Program Files (x86)\Microchip\xc8\v1.33\include\pic16f877a.h"
SPBRG equ 099h ;# 
# 2036 "C:\Program Files (x86)\Microchip\xc8\v1.33\include\pic16f877a.h"
CMCON equ 09Ch ;# 
# 2105 "C:\Program Files (x86)\Microchip\xc8\v1.33\include\pic16f877a.h"
CVRCON equ 09Dh ;# 
# 2169 "C:\Program Files (x86)\Microchip\xc8\v1.33\include\pic16f877a.h"
ADRESL equ 09Eh ;# 
# 2175 "C:\Program Files (x86)\Microchip\xc8\v1.33\include\pic16f877a.h"
ADCON1 equ 09Fh ;# 
# 2233 "C:\Program Files (x86)\Microchip\xc8\v1.33\include\pic16f877a.h"
EEDATA equ 010Ch ;# 
# 2239 "C:\Program Files (x86)\Microchip\xc8\v1.33\include\pic16f877a.h"
EEADR equ 010Dh ;# 
# 2245 "C:\Program Files (x86)\Microchip\xc8\v1.33\include\pic16f877a.h"
EEDATH equ 010Eh ;# 
# 2251 "C:\Program Files (x86)\Microchip\xc8\v1.33\include\pic16f877a.h"
EEADRH equ 010Fh ;# 
# 2257 "C:\Program Files (x86)\Microchip\xc8\v1.33\include\pic16f877a.h"
EECON1 equ 018Ch ;# 
# 2301 "C:\Program Files (x86)\Microchip\xc8\v1.33\include\pic16f877a.h"
EECON2 equ 018Dh ;# 
# 49 "C:\Program Files (x86)\Microchip\xc8\v1.33\include\pic16f877a.h"
INDF equ 00h ;# 
# 55 "C:\Program Files (x86)\Microchip\xc8\v1.33\include\pic16f877a.h"
TMR0 equ 01h ;# 
# 61 "C:\Program Files (x86)\Microchip\xc8\v1.33\include\pic16f877a.h"
PCL equ 02h ;# 
# 67 "C:\Program Files (x86)\Microchip\xc8\v1.33\include\pic16f877a.h"
STATUS equ 03h ;# 
# 154 "C:\Program Files (x86)\Microchip\xc8\v1.33\include\pic16f877a.h"
FSR equ 04h ;# 
# 160 "C:\Program Files (x86)\Microchip\xc8\v1.33\include\pic16f877a.h"
PORTA equ 05h ;# 
# 209 "C:\Program Files (x86)\Microchip\xc8\v1.33\include\pic16f877a.h"
PORTB equ 06h ;# 
# 270 "C:\Program Files (x86)\Microchip\xc8\v1.33\include\pic16f877a.h"
PORTC equ 07h ;# 
# 331 "C:\Program Files (x86)\Microchip\xc8\v1.33\include\pic16f877a.h"
PORTD equ 08h ;# 
# 392 "C:\Program Files (x86)\Microchip\xc8\v1.33\include\pic16f877a.h"
PORTE equ 09h ;# 
# 423 "C:\Program Files (x86)\Microchip\xc8\v1.33\include\pic16f877a.h"
PCLATH equ 0Ah ;# 
# 442 "C:\Program Files (x86)\Microchip\xc8\v1.33\include\pic16f877a.h"
INTCON equ 0Bh ;# 
# 519 "C:\Program Files (x86)\Microchip\xc8\v1.33\include\pic16f877a.h"
PIR1 equ 0Ch ;# 
# 580 "C:\Program Files (x86)\Microchip\xc8\v1.33\include\pic16f877a.h"
PIR2 equ 0Dh ;# 
# 619 "C:\Program Files (x86)\Microchip\xc8\v1.33\include\pic16f877a.h"
TMR1 equ 0Eh ;# 
# 625 "C:\Program Files (x86)\Microchip\xc8\v1.33\include\pic16f877a.h"
TMR1L equ 0Eh ;# 
# 631 "C:\Program Files (x86)\Microchip\xc8\v1.33\include\pic16f877a.h"
TMR1H equ 0Fh ;# 
# 637 "C:\Program Files (x86)\Microchip\xc8\v1.33\include\pic16f877a.h"
T1CON equ 010h ;# 
# 711 "C:\Program Files (x86)\Microchip\xc8\v1.33\include\pic16f877a.h"
TMR2 equ 011h ;# 
# 717 "C:\Program Files (x86)\Microchip\xc8\v1.33\include\pic16f877a.h"
T2CON equ 012h ;# 
# 787 "C:\Program Files (x86)\Microchip\xc8\v1.33\include\pic16f877a.h"
SSPBUF equ 013h ;# 
# 793 "C:\Program Files (x86)\Microchip\xc8\v1.33\include\pic16f877a.h"
SSPCON equ 014h ;# 
# 862 "C:\Program Files (x86)\Microchip\xc8\v1.33\include\pic16f877a.h"
CCPR1 equ 015h ;# 
# 868 "C:\Program Files (x86)\Microchip\xc8\v1.33\include\pic16f877a.h"
CCPR1L equ 015h ;# 
# 874 "C:\Program Files (x86)\Microchip\xc8\v1.33\include\pic16f877a.h"
CCPR1H equ 016h ;# 
# 880 "C:\Program Files (x86)\Microchip\xc8\v1.33\include\pic16f877a.h"
CCP1CON equ 017h ;# 
# 937 "C:\Program Files (x86)\Microchip\xc8\v1.33\include\pic16f877a.h"
RCSTA equ 018h ;# 
# 1031 "C:\Program Files (x86)\Microchip\xc8\v1.33\include\pic16f877a.h"
TXREG equ 019h ;# 
# 1037 "C:\Program Files (x86)\Microchip\xc8\v1.33\include\pic16f877a.h"
RCREG equ 01Ah ;# 
# 1043 "C:\Program Files (x86)\Microchip\xc8\v1.33\include\pic16f877a.h"
CCPR2 equ 01Bh ;# 
# 1049 "C:\Program Files (x86)\Microchip\xc8\v1.33\include\pic16f877a.h"
CCPR2L equ 01Bh ;# 
# 1055 "C:\Program Files (x86)\Microchip\xc8\v1.33\include\pic16f877a.h"
CCPR2H equ 01Ch ;# 
# 1061 "C:\Program Files (x86)\Microchip\xc8\v1.33\include\pic16f877a.h"
CCP2CON equ 01Dh ;# 
# 1118 "C:\Program Files (x86)\Microchip\xc8\v1.33\include\pic16f877a.h"
ADRESH equ 01Eh ;# 
# 1124 "C:\Program Files (x86)\Microchip\xc8\v1.33\include\pic16f877a.h"
ADCON0 equ 01Fh ;# 
# 1219 "C:\Program Files (x86)\Microchip\xc8\v1.33\include\pic16f877a.h"
OPTION_REG equ 081h ;# 
# 1288 "C:\Program Files (x86)\Microchip\xc8\v1.33\include\pic16f877a.h"
TRISA equ 085h ;# 
# 1337 "C:\Program Files (x86)\Microchip\xc8\v1.33\include\pic16f877a.h"
TRISB equ 086h ;# 
# 1398 "C:\Program Files (x86)\Microchip\xc8\v1.33\include\pic16f877a.h"
TRISC equ 087h ;# 
# 1459 "C:\Program Files (x86)\Microchip\xc8\v1.33\include\pic16f877a.h"
TRISD equ 088h ;# 
# 1520 "C:\Program Files (x86)\Microchip\xc8\v1.33\include\pic16f877a.h"
TRISE equ 089h ;# 
# 1576 "C:\Program Files (x86)\Microchip\xc8\v1.33\include\pic16f877a.h"
PIE1 equ 08Ch ;# 
# 1637 "C:\Program Files (x86)\Microchip\xc8\v1.33\include\pic16f877a.h"
PIE2 equ 08Dh ;# 
# 1676 "C:\Program Files (x86)\Microchip\xc8\v1.33\include\pic16f877a.h"
PCON equ 08Eh ;# 
# 1709 "C:\Program Files (x86)\Microchip\xc8\v1.33\include\pic16f877a.h"
SSPCON2 equ 091h ;# 
# 1770 "C:\Program Files (x86)\Microchip\xc8\v1.33\include\pic16f877a.h"
PR2 equ 092h ;# 
# 1776 "C:\Program Files (x86)\Microchip\xc8\v1.33\include\pic16f877a.h"
SSPADD equ 093h ;# 
# 1782 "C:\Program Files (x86)\Microchip\xc8\v1.33\include\pic16f877a.h"
SSPSTAT equ 094h ;# 
# 1950 "C:\Program Files (x86)\Microchip\xc8\v1.33\include\pic16f877a.h"
TXSTA equ 098h ;# 
# 2030 "C:\Program Files (x86)\Microchip\xc8\v1.33\include\pic16f877a.h"
SPBRG equ 099h ;# 
# 2036 "C:\Program Files (x86)\Microchip\xc8\v1.33\include\pic16f877a.h"
CMCON equ 09Ch ;# 
# 2105 "C:\Program Files (x86)\Microchip\xc8\v1.33\include\pic16f877a.h"
CVRCON equ 09Dh ;# 
# 2169 "C:\Program Files (x86)\Microchip\xc8\v1.33\include\pic16f877a.h"
ADRESL equ 09Eh ;# 
# 2175 "C:\Program Files (x86)\Microchip\xc8\v1.33\include\pic16f877a.h"
ADCON1 equ 09Fh ;# 
# 2233 "C:\Program Files (x86)\Microchip\xc8\v1.33\include\pic16f877a.h"
EEDATA equ 010Ch ;# 
# 2239 "C:\Program Files (x86)\Microchip\xc8\v1.33\include\pic16f877a.h"
EEADR equ 010Dh ;# 
# 2245 "C:\Program Files (x86)\Microchip\xc8\v1.33\include\pic16f877a.h"
EEDATH equ 010Eh ;# 
# 2251 "C:\Program Files (x86)\Microchip\xc8\v1.33\include\pic16f877a.h"
EEADRH equ 010Fh ;# 
# 2257 "C:\Program Files (x86)\Microchip\xc8\v1.33\include\pic16f877a.h"
EECON1 equ 018Ch ;# 
# 2301 "C:\Program Files (x86)\Microchip\xc8\v1.33\include\pic16f877a.h"
EECON2 equ 018Dh ;# 
# 49 "C:\Program Files (x86)\Microchip\xc8\v1.33\include\pic16f877a.h"
INDF equ 00h ;# 
# 55 "C:\Program Files (x86)\Microchip\xc8\v1.33\include\pic16f877a.h"
TMR0 equ 01h ;# 
# 61 "C:\Program Files (x86)\Microchip\xc8\v1.33\include\pic16f877a.h"
PCL equ 02h ;# 
# 67 "C:\Program Files (x86)\Microchip\xc8\v1.33\include\pic16f877a.h"
STATUS equ 03h ;# 
# 154 "C:\Program Files (x86)\Microchip\xc8\v1.33\include\pic16f877a.h"
FSR equ 04h ;# 
# 160 "C:\Program Files (x86)\Microchip\xc8\v1.33\include\pic16f877a.h"
PORTA equ 05h ;# 
# 209 "C:\Program Files (x86)\Microchip\xc8\v1.33\include\pic16f877a.h"
PORTB equ 06h ;# 
# 270 "C:\Program Files (x86)\Microchip\xc8\v1.33\include\pic16f877a.h"
PORTC equ 07h ;# 
# 331 "C:\Program Files (x86)\Microchip\xc8\v1.33\include\pic16f877a.h"
PORTD equ 08h ;# 
# 392 "C:\Program Files (x86)\Microchip\xc8\v1.33\include\pic16f877a.h"
PORTE equ 09h ;# 
# 423 "C:\Program Files (x86)\Microchip\xc8\v1.33\include\pic16f877a.h"
PCLATH equ 0Ah ;# 
# 442 "C:\Program Files (x86)\Microchip\xc8\v1.33\include\pic16f877a.h"
INTCON equ 0Bh ;# 
# 519 "C:\Program Files (x86)\Microchip\xc8\v1.33\include\pic16f877a.h"
PIR1 equ 0Ch ;# 
# 580 "C:\Program Files (x86)\Microchip\xc8\v1.33\include\pic16f877a.h"
PIR2 equ 0Dh ;# 
# 619 "C:\Program Files (x86)\Microchip\xc8\v1.33\include\pic16f877a.h"
TMR1 equ 0Eh ;# 
# 625 "C:\Program Files (x86)\Microchip\xc8\v1.33\include\pic16f877a.h"
TMR1L equ 0Eh ;# 
# 631 "C:\Program Files (x86)\Microchip\xc8\v1.33\include\pic16f877a.h"
TMR1H equ 0Fh ;# 
# 637 "C:\Program Files (x86)\Microchip\xc8\v1.33\include\pic16f877a.h"
T1CON equ 010h ;# 
# 711 "C:\Program Files (x86)\Microchip\xc8\v1.33\include\pic16f877a.h"
TMR2 equ 011h ;# 
# 717 "C:\Program Files (x86)\Microchip\xc8\v1.33\include\pic16f877a.h"
T2CON equ 012h ;# 
# 787 "C:\Program Files (x86)\Microchip\xc8\v1.33\include\pic16f877a.h"
SSPBUF equ 013h ;# 
# 793 "C:\Program Files (x86)\Microchip\xc8\v1.33\include\pic16f877a.h"
SSPCON equ 014h ;# 
# 862 "C:\Program Files (x86)\Microchip\xc8\v1.33\include\pic16f877a.h"
CCPR1 equ 015h ;# 
# 868 "C:\Program Files (x86)\Microchip\xc8\v1.33\include\pic16f877a.h"
CCPR1L equ 015h ;# 
# 874 "C:\Program Files (x86)\Microchip\xc8\v1.33\include\pic16f877a.h"
CCPR1H equ 016h ;# 
# 880 "C:\Program Files (x86)\Microchip\xc8\v1.33\include\pic16f877a.h"
CCP1CON equ 017h ;# 
# 937 "C:\Program Files (x86)\Microchip\xc8\v1.33\include\pic16f877a.h"
RCSTA equ 018h ;# 
# 1031 "C:\Program Files (x86)\Microchip\xc8\v1.33\include\pic16f877a.h"
TXREG equ 019h ;# 
# 1037 "C:\Program Files (x86)\Microchip\xc8\v1.33\include\pic16f877a.h"
RCREG equ 01Ah ;# 
# 1043 "C:\Program Files (x86)\Microchip\xc8\v1.33\include\pic16f877a.h"
CCPR2 equ 01Bh ;# 
# 1049 "C:\Program Files (x86)\Microchip\xc8\v1.33\include\pic16f877a.h"
CCPR2L equ 01Bh ;# 
# 1055 "C:\Program Files (x86)\Microchip\xc8\v1.33\include\pic16f877a.h"
CCPR2H equ 01Ch ;# 
# 1061 "C:\Program Files (x86)\Microchip\xc8\v1.33\include\pic16f877a.h"
CCP2CON equ 01Dh ;# 
# 1118 "C:\Program Files (x86)\Microchip\xc8\v1.33\include\pic16f877a.h"
ADRESH equ 01Eh ;# 
# 1124 "C:\Program Files (x86)\Microchip\xc8\v1.33\include\pic16f877a.h"
ADCON0 equ 01Fh ;# 
# 1219 "C:\Program Files (x86)\Microchip\xc8\v1.33\include\pic16f877a.h"
OPTION_REG equ 081h ;# 
# 1288 "C:\Program Files (x86)\Microchip\xc8\v1.33\include\pic16f877a.h"
TRISA equ 085h ;# 
# 1337 "C:\Program Files (x86)\Microchip\xc8\v1.33\include\pic16f877a.h"
TRISB equ 086h ;# 
# 1398 "C:\Program Files (x86)\Microchip\xc8\v1.33\include\pic16f877a.h"
TRISC equ 087h ;# 
# 1459 "C:\Program Files (x86)\Microchip\xc8\v1.33\include\pic16f877a.h"
TRISD equ 088h ;# 
# 1520 "C:\Program Files (x86)\Microchip\xc8\v1.33\include\pic16f877a.h"
TRISE equ 089h ;# 
# 1576 "C:\Program Files (x86)\Microchip\xc8\v1.33\include\pic16f877a.h"
PIE1 equ 08Ch ;# 
# 1637 "C:\Program Files (x86)\Microchip\xc8\v1.33\include\pic16f877a.h"
PIE2 equ 08Dh ;# 
# 1676 "C:\Program Files (x86)\Microchip\xc8\v1.33\include\pic16f877a.h"
PCON equ 08Eh ;# 
# 1709 "C:\Program Files (x86)\Microchip\xc8\v1.33\include\pic16f877a.h"
SSPCON2 equ 091h ;# 
# 1770 "C:\Program Files (x86)\Microchip\xc8\v1.33\include\pic16f877a.h"
PR2 equ 092h ;# 
# 1776 "C:\Program Files (x86)\Microchip\xc8\v1.33\include\pic16f877a.h"
SSPADD equ 093h ;# 
# 1782 "C:\Program Files (x86)\Microchip\xc8\v1.33\include\pic16f877a.h"
SSPSTAT equ 094h ;# 
# 1950 "C:\Program Files (x86)\Microchip\xc8\v1.33\include\pic16f877a.h"
TXSTA equ 098h ;# 
# 2030 "C:\Program Files (x86)\Microchip\xc8\v1.33\include\pic16f877a.h"
SPBRG equ 099h ;# 
# 2036 "C:\Program Files (x86)\Microchip\xc8\v1.33\include\pic16f877a.h"
CMCON equ 09Ch ;# 
# 2105 "C:\Program Files (x86)\Microchip\xc8\v1.33\include\pic16f877a.h"
CVRCON equ 09Dh ;# 
# 2169 "C:\Program Files (x86)\Microchip\xc8\v1.33\include\pic16f877a.h"
ADRESL equ 09Eh ;# 
# 2175 "C:\Program Files (x86)\Microchip\xc8\v1.33\include\pic16f877a.h"
ADCON1 equ 09Fh ;# 
# 2233 "C:\Program Files (x86)\Microchip\xc8\v1.33\include\pic16f877a.h"
EEDATA equ 010Ch ;# 
# 2239 "C:\Program Files (x86)\Microchip\xc8\v1.33\include\pic16f877a.h"
EEADR equ 010Dh ;# 
# 2245 "C:\Program Files (x86)\Microchip\xc8\v1.33\include\pic16f877a.h"
EEDATH equ 010Eh ;# 
# 2251 "C:\Program Files (x86)\Microchip\xc8\v1.33\include\pic16f877a.h"
EEADRH equ 010Fh ;# 
# 2257 "C:\Program Files (x86)\Microchip\xc8\v1.33\include\pic16f877a.h"
EECON1 equ 018Ch ;# 
# 2301 "C:\Program Files (x86)\Microchip\xc8\v1.33\include\pic16f877a.h"
EECON2 equ 018Dh ;# 
# 49 "C:\Program Files (x86)\Microchip\xc8\v1.33\include\pic16f877a.h"
INDF equ 00h ;# 
# 55 "C:\Program Files (x86)\Microchip\xc8\v1.33\include\pic16f877a.h"
TMR0 equ 01h ;# 
# 61 "C:\Program Files (x86)\Microchip\xc8\v1.33\include\pic16f877a.h"
PCL equ 02h ;# 
# 67 "C:\Program Files (x86)\Microchip\xc8\v1.33\include\pic16f877a.h"
STATUS equ 03h ;# 
# 154 "C:\Program Files (x86)\Microchip\xc8\v1.33\include\pic16f877a.h"
FSR equ 04h ;# 
# 160 "C:\Program Files (x86)\Microchip\xc8\v1.33\include\pic16f877a.h"
PORTA equ 05h ;# 
# 209 "C:\Program Files (x86)\Microchip\xc8\v1.33\include\pic16f877a.h"
PORTB equ 06h ;# 
# 270 "C:\Program Files (x86)\Microchip\xc8\v1.33\include\pic16f877a.h"
PORTC equ 07h ;# 
# 331 "C:\Program Files (x86)\Microchip\xc8\v1.33\include\pic16f877a.h"
PORTD equ 08h ;# 
# 392 "C:\Program Files (x86)\Microchip\xc8\v1.33\include\pic16f877a.h"
PORTE equ 09h ;# 
# 423 "C:\Program Files (x86)\Microchip\xc8\v1.33\include\pic16f877a.h"
PCLATH equ 0Ah ;# 
# 442 "C:\Program Files (x86)\Microchip\xc8\v1.33\include\pic16f877a.h"
INTCON equ 0Bh ;# 
# 519 "C:\Program Files (x86)\Microchip\xc8\v1.33\include\pic16f877a.h"
PIR1 equ 0Ch ;# 
# 580 "C:\Program Files (x86)\Microchip\xc8\v1.33\include\pic16f877a.h"
PIR2 equ 0Dh ;# 
# 619 "C:\Program Files (x86)\Microchip\xc8\v1.33\include\pic16f877a.h"
TMR1 equ 0Eh ;# 
# 625 "C:\Program Files (x86)\Microchip\xc8\v1.33\include\pic16f877a.h"
TMR1L equ 0Eh ;# 
# 631 "C:\Program Files (x86)\Microchip\xc8\v1.33\include\pic16f877a.h"
TMR1H equ 0Fh ;# 
# 637 "C:\Program Files (x86)\Microchip\xc8\v1.33\include\pic16f877a.h"
T1CON equ 010h ;# 
# 711 "C:\Program Files (x86)\Microchip\xc8\v1.33\include\pic16f877a.h"
TMR2 equ 011h ;# 
# 717 "C:\Program Files (x86)\Microchip\xc8\v1.33\include\pic16f877a.h"
T2CON equ 012h ;# 
# 787 "C:\Program Files (x86)\Microchip\xc8\v1.33\include\pic16f877a.h"
SSPBUF equ 013h ;# 
# 793 "C:\Program Files (x86)\Microchip\xc8\v1.33\include\pic16f877a.h"
SSPCON equ 014h ;# 
# 862 "C:\Program Files (x86)\Microchip\xc8\v1.33\include\pic16f877a.h"
CCPR1 equ 015h ;# 
# 868 "C:\Program Files (x86)\Microchip\xc8\v1.33\include\pic16f877a.h"
CCPR1L equ 015h ;# 
# 874 "C:\Program Files (x86)\Microchip\xc8\v1.33\include\pic16f877a.h"
CCPR1H equ 016h ;# 
# 880 "C:\Program Files (x86)\Microchip\xc8\v1.33\include\pic16f877a.h"
CCP1CON equ 017h ;# 
# 937 "C:\Program Files (x86)\Microchip\xc8\v1.33\include\pic16f877a.h"
RCSTA equ 018h ;# 
# 1031 "C:\Program Files (x86)\Microchip\xc8\v1.33\include\pic16f877a.h"
TXREG equ 019h ;# 
# 1037 "C:\Program Files (x86)\Microchip\xc8\v1.33\include\pic16f877a.h"
RCREG equ 01Ah ;# 
# 1043 "C:\Program Files (x86)\Microchip\xc8\v1.33\include\pic16f877a.h"
CCPR2 equ 01Bh ;# 
# 1049 "C:\Program Files (x86)\Microchip\xc8\v1.33\include\pic16f877a.h"
CCPR2L equ 01Bh ;# 
# 1055 "C:\Program Files (x86)\Microchip\xc8\v1.33\include\pic16f877a.h"
CCPR2H equ 01Ch ;# 
# 1061 "C:\Program Files (x86)\Microchip\xc8\v1.33\include\pic16f877a.h"
CCP2CON equ 01Dh ;# 
# 1118 "C:\Program Files (x86)\Microchip\xc8\v1.33\include\pic16f877a.h"
ADRESH equ 01Eh ;# 
# 1124 "C:\Program Files (x86)\Microchip\xc8\v1.33\include\pic16f877a.h"
ADCON0 equ 01Fh ;# 
# 1219 "C:\Program Files (x86)\Microchip\xc8\v1.33\include\pic16f877a.h"
OPTION_REG equ 081h ;# 
# 1288 "C:\Program Files (x86)\Microchip\xc8\v1.33\include\pic16f877a.h"
TRISA equ 085h ;# 
# 1337 "C:\Program Files (x86)\Microchip\xc8\v1.33\include\pic16f877a.h"
TRISB equ 086h ;# 
# 1398 "C:\Program Files (x86)\Microchip\xc8\v1.33\include\pic16f877a.h"
TRISC equ 087h ;# 
# 1459 "C:\Program Files (x86)\Microchip\xc8\v1.33\include\pic16f877a.h"
TRISD equ 088h ;# 
# 1520 "C:\Program Files (x86)\Microchip\xc8\v1.33\include\pic16f877a.h"
TRISE equ 089h ;# 
# 1576 "C:\Program Files (x86)\Microchip\xc8\v1.33\include\pic16f877a.h"
PIE1 equ 08Ch ;# 
# 1637 "C:\Program Files (x86)\Microchip\xc8\v1.33\include\pic16f877a.h"
PIE2 equ 08Dh ;# 
# 1676 "C:\Program Files (x86)\Microchip\xc8\v1.33\include\pic16f877a.h"
PCON equ 08Eh ;# 
# 1709 "C:\Program Files (x86)\Microchip\xc8\v1.33\include\pic16f877a.h"
SSPCON2 equ 091h ;# 
# 1770 "C:\Program Files (x86)\Microchip\xc8\v1.33\include\pic16f877a.h"
PR2 equ 092h ;# 
# 1776 "C:\Program Files (x86)\Microchip\xc8\v1.33\include\pic16f877a.h"
SSPADD equ 093h ;# 
# 1782 "C:\Program Files (x86)\Microchip\xc8\v1.33\include\pic16f877a.h"
SSPSTAT equ 094h ;# 
# 1950 "C:\Program Files (x86)\Microchip\xc8\v1.33\include\pic16f877a.h"
TXSTA equ 098h ;# 
# 2030 "C:\Program Files (x86)\Microchip\xc8\v1.33\include\pic16f877a.h"
SPBRG equ 099h ;# 
# 2036 "C:\Program Files (x86)\Microchip\xc8\v1.33\include\pic16f877a.h"
CMCON equ 09Ch ;# 
# 2105 "C:\Program Files (x86)\Microchip\xc8\v1.33\include\pic16f877a.h"
CVRCON equ 09Dh ;# 
# 2169 "C:\Program Files (x86)\Microchip\xc8\v1.33\include\pic16f877a.h"
ADRESL equ 09Eh ;# 
# 2175 "C:\Program Files (x86)\Microchip\xc8\v1.33\include\pic16f877a.h"
ADCON1 equ 09Fh ;# 
# 2233 "C:\Program Files (x86)\Microchip\xc8\v1.33\include\pic16f877a.h"
EEDATA equ 010Ch ;# 
# 2239 "C:\Program Files (x86)\Microchip\xc8\v1.33\include\pic16f877a.h"
EEADR equ 010Dh ;# 
# 2245 "C:\Program Files (x86)\Microchip\xc8\v1.33\include\pic16f877a.h"
EEDATH equ 010Eh ;# 
# 2251 "C:\Program Files (x86)\Microchip\xc8\v1.33\include\pic16f877a.h"
EEADRH equ 010Fh ;# 
# 2257 "C:\Program Files (x86)\Microchip\xc8\v1.33\include\pic16f877a.h"
EECON1 equ 018Ch ;# 
# 2301 "C:\Program Files (x86)\Microchip\xc8\v1.33\include\pic16f877a.h"
EECON2 equ 018Dh ;# 
# 49 "C:\Program Files (x86)\Microchip\xc8\v1.33\include\pic16f877a.h"
INDF equ 00h ;# 
# 55 "C:\Program Files (x86)\Microchip\xc8\v1.33\include\pic16f877a.h"
TMR0 equ 01h ;# 
# 61 "C:\Program Files (x86)\Microchip\xc8\v1.33\include\pic16f877a.h"
PCL equ 02h ;# 
# 67 "C:\Program Files (x86)\Microchip\xc8\v1.33\include\pic16f877a.h"
STATUS equ 03h ;# 
# 154 "C:\Program Files (x86)\Microchip\xc8\v1.33\include\pic16f877a.h"
FSR equ 04h ;# 
# 160 "C:\Program Files (x86)\Microchip\xc8\v1.33\include\pic16f877a.h"
PORTA equ 05h ;# 
# 209 "C:\Program Files (x86)\Microchip\xc8\v1.33\include\pic16f877a.h"
PORTB equ 06h ;# 
# 270 "C:\Program Files (x86)\Microchip\xc8\v1.33\include\pic16f877a.h"
PORTC equ 07h ;# 
# 331 "C:\Program Files (x86)\Microchip\xc8\v1.33\include\pic16f877a.h"
PORTD equ 08h ;# 
# 392 "C:\Program Files (x86)\Microchip\xc8\v1.33\include\pic16f877a.h"
PORTE equ 09h ;# 
# 423 "C:\Program Files (x86)\Microchip\xc8\v1.33\include\pic16f877a.h"
PCLATH equ 0Ah ;# 
# 442 "C:\Program Files (x86)\Microchip\xc8\v1.33\include\pic16f877a.h"
INTCON equ 0Bh ;# 
# 519 "C:\Program Files (x86)\Microchip\xc8\v1.33\include\pic16f877a.h"
PIR1 equ 0Ch ;# 
# 580 "C:\Program Files (x86)\Microchip\xc8\v1.33\include\pic16f877a.h"
PIR2 equ 0Dh ;# 
# 619 "C:\Program Files (x86)\Microchip\xc8\v1.33\include\pic16f877a.h"
TMR1 equ 0Eh ;# 
# 625 "C:\Program Files (x86)\Microchip\xc8\v1.33\include\pic16f877a.h"
TMR1L equ 0Eh ;# 
# 631 "C:\Program Files (x86)\Microchip\xc8\v1.33\include\pic16f877a.h"
TMR1H equ 0Fh ;# 
# 637 "C:\Program Files (x86)\Microchip\xc8\v1.33\include\pic16f877a.h"
T1CON equ 010h ;# 
# 711 "C:\Program Files (x86)\Microchip\xc8\v1.33\include\pic16f877a.h"
TMR2 equ 011h ;# 
# 717 "C:\Program Files (x86)\Microchip\xc8\v1.33\include\pic16f877a.h"
T2CON equ 012h ;# 
# 787 "C:\Program Files (x86)\Microchip\xc8\v1.33\include\pic16f877a.h"
SSPBUF equ 013h ;# 
# 793 "C:\Program Files (x86)\Microchip\xc8\v1.33\include\pic16f877a.h"
SSPCON equ 014h ;# 
# 862 "C:\Program Files (x86)\Microchip\xc8\v1.33\include\pic16f877a.h"
CCPR1 equ 015h ;# 
# 868 "C:\Program Files (x86)\Microchip\xc8\v1.33\include\pic16f877a.h"
CCPR1L equ 015h ;# 
# 874 "C:\Program Files (x86)\Microchip\xc8\v1.33\include\pic16f877a.h"
CCPR1H equ 016h ;# 
# 880 "C:\Program Files (x86)\Microchip\xc8\v1.33\include\pic16f877a.h"
CCP1CON equ 017h ;# 
# 937 "C:\Program Files (x86)\Microchip\xc8\v1.33\include\pic16f877a.h"
RCSTA equ 018h ;# 
# 1031 "C:\Program Files (x86)\Microchip\xc8\v1.33\include\pic16f877a.h"
TXREG equ 019h ;# 
# 1037 "C:\Program Files (x86)\Microchip\xc8\v1.33\include\pic16f877a.h"
RCREG equ 01Ah ;# 
# 1043 "C:\Program Files (x86)\Microchip\xc8\v1.33\include\pic16f877a.h"
CCPR2 equ 01Bh ;# 
# 1049 "C:\Program Files (x86)\Microchip\xc8\v1.33\include\pic16f877a.h"
CCPR2L equ 01Bh ;# 
# 1055 "C:\Program Files (x86)\Microchip\xc8\v1.33\include\pic16f877a.h"
CCPR2H equ 01Ch ;# 
# 1061 "C:\Program Files (x86)\Microchip\xc8\v1.33\include\pic16f877a.h"
CCP2CON equ 01Dh ;# 
# 1118 "C:\Program Files (x86)\Microchip\xc8\v1.33\include\pic16f877a.h"
ADRESH equ 01Eh ;# 
# 1124 "C:\Program Files (x86)\Microchip\xc8\v1.33\include\pic16f877a.h"
ADCON0 equ 01Fh ;# 
# 1219 "C:\Program Files (x86)\Microchip\xc8\v1.33\include\pic16f877a.h"
OPTION_REG equ 081h ;# 
# 1288 "C:\Program Files (x86)\Microchip\xc8\v1.33\include\pic16f877a.h"
TRISA equ 085h ;# 
# 1337 "C:\Program Files (x86)\Microchip\xc8\v1.33\include\pic16f877a.h"
TRISB equ 086h ;# 
# 1398 "C:\Program Files (x86)\Microchip\xc8\v1.33\include\pic16f877a.h"
TRISC equ 087h ;# 
# 1459 "C:\Program Files (x86)\Microchip\xc8\v1.33\include\pic16f877a.h"
TRISD equ 088h ;# 
# 1520 "C:\Program Files (x86)\Microchip\xc8\v1.33\include\pic16f877a.h"
TRISE equ 089h ;# 
# 1576 "C:\Program Files (x86)\Microchip\xc8\v1.33\include\pic16f877a.h"
PIE1 equ 08Ch ;# 
# 1637 "C:\Program Files (x86)\Microchip\xc8\v1.33\include\pic16f877a.h"
PIE2 equ 08Dh ;# 
# 1676 "C:\Program Files (x86)\Microchip\xc8\v1.33\include\pic16f877a.h"
PCON equ 08Eh ;# 
# 1709 "C:\Program Files (x86)\Microchip\xc8\v1.33\include\pic16f877a.h"
SSPCON2 equ 091h ;# 
# 1770 "C:\Program Files (x86)\Microchip\xc8\v1.33\include\pic16f877a.h"
PR2 equ 092h ;# 
# 1776 "C:\Program Files (x86)\Microchip\xc8\v1.33\include\pic16f877a.h"
SSPADD equ 093h ;# 
# 1782 "C:\Program Files (x86)\Microchip\xc8\v1.33\include\pic16f877a.h"
SSPSTAT equ 094h ;# 
# 1950 "C:\Program Files (x86)\Microchip\xc8\v1.33\include\pic16f877a.h"
TXSTA equ 098h ;# 
# 2030 "C:\Program Files (x86)\Microchip\xc8\v1.33\include\pic16f877a.h"
SPBRG equ 099h ;# 
# 2036 "C:\Program Files (x86)\Microchip\xc8\v1.33\include\pic16f877a.h"
CMCON equ 09Ch ;# 
# 2105 "C:\Program Files (x86)\Microchip\xc8\v1.33\include\pic16f877a.h"
CVRCON equ 09Dh ;# 
# 2169 "C:\Program Files (x86)\Microchip\xc8\v1.33\include\pic16f877a.h"
ADRESL equ 09Eh ;# 
# 2175 "C:\Program Files (x86)\Microchip\xc8\v1.33\include\pic16f877a.h"
ADCON1 equ 09Fh ;# 
# 2233 "C:\Program Files (x86)\Microchip\xc8\v1.33\include\pic16f877a.h"
EEDATA equ 010Ch ;# 
# 2239 "C:\Program Files (x86)\Microchip\xc8\v1.33\include\pic16f877a.h"
EEADR equ 010Dh ;# 
# 2245 "C:\Program Files (x86)\Microchip\xc8\v1.33\include\pic16f877a.h"
EEDATH equ 010Eh ;# 
# 2251 "C:\Program Files (x86)\Microchip\xc8\v1.33\include\pic16f877a.h"
EEADRH equ 010Fh ;# 
# 2257 "C:\Program Files (x86)\Microchip\xc8\v1.33\include\pic16f877a.h"
EECON1 equ 018Ch ;# 
# 2301 "C:\Program Files (x86)\Microchip\xc8\v1.33\include\pic16f877a.h"
EECON2 equ 018Dh ;# 
# 49 "C:\Program Files (x86)\Microchip\xc8\v1.33\include\pic16f877a.h"
INDF equ 00h ;# 
# 55 "C:\Program Files (x86)\Microchip\xc8\v1.33\include\pic16f877a.h"
TMR0 equ 01h ;# 
# 61 "C:\Program Files (x86)\Microchip\xc8\v1.33\include\pic16f877a.h"
PCL equ 02h ;# 
# 67 "C:\Program Files (x86)\Microchip\xc8\v1.33\include\pic16f877a.h"
STATUS equ 03h ;# 
# 154 "C:\Program Files (x86)\Microchip\xc8\v1.33\include\pic16f877a.h"
FSR equ 04h ;# 
# 160 "C:\Program Files (x86)\Microchip\xc8\v1.33\include\pic16f877a.h"
PORTA equ 05h ;# 
# 209 "C:\Program Files (x86)\Microchip\xc8\v1.33\include\pic16f877a.h"
PORTB equ 06h ;# 
# 270 "C:\Program Files (x86)\Microchip\xc8\v1.33\include\pic16f877a.h"
PORTC equ 07h ;# 
# 331 "C:\Program Files (x86)\Microchip\xc8\v1.33\include\pic16f877a.h"
PORTD equ 08h ;# 
# 392 "C:\Program Files (x86)\Microchip\xc8\v1.33\include\pic16f877a.h"
PORTE equ 09h ;# 
# 423 "C:\Program Files (x86)\Microchip\xc8\v1.33\include\pic16f877a.h"
PCLATH equ 0Ah ;# 
# 442 "C:\Program Files (x86)\Microchip\xc8\v1.33\include\pic16f877a.h"
INTCON equ 0Bh ;# 
# 519 "C:\Program Files (x86)\Microchip\xc8\v1.33\include\pic16f877a.h"
PIR1 equ 0Ch ;# 
# 580 "C:\Program Files (x86)\Microchip\xc8\v1.33\include\pic16f877a.h"
PIR2 equ 0Dh ;# 
# 619 "C:\Program Files (x86)\Microchip\xc8\v1.33\include\pic16f877a.h"
TMR1 equ 0Eh ;# 
# 625 "C:\Program Files (x86)\Microchip\xc8\v1.33\include\pic16f877a.h"
TMR1L equ 0Eh ;# 
# 631 "C:\Program Files (x86)\Microchip\xc8\v1.33\include\pic16f877a.h"
TMR1H equ 0Fh ;# 
# 637 "C:\Program Files (x86)\Microchip\xc8\v1.33\include\pic16f877a.h"
T1CON equ 010h ;# 
# 711 "C:\Program Files (x86)\Microchip\xc8\v1.33\include\pic16f877a.h"
TMR2 equ 011h ;# 
# 717 "C:\Program Files (x86)\Microchip\xc8\v1.33\include\pic16f877a.h"
T2CON equ 012h ;# 
# 787 "C:\Program Files (x86)\Microchip\xc8\v1.33\include\pic16f877a.h"
SSPBUF equ 013h ;# 
# 793 "C:\Program Files (x86)\Microchip\xc8\v1.33\include\pic16f877a.h"
SSPCON equ 014h ;# 
# 862 "C:\Program Files (x86)\Microchip\xc8\v1.33\include\pic16f877a.h"
CCPR1 equ 015h ;# 
# 868 "C:\Program Files (x86)\Microchip\xc8\v1.33\include\pic16f877a.h"
CCPR1L equ 015h ;# 
# 874 "C:\Program Files (x86)\Microchip\xc8\v1.33\include\pic16f877a.h"
CCPR1H equ 016h ;# 
# 880 "C:\Program Files (x86)\Microchip\xc8\v1.33\include\pic16f877a.h"
CCP1CON equ 017h ;# 
# 937 "C:\Program Files (x86)\Microchip\xc8\v1.33\include\pic16f877a.h"
RCSTA equ 018h ;# 
# 1031 "C:\Program Files (x86)\Microchip\xc8\v1.33\include\pic16f877a.h"
TXREG equ 019h ;# 
# 1037 "C:\Program Files (x86)\Microchip\xc8\v1.33\include\pic16f877a.h"
RCREG equ 01Ah ;# 
# 1043 "C:\Program Files (x86)\Microchip\xc8\v1.33\include\pic16f877a.h"
CCPR2 equ 01Bh ;# 
# 1049 "C:\Program Files (x86)\Microchip\xc8\v1.33\include\pic16f877a.h"
CCPR2L equ 01Bh ;# 
# 1055 "C:\Program Files (x86)\Microchip\xc8\v1.33\include\pic16f877a.h"
CCPR2H equ 01Ch ;# 
# 1061 "C:\Program Files (x86)\Microchip\xc8\v1.33\include\pic16f877a.h"
CCP2CON equ 01Dh ;# 
# 1118 "C:\Program Files (x86)\Microchip\xc8\v1.33\include\pic16f877a.h"
ADRESH equ 01Eh ;# 
# 1124 "C:\Program Files (x86)\Microchip\xc8\v1.33\include\pic16f877a.h"
ADCON0 equ 01Fh ;# 
# 1219 "C:\Program Files (x86)\Microchip\xc8\v1.33\include\pic16f877a.h"
OPTION_REG equ 081h ;# 
# 1288 "C:\Program Files (x86)\Microchip\xc8\v1.33\include\pic16f877a.h"
TRISA equ 085h ;# 
# 1337 "C:\Program Files (x86)\Microchip\xc8\v1.33\include\pic16f877a.h"
TRISB equ 086h ;# 
# 1398 "C:\Program Files (x86)\Microchip\xc8\v1.33\include\pic16f877a.h"
TRISC equ 087h ;# 
# 1459 "C:\Program Files (x86)\Microchip\xc8\v1.33\include\pic16f877a.h"
TRISD equ 088h ;# 
# 1520 "C:\Program Files (x86)\Microchip\xc8\v1.33\include\pic16f877a.h"
TRISE equ 089h ;# 
# 1576 "C:\Program Files (x86)\Microchip\xc8\v1.33\include\pic16f877a.h"
PIE1 equ 08Ch ;# 
# 1637 "C:\Program Files (x86)\Microchip\xc8\v1.33\include\pic16f877a.h"
PIE2 equ 08Dh ;# 
# 1676 "C:\Program Files (x86)\Microchip\xc8\v1.33\include\pic16f877a.h"
PCON equ 08Eh ;# 
# 1709 "C:\Program Files (x86)\Microchip\xc8\v1.33\include\pic16f877a.h"
SSPCON2 equ 091h ;# 
# 1770 "C:\Program Files (x86)\Microchip\xc8\v1.33\include\pic16f877a.h"
PR2 equ 092h ;# 
# 1776 "C:\Program Files (x86)\Microchip\xc8\v1.33\include\pic16f877a.h"
SSPADD equ 093h ;# 
# 1782 "C:\Program Files (x86)\Microchip\xc8\v1.33\include\pic16f877a.h"
SSPSTAT equ 094h ;# 
# 1950 "C:\Program Files (x86)\Microchip\xc8\v1.33\include\pic16f877a.h"
TXSTA equ 098h ;# 
# 2030 "C:\Program Files (x86)\Microchip\xc8\v1.33\include\pic16f877a.h"
SPBRG equ 099h ;# 
# 2036 "C:\Program Files (x86)\Microchip\xc8\v1.33\include\pic16f877a.h"
CMCON equ 09Ch ;# 
# 2105 "C:\Program Files (x86)\Microchip\xc8\v1.33\include\pic16f877a.h"
CVRCON equ 09Dh ;# 
# 2169 "C:\Program Files (x86)\Microchip\xc8\v1.33\include\pic16f877a.h"
ADRESL equ 09Eh ;# 
# 2175 "C:\Program Files (x86)\Microchip\xc8\v1.33\include\pic16f877a.h"
ADCON1 equ 09Fh ;# 
# 2233 "C:\Program Files (x86)\Microchip\xc8\v1.33\include\pic16f877a.h"
EEDATA equ 010Ch ;# 
# 2239 "C:\Program Files (x86)\Microchip\xc8\v1.33\include\pic16f877a.h"
EEADR equ 010Dh ;# 
# 2245 "C:\Program Files (x86)\Microchip\xc8\v1.33\include\pic16f877a.h"
EEDATH equ 010Eh ;# 
# 2251 "C:\Program Files (x86)\Microchip\xc8\v1.33\include\pic16f877a.h"
EEADRH equ 010Fh ;# 
# 2257 "C:\Program Files (x86)\Microchip\xc8\v1.33\include\pic16f877a.h"
EECON1 equ 018Ch ;# 
# 2301 "C:\Program Files (x86)\Microchip\xc8\v1.33\include\pic16f877a.h"
EECON2 equ 018Dh ;# 
# 49 "C:\Program Files (x86)\Microchip\xc8\v1.33\include\pic16f877a.h"
INDF equ 00h ;# 
# 55 "C:\Program Files (x86)\Microchip\xc8\v1.33\include\pic16f877a.h"
TMR0 equ 01h ;# 
# 61 "C:\Program Files (x86)\Microchip\xc8\v1.33\include\pic16f877a.h"
PCL equ 02h ;# 
# 67 "C:\Program Files (x86)\Microchip\xc8\v1.33\include\pic16f877a.h"
STATUS equ 03h ;# 
# 154 "C:\Program Files (x86)\Microchip\xc8\v1.33\include\pic16f877a.h"
FSR equ 04h ;# 
# 160 "C:\Program Files (x86)\Microchip\xc8\v1.33\include\pic16f877a.h"
PORTA equ 05h ;# 
# 209 "C:\Program Files (x86)\Microchip\xc8\v1.33\include\pic16f877a.h"
PORTB equ 06h ;# 
# 270 "C:\Program Files (x86)\Microchip\xc8\v1.33\include\pic16f877a.h"
PORTC equ 07h ;# 
# 331 "C:\Program Files (x86)\Microchip\xc8\v1.33\include\pic16f877a.h"
PORTD equ 08h ;# 
# 392 "C:\Program Files (x86)\Microchip\xc8\v1.33\include\pic16f877a.h"
PORTE equ 09h ;# 
# 423 "C:\Program Files (x86)\Microchip\xc8\v1.33\include\pic16f877a.h"
PCLATH equ 0Ah ;# 
# 442 "C:\Program Files (x86)\Microchip\xc8\v1.33\include\pic16f877a.h"
INTCON equ 0Bh ;# 
# 519 "C:\Program Files (x86)\Microchip\xc8\v1.33\include\pic16f877a.h"
PIR1 equ 0Ch ;# 
# 580 "C:\Program Files (x86)\Microchip\xc8\v1.33\include\pic16f877a.h"
PIR2 equ 0Dh ;# 
# 619 "C:\Program Files (x86)\Microchip\xc8\v1.33\include\pic16f877a.h"
TMR1 equ 0Eh ;# 
# 625 "C:\Program Files (x86)\Microchip\xc8\v1.33\include\pic16f877a.h"
TMR1L equ 0Eh ;# 
# 631 "C:\Program Files (x86)\Microchip\xc8\v1.33\include\pic16f877a.h"
TMR1H equ 0Fh ;# 
# 637 "C:\Program Files (x86)\Microchip\xc8\v1.33\include\pic16f877a.h"
T1CON equ 010h ;# 
# 711 "C:\Program Files (x86)\Microchip\xc8\v1.33\include\pic16f877a.h"
TMR2 equ 011h ;# 
# 717 "C:\Program Files (x86)\Microchip\xc8\v1.33\include\pic16f877a.h"
T2CON equ 012h ;# 
# 787 "C:\Program Files (x86)\Microchip\xc8\v1.33\include\pic16f877a.h"
SSPBUF equ 013h ;# 
# 793 "C:\Program Files (x86)\Microchip\xc8\v1.33\include\pic16f877a.h"
SSPCON equ 014h ;# 
# 862 "C:\Program Files (x86)\Microchip\xc8\v1.33\include\pic16f877a.h"
CCPR1 equ 015h ;# 
# 868 "C:\Program Files (x86)\Microchip\xc8\v1.33\include\pic16f877a.h"
CCPR1L equ 015h ;# 
# 874 "C:\Program Files (x86)\Microchip\xc8\v1.33\include\pic16f877a.h"
CCPR1H equ 016h ;# 
# 880 "C:\Program Files (x86)\Microchip\xc8\v1.33\include\pic16f877a.h"
CCP1CON equ 017h ;# 
# 937 "C:\Program Files (x86)\Microchip\xc8\v1.33\include\pic16f877a.h"
RCSTA equ 018h ;# 
# 1031 "C:\Program Files (x86)\Microchip\xc8\v1.33\include\pic16f877a.h"
TXREG equ 019h ;# 
# 1037 "C:\Program Files (x86)\Microchip\xc8\v1.33\include\pic16f877a.h"
RCREG equ 01Ah ;# 
# 1043 "C:\Program Files (x86)\Microchip\xc8\v1.33\include\pic16f877a.h"
CCPR2 equ 01Bh ;# 
# 1049 "C:\Program Files (x86)\Microchip\xc8\v1.33\include\pic16f877a.h"
CCPR2L equ 01Bh ;# 
# 1055 "C:\Program Files (x86)\Microchip\xc8\v1.33\include\pic16f877a.h"
CCPR2H equ 01Ch ;# 
# 1061 "C:\Program Files (x86)\Microchip\xc8\v1.33\include\pic16f877a.h"
CCP2CON equ 01Dh ;# 
# 1118 "C:\Program Files (x86)\Microchip\xc8\v1.33\include\pic16f877a.h"
ADRESH equ 01Eh ;# 
# 1124 "C:\Program Files (x86)\Microchip\xc8\v1.33\include\pic16f877a.h"
ADCON0 equ 01Fh ;# 
# 1219 "C:\Program Files (x86)\Microchip\xc8\v1.33\include\pic16f877a.h"
OPTION_REG equ 081h ;# 
# 1288 "C:\Program Files (x86)\Microchip\xc8\v1.33\include\pic16f877a.h"
TRISA equ 085h ;# 
# 1337 "C:\Program Files (x86)\Microchip\xc8\v1.33\include\pic16f877a.h"
TRISB equ 086h ;# 
# 1398 "C:\Program Files (x86)\Microchip\xc8\v1.33\include\pic16f877a.h"
TRISC equ 087h ;# 
# 1459 "C:\Program Files (x86)\Microchip\xc8\v1.33\include\pic16f877a.h"
TRISD equ 088h ;# 
# 1520 "C:\Program Files (x86)\Microchip\xc8\v1.33\include\pic16f877a.h"
TRISE equ 089h ;# 
# 1576 "C:\Program Files (x86)\Microchip\xc8\v1.33\include\pic16f877a.h"
PIE1 equ 08Ch ;# 
# 1637 "C:\Program Files (x86)\Microchip\xc8\v1.33\include\pic16f877a.h"
PIE2 equ 08Dh ;# 
# 1676 "C:\Program Files (x86)\Microchip\xc8\v1.33\include\pic16f877a.h"
PCON equ 08Eh ;# 
# 1709 "C:\Program Files (x86)\Microchip\xc8\v1.33\include\pic16f877a.h"
SSPCON2 equ 091h ;# 
# 1770 "C:\Program Files (x86)\Microchip\xc8\v1.33\include\pic16f877a.h"
PR2 equ 092h ;# 
# 1776 "C:\Program Files (x86)\Microchip\xc8\v1.33\include\pic16f877a.h"
SSPADD equ 093h ;# 
# 1782 "C:\Program Files (x86)\Microchip\xc8\v1.33\include\pic16f877a.h"
SSPSTAT equ 094h ;# 
# 1950 "C:\Program Files (x86)\Microchip\xc8\v1.33\include\pic16f877a.h"
TXSTA equ 098h ;# 
# 2030 "C:\Program Files (x86)\Microchip\xc8\v1.33\include\pic16f877a.h"
SPBRG equ 099h ;# 
# 2036 "C:\Program Files (x86)\Microchip\xc8\v1.33\include\pic16f877a.h"
CMCON equ 09Ch ;# 
# 2105 "C:\Program Files (x86)\Microchip\xc8\v1.33\include\pic16f877a.h"
CVRCON equ 09Dh ;# 
# 2169 "C:\Program Files (x86)\Microchip\xc8\v1.33\include\pic16f877a.h"
ADRESL equ 09Eh ;# 
# 2175 "C:\Program Files (x86)\Microchip\xc8\v1.33\include\pic16f877a.h"
ADCON1 equ 09Fh ;# 
# 2233 "C:\Program Files (x86)\Microchip\xc8\v1.33\include\pic16f877a.h"
EEDATA equ 010Ch ;# 
# 2239 "C:\Program Files (x86)\Microchip\xc8\v1.33\include\pic16f877a.h"
EEADR equ 010Dh ;# 
# 2245 "C:\Program Files (x86)\Microchip\xc8\v1.33\include\pic16f877a.h"
EEDATH equ 010Eh ;# 
# 2251 "C:\Program Files (x86)\Microchip\xc8\v1.33\include\pic16f877a.h"
EEADRH equ 010Fh ;# 
# 2257 "C:\Program Files (x86)\Microchip\xc8\v1.33\include\pic16f877a.h"
EECON1 equ 018Ch ;# 
# 2301 "C:\Program Files (x86)\Microchip\xc8\v1.33\include\pic16f877a.h"
EECON2 equ 018Dh ;# 
# 49 "C:\Program Files (x86)\Microchip\xc8\v1.33\include\pic16f877a.h"
INDF equ 00h ;# 
# 55 "C:\Program Files (x86)\Microchip\xc8\v1.33\include\pic16f877a.h"
TMR0 equ 01h ;# 
# 61 "C:\Program Files (x86)\Microchip\xc8\v1.33\include\pic16f877a.h"
PCL equ 02h ;# 
# 67 "C:\Program Files (x86)\Microchip\xc8\v1.33\include\pic16f877a.h"
STATUS equ 03h ;# 
# 154 "C:\Program Files (x86)\Microchip\xc8\v1.33\include\pic16f877a.h"
FSR equ 04h ;# 
# 160 "C:\Program Files (x86)\Microchip\xc8\v1.33\include\pic16f877a.h"
PORTA equ 05h ;# 
# 209 "C:\Program Files (x86)\Microchip\xc8\v1.33\include\pic16f877a.h"
PORTB equ 06h ;# 
# 270 "C:\Program Files (x86)\Microchip\xc8\v1.33\include\pic16f877a.h"
PORTC equ 07h ;# 
# 331 "C:\Program Files (x86)\Microchip\xc8\v1.33\include\pic16f877a.h"
PORTD equ 08h ;# 
# 392 "C:\Program Files (x86)\Microchip\xc8\v1.33\include\pic16f877a.h"
PORTE equ 09h ;# 
# 423 "C:\Program Files (x86)\Microchip\xc8\v1.33\include\pic16f877a.h"
PCLATH equ 0Ah ;# 
# 442 "C:\Program Files (x86)\Microchip\xc8\v1.33\include\pic16f877a.h"
INTCON equ 0Bh ;# 
# 519 "C:\Program Files (x86)\Microchip\xc8\v1.33\include\pic16f877a.h"
PIR1 equ 0Ch ;# 
# 580 "C:\Program Files (x86)\Microchip\xc8\v1.33\include\pic16f877a.h"
PIR2 equ 0Dh ;# 
# 619 "C:\Program Files (x86)\Microchip\xc8\v1.33\include\pic16f877a.h"
TMR1 equ 0Eh ;# 
# 625 "C:\Program Files (x86)\Microchip\xc8\v1.33\include\pic16f877a.h"
TMR1L equ 0Eh ;# 
# 631 "C:\Program Files (x86)\Microchip\xc8\v1.33\include\pic16f877a.h"
TMR1H equ 0Fh ;# 
# 637 "C:\Program Files (x86)\Microchip\xc8\v1.33\include\pic16f877a.h"
T1CON equ 010h ;# 
# 711 "C:\Program Files (x86)\Microchip\xc8\v1.33\include\pic16f877a.h"
TMR2 equ 011h ;# 
# 717 "C:\Program Files (x86)\Microchip\xc8\v1.33\include\pic16f877a.h"
T2CON equ 012h ;# 
# 787 "C:\Program Files (x86)\Microchip\xc8\v1.33\include\pic16f877a.h"
SSPBUF equ 013h ;# 
# 793 "C:\Program Files (x86)\Microchip\xc8\v1.33\include\pic16f877a.h"
SSPCON equ 014h ;# 
# 862 "C:\Program Files (x86)\Microchip\xc8\v1.33\include\pic16f877a.h"
CCPR1 equ 015h ;# 
# 868 "C:\Program Files (x86)\Microchip\xc8\v1.33\include\pic16f877a.h"
CCPR1L equ 015h ;# 
# 874 "C:\Program Files (x86)\Microchip\xc8\v1.33\include\pic16f877a.h"
CCPR1H equ 016h ;# 
# 880 "C:\Program Files (x86)\Microchip\xc8\v1.33\include\pic16f877a.h"
CCP1CON equ 017h ;# 
# 937 "C:\Program Files (x86)\Microchip\xc8\v1.33\include\pic16f877a.h"
RCSTA equ 018h ;# 
# 1031 "C:\Program Files (x86)\Microchip\xc8\v1.33\include\pic16f877a.h"
TXREG equ 019h ;# 
# 1037 "C:\Program Files (x86)\Microchip\xc8\v1.33\include\pic16f877a.h"
RCREG equ 01Ah ;# 
# 1043 "C:\Program Files (x86)\Microchip\xc8\v1.33\include\pic16f877a.h"
CCPR2 equ 01Bh ;# 
# 1049 "C:\Program Files (x86)\Microchip\xc8\v1.33\include\pic16f877a.h"
CCPR2L equ 01Bh ;# 
# 1055 "C:\Program Files (x86)\Microchip\xc8\v1.33\include\pic16f877a.h"
CCPR2H equ 01Ch ;# 
# 1061 "C:\Program Files (x86)\Microchip\xc8\v1.33\include\pic16f877a.h"
CCP2CON equ 01Dh ;# 
# 1118 "C:\Program Files (x86)\Microchip\xc8\v1.33\include\pic16f877a.h"
ADRESH equ 01Eh ;# 
# 1124 "C:\Program Files (x86)\Microchip\xc8\v1.33\include\pic16f877a.h"
ADCON0 equ 01Fh ;# 
# 1219 "C:\Program Files (x86)\Microchip\xc8\v1.33\include\pic16f877a.h"
OPTION_REG equ 081h ;# 
# 1288 "C:\Program Files (x86)\Microchip\xc8\v1.33\include\pic16f877a.h"
TRISA equ 085h ;# 
# 1337 "C:\Program Files (x86)\Microchip\xc8\v1.33\include\pic16f877a.h"
TRISB equ 086h ;# 
# 1398 "C:\Program Files (x86)\Microchip\xc8\v1.33\include\pic16f877a.h"
TRISC equ 087h ;# 
# 1459 "C:\Program Files (x86)\Microchip\xc8\v1.33\include\pic16f877a.h"
TRISD equ 088h ;# 
# 1520 "C:\Program Files (x86)\Microchip\xc8\v1.33\include\pic16f877a.h"
TRISE equ 089h ;# 
# 1576 "C:\Program Files (x86)\Microchip\xc8\v1.33\include\pic16f877a.h"
PIE1 equ 08Ch ;# 
# 1637 "C:\Program Files (x86)\Microchip\xc8\v1.33\include\pic16f877a.h"
PIE2 equ 08Dh ;# 
# 1676 "C:\Program Files (x86)\Microchip\xc8\v1.33\include\pic16f877a.h"
PCON equ 08Eh ;# 
# 1709 "C:\Program Files (x86)\Microchip\xc8\v1.33\include\pic16f877a.h"
SSPCON2 equ 091h ;# 
# 1770 "C:\Program Files (x86)\Microchip\xc8\v1.33\include\pic16f877a.h"
PR2 equ 092h ;# 
# 1776 "C:\Program Files (x86)\Microchip\xc8\v1.33\include\pic16f877a.h"
SSPADD equ 093h ;# 
# 1782 "C:\Program Files (x86)\Microchip\xc8\v1.33\include\pic16f877a.h"
SSPSTAT equ 094h ;# 
# 1950 "C:\Program Files (x86)\Microchip\xc8\v1.33\include\pic16f877a.h"
TXSTA equ 098h ;# 
# 2030 "C:\Program Files (x86)\Microchip\xc8\v1.33\include\pic16f877a.h"
SPBRG equ 099h ;# 
# 2036 "C:\Program Files (x86)\Microchip\xc8\v1.33\include\pic16f877a.h"
CMCON equ 09Ch ;# 
# 2105 "C:\Program Files (x86)\Microchip\xc8\v1.33\include\pic16f877a.h"
CVRCON equ 09Dh ;# 
# 2169 "C:\Program Files (x86)\Microchip\xc8\v1.33\include\pic16f877a.h"
ADRESL equ 09Eh ;# 
# 2175 "C:\Program Files (x86)\Microchip\xc8\v1.33\include\pic16f877a.h"
ADCON1 equ 09Fh ;# 
# 2233 "C:\Program Files (x86)\Microchip\xc8\v1.33\include\pic16f877a.h"
EEDATA equ 010Ch ;# 
# 2239 "C:\Program Files (x86)\Microchip\xc8\v1.33\include\pic16f877a.h"
EEADR equ 010Dh ;# 
# 2245 "C:\Program Files (x86)\Microchip\xc8\v1.33\include\pic16f877a.h"
EEDATH equ 010Eh ;# 
# 2251 "C:\Program Files (x86)\Microchip\xc8\v1.33\include\pic16f877a.h"
EEADRH equ 010Fh ;# 
# 2257 "C:\Program Files (x86)\Microchip\xc8\v1.33\include\pic16f877a.h"
EECON1 equ 018Ch ;# 
# 2301 "C:\Program Files (x86)\Microchip\xc8\v1.33\include\pic16f877a.h"
EECON2 equ 018Dh ;# 
# 49 "C:\Program Files (x86)\Microchip\xc8\v1.33\include\pic16f877a.h"
INDF equ 00h ;# 
# 55 "C:\Program Files (x86)\Microchip\xc8\v1.33\include\pic16f877a.h"
TMR0 equ 01h ;# 
# 61 "C:\Program Files (x86)\Microchip\xc8\v1.33\include\pic16f877a.h"
PCL equ 02h ;# 
# 67 "C:\Program Files (x86)\Microchip\xc8\v1.33\include\pic16f877a.h"
STATUS equ 03h ;# 
# 154 "C:\Program Files (x86)\Microchip\xc8\v1.33\include\pic16f877a.h"
FSR equ 04h ;# 
# 160 "C:\Program Files (x86)\Microchip\xc8\v1.33\include\pic16f877a.h"
PORTA equ 05h ;# 
# 209 "C:\Program Files (x86)\Microchip\xc8\v1.33\include\pic16f877a.h"
PORTB equ 06h ;# 
# 270 "C:\Program Files (x86)\Microchip\xc8\v1.33\include\pic16f877a.h"
PORTC equ 07h ;# 
# 331 "C:\Program Files (x86)\Microchip\xc8\v1.33\include\pic16f877a.h"
PORTD equ 08h ;# 
# 392 "C:\Program Files (x86)\Microchip\xc8\v1.33\include\pic16f877a.h"
PORTE equ 09h ;# 
# 423 "C:\Program Files (x86)\Microchip\xc8\v1.33\include\pic16f877a.h"
PCLATH equ 0Ah ;# 
# 442 "C:\Program Files (x86)\Microchip\xc8\v1.33\include\pic16f877a.h"
INTCON equ 0Bh ;# 
# 519 "C:\Program Files (x86)\Microchip\xc8\v1.33\include\pic16f877a.h"
PIR1 equ 0Ch ;# 
# 580 "C:\Program Files (x86)\Microchip\xc8\v1.33\include\pic16f877a.h"
PIR2 equ 0Dh ;# 
# 619 "C:\Program Files (x86)\Microchip\xc8\v1.33\include\pic16f877a.h"
TMR1 equ 0Eh ;# 
# 625 "C:\Program Files (x86)\Microchip\xc8\v1.33\include\pic16f877a.h"
TMR1L equ 0Eh ;# 
# 631 "C:\Program Files (x86)\Microchip\xc8\v1.33\include\pic16f877a.h"
TMR1H equ 0Fh ;# 
# 637 "C:\Program Files (x86)\Microchip\xc8\v1.33\include\pic16f877a.h"
T1CON equ 010h ;# 
# 711 "C:\Program Files (x86)\Microchip\xc8\v1.33\include\pic16f877a.h"
TMR2 equ 011h ;# 
# 717 "C:\Program Files (x86)\Microchip\xc8\v1.33\include\pic16f877a.h"
T2CON equ 012h ;# 
# 787 "C:\Program Files (x86)\Microchip\xc8\v1.33\include\pic16f877a.h"
SSPBUF equ 013h ;# 
# 793 "C:\Program Files (x86)\Microchip\xc8\v1.33\include\pic16f877a.h"
SSPCON equ 014h ;# 
# 862 "C:\Program Files (x86)\Microchip\xc8\v1.33\include\pic16f877a.h"
CCPR1 equ 015h ;# 
# 868 "C:\Program Files (x86)\Microchip\xc8\v1.33\include\pic16f877a.h"
CCPR1L equ 015h ;# 
# 874 "C:\Program Files (x86)\Microchip\xc8\v1.33\include\pic16f877a.h"
CCPR1H equ 016h ;# 
# 880 "C:\Program Files (x86)\Microchip\xc8\v1.33\include\pic16f877a.h"
CCP1CON equ 017h ;# 
# 937 "C:\Program Files (x86)\Microchip\xc8\v1.33\include\pic16f877a.h"
RCSTA equ 018h ;# 
# 1031 "C:\Program Files (x86)\Microchip\xc8\v1.33\include\pic16f877a.h"
TXREG equ 019h ;# 
# 1037 "C:\Program Files (x86)\Microchip\xc8\v1.33\include\pic16f877a.h"
RCREG equ 01Ah ;# 
# 1043 "C:\Program Files (x86)\Microchip\xc8\v1.33\include\pic16f877a.h"
CCPR2 equ 01Bh ;# 
# 1049 "C:\Program Files (x86)\Microchip\xc8\v1.33\include\pic16f877a.h"
CCPR2L equ 01Bh ;# 
# 1055 "C:\Program Files (x86)\Microchip\xc8\v1.33\include\pic16f877a.h"
CCPR2H equ 01Ch ;# 
# 1061 "C:\Program Files (x86)\Microchip\xc8\v1.33\include\pic16f877a.h"
CCP2CON equ 01Dh ;# 
# 1118 "C:\Program Files (x86)\Microchip\xc8\v1.33\include\pic16f877a.h"
ADRESH equ 01Eh ;# 
# 1124 "C:\Program Files (x86)\Microchip\xc8\v1.33\include\pic16f877a.h"
ADCON0 equ 01Fh ;# 
# 1219 "C:\Program Files (x86)\Microchip\xc8\v1.33\include\pic16f877a.h"
OPTION_REG equ 081h ;# 
# 1288 "C:\Program Files (x86)\Microchip\xc8\v1.33\include\pic16f877a.h"
TRISA equ 085h ;# 
# 1337 "C:\Program Files (x86)\Microchip\xc8\v1.33\include\pic16f877a.h"
TRISB equ 086h ;# 
# 1398 "C:\Program Files (x86)\Microchip\xc8\v1.33\include\pic16f877a.h"
TRISC equ 087h ;# 
# 1459 "C:\Program Files (x86)\Microchip\xc8\v1.33\include\pic16f877a.h"
TRISD equ 088h ;# 
# 1520 "C:\Program Files (x86)\Microchip\xc8\v1.33\include\pic16f877a.h"
TRISE equ 089h ;# 
# 1576 "C:\Program Files (x86)\Microchip\xc8\v1.33\include\pic16f877a.h"
PIE1 equ 08Ch ;# 
# 1637 "C:\Program Files (x86)\Microchip\xc8\v1.33\include\pic16f877a.h"
PIE2 equ 08Dh ;# 
# 1676 "C:\Program Files (x86)\Microchip\xc8\v1.33\include\pic16f877a.h"
PCON equ 08Eh ;# 
# 1709 "C:\Program Files (x86)\Microchip\xc8\v1.33\include\pic16f877a.h"
SSPCON2 equ 091h ;# 
# 1770 "C:\Program Files (x86)\Microchip\xc8\v1.33\include\pic16f877a.h"
PR2 equ 092h ;# 
# 1776 "C:\Program Files (x86)\Microchip\xc8\v1.33\include\pic16f877a.h"
SSPADD equ 093h ;# 
# 1782 "C:\Program Files (x86)\Microchip\xc8\v1.33\include\pic16f877a.h"
SSPSTAT equ 094h ;# 
# 1950 "C:\Program Files (x86)\Microchip\xc8\v1.33\include\pic16f877a.h"
TXSTA equ 098h ;# 
# 2030 "C:\Program Files (x86)\Microchip\xc8\v1.33\include\pic16f877a.h"
SPBRG equ 099h ;# 
# 2036 "C:\Program Files (x86)\Microchip\xc8\v1.33\include\pic16f877a.h"
CMCON equ 09Ch ;# 
# 2105 "C:\Program Files (x86)\Microchip\xc8\v1.33\include\pic16f877a.h"
CVRCON equ 09Dh ;# 
# 2169 "C:\Program Files (x86)\Microchip\xc8\v1.33\include\pic16f877a.h"
ADRESL equ 09Eh ;# 
# 2175 "C:\Program Files (x86)\Microchip\xc8\v1.33\include\pic16f877a.h"
ADCON1 equ 09Fh ;# 
# 2233 "C:\Program Files (x86)\Microchip\xc8\v1.33\include\pic16f877a.h"
EEDATA equ 010Ch ;# 
# 2239 "C:\Program Files (x86)\Microchip\xc8\v1.33\include\pic16f877a.h"
EEADR equ 010Dh ;# 
# 2245 "C:\Program Files (x86)\Microchip\xc8\v1.33\include\pic16f877a.h"
EEDATH equ 010Eh ;# 
# 2251 "C:\Program Files (x86)\Microchip\xc8\v1.33\include\pic16f877a.h"
EEADRH equ 010Fh ;# 
# 2257 "C:\Program Files (x86)\Microchip\xc8\v1.33\include\pic16f877a.h"
EECON1 equ 018Ch ;# 
# 2301 "C:\Program Files (x86)\Microchip\xc8\v1.33\include\pic16f877a.h"
EECON2 equ 018Dh ;# 
	FNCALL	_main,_LCD_Clear
	FNCALL	_main,_LCD_Cursor
	FNCALL	_main,_LCD_Init
	FNCALL	_main,_LCD_WriteString
	FNCALL	_main,_PWM_DutyCycle1
	FNCALL	_main,_PWM_DutyCycle2
	FNCALL	_main,_PWM_Init
	FNCALL	_main,_TIMER0_Init
	FNCALL	_main,_TIMER0_Set
	FNCALL	_main,_USART_Init
	FNCALL	_main,_inicia
	FNCALL	_main,_res
	FNCALL	_main,_set
	FNCALL	_USART_Init,___aldiv
	FNCALL	_LCD_WriteString,_LCD_WriteData
	FNCALL	_LCD_Init,_LCD_WriteCmd
	FNCALL	_LCD_Clear,_LCD_WriteCmd
	FNROOT	_main
	FNCALL	_ISR,_USART_ReceiveChar
	FNCALL	_ISR,___awtoft
	FNCALL	_ISR,___bmul
	FNCALL	_ISR,___ftadd
	FNCALL	_ISR,___ftdiv
	FNCALL	_ISR,___ftge
	FNCALL	_ISR,___ftmul
	FNCALL	_ISR,___ftneg
	FNCALL	_ISR,___fttol
	FNCALL	_ISR,___lwdiv
	FNCALL	_ISR,___lwtoft
	FNCALL	_ISR,___wmul
	FNCALL	_ISR,_abs
	FNCALL	_ISR,_maximo
	FNCALL	_ISR,_minimo
	FNCALL	_ISR,_send
	FNCALL	_ISR,_trapmf
	FNCALL	_ISR,i1_PWM_DutyCycle2
	FNCALL	_ISR,i1_TIMER0_Set
	FNCALL	_ISR,i1_inicia
	FNCALL	_ISR,i1_res
	FNCALL	_ISR,i1_set
	FNCALL	_trapmf,___ftadd
	FNCALL	_trapmf,___ftdiv
	FNCALL	_trapmf,___ftge
	FNCALL	_trapmf,___ftneg
	FNCALL	___ftdiv,___ftpack
	FNCALL	___ftadd,___ftpack
	FNCALL	_send,_USART_WriteChar
	FNCALL	_send,___lwdiv
	FNCALL	_minimo,___ftge
	FNCALL	_maximo,___ftge
	FNCALL	___lwtoft,___ftpack
	FNCALL	___ftmul,___ftpack
	FNCALL	___awtoft,___ftpack
	FNCALL	_USART_ReceiveChar,_USART_WriteString
	FNCALL	_USART_WriteString,_USART_WriteChar
	FNCALL	intlevel1,_ISR
	global	intlevel1
	FNROOT	intlevel1
	global	_velocidadeSetada
	global	_setpoint
psect	idataBANK0,class=CODE,space=0,delta=2,noexec
global __pidataBANK0
__pidataBANK0:
	file	"C:\Users\filip\programs\FuzzySI\firmware - Copia\main.c"
	line	59

;initializer for _velocidadeSetada
	retlw	058h
	retlw	01Bh

psect	idataBANK1,class=CODE,space=0,delta=2,noexec
global __pidataBANK1
__pidataBANK1:
	line	44

;initializer for _setpoint
	retlw	058h
	retlw	01Bh

	global	_contador_rb6
	global	_kmph
	global	_tempo_rb6
	global	_buffer
	global	_receivedBuffer
	global	_contagens_tm0
	global	_erro_anterior
	global	_erro_atual
	global	_pulsos
	global	_pwm
	global	_receiveIndex
	global	_rpm
	global	_pilotoAtivo
	global	_rGrande
	global	_rMedio
	global	_rBaixo
	global	_TMR1
_TMR1	set	0xE
	global	_ADCON0bits
_ADCON0bits	set	0x1F
	global	_ADRESH
_ADRESH	set	0x1E
	global	_CCP1CON
_CCP1CON	set	0x17
	global	_CCP1CONbits
_CCP1CONbits	set	0x17
	global	_CCP2CON
_CCP2CON	set	0x1D
	global	_CCP2CONbits
_CCP2CONbits	set	0x1D
	global	_CCPR1L
_CCPR1L	set	0x15
	global	_CCPR2L
_CCPR2L	set	0x1B
	global	_INTCONbits
_INTCONbits	set	0xB
	global	_PIR1bits
_PIR1bits	set	0xC
	global	_PIR2bits
_PIR2bits	set	0xD
	global	_PORTA
_PORTA	set	0x5
	global	_PORTB
_PORTB	set	0x6
	global	_PORTBbits
_PORTBbits	set	0x6
	global	_PORTC
_PORTC	set	0x7
	global	_PORTD
_PORTD	set	0x8
	global	_PORTE
_PORTE	set	0x9
	global	_PORTEbits
_PORTEbits	set	0x9
	global	_RCREG
_RCREG	set	0x1A
	global	_RCSTAbits
_RCSTAbits	set	0x18
	global	_SSPBUF
_SSPBUF	set	0x13
	global	_SSPCONbits
_SSPCONbits	set	0x14
	global	_T1CON
_T1CON	set	0x10
	global	_T1CONbits
_T1CONbits	set	0x10
	global	_T2CONbits
_T2CONbits	set	0x12
	global	_TMR0
_TMR0	set	0x1
	global	_TMR1H
_TMR1H	set	0xF
	global	_TMR1L
_TMR1L	set	0xE
	global	_TXREG
_TXREG	set	0x19
	global	_OERR
_OERR	set	0xC1
	global	_ADCON1bits
_ADCON1bits	set	0x9F
	global	_ADRESL
_ADRESL	set	0x9E
	global	_OPTION_REGbits
_OPTION_REGbits	set	0x81
	global	_PIE1bits
_PIE1bits	set	0x8C
	global	_PIE2bits
_PIE2bits	set	0x8D
	global	_PR2
_PR2	set	0x92
	global	_SPBRG
_SPBRG	set	0x99
	global	_SSPADD
_SSPADD	set	0x93
	global	_SSPCON2
_SSPCON2	set	0x91
	global	_SSPCON2bits
_SSPCON2bits	set	0x91
	global	_SSPSTATbits
_SSPSTATbits	set	0x94
	global	_TRISA
_TRISA	set	0x85
	global	_TRISB
_TRISB	set	0x86
	global	_TRISC
_TRISC	set	0x87
	global	_TRISD
_TRISD	set	0x88
	global	_TRISE
_TRISE	set	0x89
	global	_TXSTAbits
_TXSTAbits	set	0x98
	global	_EEADR
_EEADR	set	0x10D
	global	_EEDATA
_EEDATA	set	0x10C
	global	_EECON1bits
_EECON1bits	set	0x18C
	global	_EECON2
_EECON2	set	0x18D
psect	strings,class=STRING,delta=2,noexec
global __pstrings
__pstrings:
stringtab:
	global    __stringtab
__stringtab:
;	String table - string pointers are 1 byte each
stringcode:stringdir:
movlw high(stringdir)
movwf pclath
movf fsr,w
incf fsr
	addwf pc
	global __stringbase
__stringbase:
	retlw	0
psect	strings
	global    __end_of__stringtab
__end_of__stringtab:
	global __stringdata
__stringdata:
	
STR_4:	
	retlw	10
	retlw	13
	retlw	32	;' '
	retlw	45	;'-'
	retlw	45	;'-'
	retlw	45	;'-'
	retlw	45	;'-'
	retlw	45	;'-'
	retlw	45	;'-'
	retlw	45	;'-'
	retlw	32	;' '
	retlw	69	;'E'
	retlw	83	;'S'
	retlw	84	;'T'
	retlw	79	;'O'
	retlw	85	;'U'
	retlw	82	;'R'
	retlw	79	;'O'
	retlw	32	;' '
	retlw	68	;'D'
	retlw	69	;'E'
	retlw	32	;' '
	retlw	80	;'P'
	retlw	73	;'I'
	retlw	76	;'L'
	retlw	72	;'H'
	retlw	65	;'A'
	retlw	32	;' '
	retlw	45	;'-'
	retlw	45	;'-'
	retlw	45	;'-'
	retlw	45	;'-'
	retlw	45	;'-'
	retlw	45	;'-'
	retlw	45	;'-'
	retlw	32	;' '
	retlw	10
	retlw	13
	retlw	32	;' '
	retlw	0
psect	strings
	
STR_3:	
	retlw	73	;'I'
	retlw	105	;'i'
	retlw	110	;'n'
	retlw	100	;'d'
	retlw	0
psect	strings
	
STR_2:	
	retlw	68	;'D'
	retlw	105	;'i'
	retlw	115	;'s'
	retlw	112	;'p'
	retlw	0
psect	strings
	
STR_1:	
	retlw	65	;'A'
	retlw	116	;'t'
	retlw	0
psect	strings
	global __end_of__stringdata
__end_of__stringdata:
; #config settings
global __CFG_WDTE$OFF
__CFG_WDTE$OFF equ 0x0
global __CFG_PWRTE$ON
__CFG_PWRTE$ON equ 0x0
global __CFG_CP$OFF
__CFG_CP$OFF equ 0x0
global __CFG_BOREN$OFF
__CFG_BOREN$OFF equ 0x0
global __CFG_LVP$OFF
__CFG_LVP$OFF equ 0x0
global __CFG_CPD$OFF
__CFG_CPD$OFF equ 0x0
global __CFG_FOSC$HS
__CFG_FOSC$HS equ 0x0
	file	"PIC16F877A.as"
	line	#
psect cinit,class=CODE,delta=2
global start_initialization
start_initialization:

global __initialization
__initialization:
psect	bssBANK0,class=BANK0,space=1,noexec
global __pbssBANK0
__pbssBANK0:
_contador_rb6:
       ds      2

_kmph:
       ds      2

_tempo_rb6:
       ds      2

psect	dataBANK0,class=BANK0,space=1,noexec
global __pdataBANK0
__pdataBANK0:
	file	"C:\Users\filip\programs\FuzzySI\firmware - Copia\main.c"
	line	59
_velocidadeSetada:
       ds      2

psect	bssBANK1,class=BANK1,space=1,noexec
global __pbssBANK1
__pbssBANK1:
_buffer:
       ds      9

_receivedBuffer:
       ds      5

_contagens_tm0:
       ds      2

_erro_anterior:
       ds      2

_erro_atual:
       ds      2

_pulsos:
       ds      2

_pwm:
       ds      2

_receiveIndex:
       ds      2

_rpm:
       ds      2

_pilotoAtivo:
       ds      1

psect	dataBANK1,class=BANK1,space=1,noexec
global __pdataBANK1
__pdataBANK1:
	file	"C:\Users\filip\programs\FuzzySI\firmware - Copia\main.c"
	line	44
_setpoint:
       ds      2

psect	bssBANK3,class=BANK3,space=1,noexec
global __pbssBANK3
__pbssBANK3:
_rBaixo:
       ds      48

psect	bssBANK2,class=BANK2,space=1,noexec
global __pbssBANK2
__pbssBANK2:
_rGrande:
       ds      48

_rMedio:
       ds      48

	file	"PIC16F877A.as"
	line	#
psect clrtext,class=CODE,delta=2
global clear_ram0
;	Called with FSR containing the base address, and
;	W with the last address+1
clear_ram0:
	clrwdt			;clear the watchdog before getting into this loop
clrloop0:
	clrf	indf		;clear RAM location pointed to by FSR
	incf	fsr,f		;increment pointer
	xorwf	fsr,w		;XOR with final address
	btfsc	status,2	;have we reached the end yet?
	retlw	0		;all done for this memory range, return
	xorwf	fsr,w		;XOR again to restore value
	goto	clrloop0		;do the next byte

; Clear objects allocated to BANK0
psect cinit,class=CODE,delta=2,merge=1
	clrf	((__pbssBANK0)+0)&07Fh
	clrf	((__pbssBANK0)+1)&07Fh
	clrf	((__pbssBANK0)+2)&07Fh
	clrf	((__pbssBANK0)+3)&07Fh
	clrf	((__pbssBANK0)+4)&07Fh
	clrf	((__pbssBANK0)+5)&07Fh
; Clear objects allocated to BANK1
psect cinit,class=CODE,delta=2,merge=1
	bcf	status, 7	;select IRP bank0
	movlw	low(__pbssBANK1)
	movwf	fsr
	movlw	low((__pbssBANK1)+01Dh)
	fcall	clear_ram0
; Clear objects allocated to BANK3
psect cinit,class=CODE,delta=2,merge=1
	bsf	status, 7	;select IRP bank2
	movlw	low(__pbssBANK3)
	movwf	fsr
	movlw	low((__pbssBANK3)+030h)
	fcall	clear_ram0
; Clear objects allocated to BANK2
psect cinit,class=CODE,delta=2,merge=1
	movlw	low(__pbssBANK2)
	movwf	fsr
	movlw	low((__pbssBANK2)+060h)
	fcall	clear_ram0
	line	#
; Initialize objects allocated to BANK1
	global __pidataBANK1
psect cinit,class=CODE,delta=2,merge=1
	bsf	status, 5	;RP0=1, select bank1
	bcf	status, 6	;RP1=0, select bank1
	fcall	__pidataBANK1+0		;fetch initializer
	movwf	__pdataBANK1+0&07fh		
	fcall	__pidataBANK1+1		;fetch initializer
	movwf	__pdataBANK1+1&07fh		
; Initialize objects allocated to BANK0
	global __pidataBANK0
psect cinit,class=CODE,delta=2,merge=1
	bcf	status, 5	;RP0=0, select bank0
	bcf	status, 6	;RP1=0, select bank0
	fcall	__pidataBANK0+0		;fetch initializer
	movwf	__pdataBANK0+0&07fh		
	fcall	__pidataBANK0+1		;fetch initializer
	movwf	__pdataBANK0+1&07fh		
psect cinit,class=CODE,delta=2,merge=1
global end_of_initialization,__end_of__initialization

;End of C runtime variable initialization code

end_of_initialization:
__end_of__initialization:clrf status
ljmp _main	;jump to C main() function
psect	cstackBANK3,class=BANK3,space=1,noexec
global __pcstackBANK3
__pcstackBANK3:
??_TIMER0_Set:	; 0 bytes @ 0x0
?_PWM_DutyCycle2:	; 0 bytes @ 0x0
??_TIMER0_Init:	; 0 bytes @ 0x0
??_PWM_Init:	; 0 bytes @ 0x0
?_PWM_DutyCycle1:	; 0 bytes @ 0x0
?_LCD_Cursor:	; 0 bytes @ 0x0
??_inicia:	; 0 bytes @ 0x0
??_res:	; 0 bytes @ 0x0
??_set:	; 0 bytes @ 0x0
??_LCD_WriteCmd:	; 0 bytes @ 0x0
??_LCD_WriteData:	; 0 bytes @ 0x0
	global	?___aldiv
?___aldiv:	; 4 bytes @ 0x0
	global	TIMER0_Set@contagens
TIMER0_Set@contagens:	; 1 bytes @ 0x0
	global	LCD_Cursor@Col
LCD_Cursor@Col:	; 1 bytes @ 0x0
	global	PWM_DutyCycle1@valor
PWM_DutyCycle1@valor:	; 2 bytes @ 0x0
	global	PWM_DutyCycle2@valor
PWM_DutyCycle2@valor:	; 2 bytes @ 0x0
	global	___aldiv@divisor
___aldiv@divisor:	; 4 bytes @ 0x0
	ds	1
??_LCD_Cursor:	; 0 bytes @ 0x1
	global	LCD_WriteCmd@Byte
LCD_WriteCmd@Byte:	; 1 bytes @ 0x1
	global	LCD_WriteData@Byte
LCD_WriteData@Byte:	; 1 bytes @ 0x1
	ds	1
??_PWM_DutyCycle2:	; 0 bytes @ 0x2
??_LCD_Init:	; 0 bytes @ 0x2
??_PWM_DutyCycle1:	; 0 bytes @ 0x2
??_LCD_Clear:	; 0 bytes @ 0x2
??_LCD_WriteString:	; 0 bytes @ 0x2
	global	LCD_Cursor@Row
LCD_Cursor@Row:	; 1 bytes @ 0x2
	ds	1
	global	LCD_WriteString@Str
LCD_WriteString@Str:	; 1 bytes @ 0x3
	ds	1
	global	___aldiv@dividend
___aldiv@dividend:	; 4 bytes @ 0x4
	ds	4
??___aldiv:	; 0 bytes @ 0x8
	ds	1
	global	___aldiv@counter
___aldiv@counter:	; 1 bytes @ 0x9
	ds	1
	global	___aldiv@sign
___aldiv@sign:	; 1 bytes @ 0xA
	ds	1
	global	___aldiv@quotient
___aldiv@quotient:	; 4 bytes @ 0xB
	ds	4
?_USART_Init:	; 0 bytes @ 0xF
	global	USART_Init@BaudRate
USART_Init@BaudRate:	; 4 bytes @ 0xF
	ds	4
??_USART_Init:	; 0 bytes @ 0x13
	ds	4
??_main:	; 0 bytes @ 0x17
	ds	3
psect	cstackBANK1,class=BANK1,space=1,noexec
global __pcstackBANK1
__pcstackBANK1:
	global	ISR@rpmAux
ISR@rpmAux:	; 2 bytes @ 0x0
	ds	2
	global	_ISR$1671
_ISR$1671:	; 3 bytes @ 0x2
	ds	3
	global	_ISR$1672
_ISR$1672:	; 3 bytes @ 0x5
	ds	3
	global	ISR@reajuste
ISR@reajuste:	; 3 bytes @ 0x8
	ds	3
	global	_ISR$254
_ISR$254:	; 2 bytes @ 0xB
	ds	2
	global	ISR@checksum
ISR@checksum:	; 1 bytes @ 0xD
	ds	1
	global	ISR@byte
ISR@byte:	; 1 bytes @ 0xE
	ds	1
	global	ISR@index
ISR@index:	; 1 bytes @ 0xF
	ds	1
	global	ISR@delta
ISR@delta:	; 2 bytes @ 0x10
	ds	2
	global	ISR@soma
ISR@soma:	; 3 bytes @ 0x12
	ds	3
	global	ISR@a
ISR@a:	; 2 bytes @ 0x15
	ds	2
	global	ISR@a_247
ISR@a_247:	; 2 bytes @ 0x17
	ds	2
	global	ISR@a_248
ISR@a_248:	; 2 bytes @ 0x19
	ds	2
	global	ISR@a_249
ISR@a_249:	; 2 bytes @ 0x1B
	ds	2
	global	ISR@total_area
ISR@total_area:	; 3 bytes @ 0x1D
	ds	3
	global	ISR@rule
ISR@rule:	; 3 bytes @ 0x20
	ds	3
	global	ISR@a_252
ISR@a_252:	; 2 bytes @ 0x23
	ds	2
	global	ISR@x
ISR@x:	; 3 bytes @ 0x25
	ds	3
psect	cstackCOMMON,class=COMMON,space=1,noexec
global __pcstackCOMMON
__pcstackCOMMON:
?_USART_WriteChar:	; 0 bytes @ 0x0
??_USART_WriteChar:	; 0 bytes @ 0x0
?_TIMER0_Set:	; 0 bytes @ 0x0
?_TIMER0_Init:	; 0 bytes @ 0x0
?_PWM_Init:	; 0 bytes @ 0x0
?_LCD_Init:	; 0 bytes @ 0x0
?_LCD_Clear:	; 0 bytes @ 0x0
?_LCD_WriteString:	; 0 bytes @ 0x0
?_inicia:	; 0 bytes @ 0x0
?_res:	; 0 bytes @ 0x0
?_set:	; 0 bytes @ 0x0
?_send:	; 0 bytes @ 0x0
?_ISR:	; 0 bytes @ 0x0
?_main:	; 0 bytes @ 0x0
?_USART_WriteString:	; 0 bytes @ 0x0
?_LCD_WriteCmd:	; 0 bytes @ 0x0
?_LCD_WriteData:	; 0 bytes @ 0x0
?i1_inicia:	; 0 bytes @ 0x0
??i1_inicia:	; 0 bytes @ 0x0
?i1_res:	; 0 bytes @ 0x0
??i1_res:	; 0 bytes @ 0x0
?i1_set:	; 0 bytes @ 0x0
??i1_set:	; 0 bytes @ 0x0
?i1_TIMER0_Set:	; 0 bytes @ 0x0
??i1_TIMER0_Set:	; 0 bytes @ 0x0
?i1_PWM_DutyCycle2:	; 0 bytes @ 0x0
?_USART_ReceiveChar:	; 1 bytes @ 0x0
?___bmul:	; 1 bytes @ 0x0
	global	?_abs
?_abs:	; 2 bytes @ 0x0
	global	?___lwdiv
?___lwdiv:	; 2 bytes @ 0x0
	global	?___ftpack
?___ftpack:	; 3 bytes @ 0x0
	global	USART_WriteChar@byte
USART_WriteChar@byte:	; 1 bytes @ 0x0
	global	___bmul@multiplicand
___bmul@multiplicand:	; 1 bytes @ 0x0
	global	i1TIMER0_Set@contagens
i1TIMER0_Set@contagens:	; 1 bytes @ 0x0
	global	abs@a
abs@a:	; 2 bytes @ 0x0
	global	___lwdiv@divisor
___lwdiv@divisor:	; 2 bytes @ 0x0
	global	i1PWM_DutyCycle2@valor
i1PWM_DutyCycle2@valor:	; 2 bytes @ 0x0
	global	___ftpack@arg
___ftpack@arg:	; 3 bytes @ 0x0
	ds	1
??_USART_WriteString:	; 0 bytes @ 0x1
??___bmul:	; 0 bytes @ 0x1
	ds	1
??_abs:	; 0 bytes @ 0x2
??i1_PWM_DutyCycle2:	; 0 bytes @ 0x2
	global	USART_WriteString@str
USART_WriteString@str:	; 1 bytes @ 0x2
	global	___bmul@product
___bmul@product:	; 1 bytes @ 0x2
	global	___lwdiv@dividend
___lwdiv@dividend:	; 2 bytes @ 0x2
	ds	1
??_USART_ReceiveChar:	; 0 bytes @ 0x3
	global	___bmul@multiplier
___bmul@multiplier:	; 1 bytes @ 0x3
	global	___ftpack@exp
___ftpack@exp:	; 1 bytes @ 0x3
	ds	1
?___ftge:	; 1 bit 
??___lwdiv:	; 0 bytes @ 0x4
	global	USART_ReceiveChar@byte
USART_ReceiveChar@byte:	; 1 bytes @ 0x4
	global	___ftpack@sign
___ftpack@sign:	; 1 bytes @ 0x4
	global	___ftge@ff1
___ftge@ff1:	; 3 bytes @ 0x4
	ds	1
??___ftpack:	; 0 bytes @ 0x5
	global	___lwdiv@quotient
___lwdiv@quotient:	; 2 bytes @ 0x5
	ds	2
	global	___lwdiv@counter
___lwdiv@counter:	; 1 bytes @ 0x7
	global	___ftge@ff2
___ftge@ff2:	; 3 bytes @ 0x7
	ds	1
??_send:	; 0 bytes @ 0x8
	global	?___awtoft
?___awtoft:	; 3 bytes @ 0x8
	global	___awtoft@c
___awtoft@c:	; 2 bytes @ 0x8
	ds	1
	global	send@checksum
send@checksum:	; 1 bytes @ 0x9
	ds	1
	global	send@index
send@index:	; 1 bytes @ 0xA
	ds	1
??___awtoft:	; 0 bytes @ 0xB
	ds	2
	global	___awtoft@sign
___awtoft@sign:	; 1 bytes @ 0xD
	ds	1
??_maximo:	; 0 bytes @ 0xE
??_minimo:	; 0 bytes @ 0xE
??_trapmf:	; 0 bytes @ 0xE
??___wmul:	; 0 bytes @ 0xE
??___ftneg:	; 0 bytes @ 0xE
psect	cstackBANK0,class=BANK0,space=1,noexec
global __pcstackBANK0
__pcstackBANK0:
??___ftge:	; 0 bytes @ 0x0
	global	?___ftneg
?___ftneg:	; 3 bytes @ 0x0
	global	___ftneg@f1
___ftneg@f1:	; 3 bytes @ 0x0
	ds	3
	global	?___ftadd
?___ftadd:	; 3 bytes @ 0x3
	global	___ftadd@f1
___ftadd@f1:	; 3 bytes @ 0x3
	ds	3
	global	?_minimo
?_minimo:	; 3 bytes @ 0x6
	global	minimo@a
minimo@a:	; 3 bytes @ 0x6
	global	___ftadd@f2
___ftadd@f2:	; 3 bytes @ 0x6
	ds	3
??___ftadd:	; 0 bytes @ 0x9
	global	minimo@b
minimo@b:	; 3 bytes @ 0x9
	ds	3
	global	?_maximo
?_maximo:	; 3 bytes @ 0xC
	global	maximo@a
maximo@a:	; 3 bytes @ 0xC
	ds	1
	global	___ftadd@sign
___ftadd@sign:	; 1 bytes @ 0xD
	ds	1
	global	___ftadd@exp2
___ftadd@exp2:	; 1 bytes @ 0xE
	ds	1
	global	___ftadd@exp1
___ftadd@exp1:	; 1 bytes @ 0xF
	global	maximo@b
maximo@b:	; 3 bytes @ 0xF
	ds	1
	global	?___ftdiv
?___ftdiv:	; 3 bytes @ 0x10
	global	___ftdiv@f2
___ftdiv@f2:	; 3 bytes @ 0x10
	ds	2
	global	?___fttol
?___fttol:	; 4 bytes @ 0x12
	global	___fttol@f1
___fttol@f1:	; 3 bytes @ 0x12
	ds	1
	global	___ftdiv@f1
___ftdiv@f1:	; 3 bytes @ 0x13
	ds	3
??___ftdiv:	; 0 bytes @ 0x16
??___fttol:	; 0 bytes @ 0x16
	ds	4
	global	___ftdiv@cntr
___ftdiv@cntr:	; 1 bytes @ 0x1A
	global	___fttol@sign1
___fttol@sign1:	; 1 bytes @ 0x1A
	ds	1
	global	___ftdiv@f3
___ftdiv@f3:	; 3 bytes @ 0x1B
	global	___fttol@lval
___fttol@lval:	; 4 bytes @ 0x1B
	ds	3
	global	___ftdiv@exp
___ftdiv@exp:	; 1 bytes @ 0x1E
	ds	1
	global	___ftdiv@sign
___ftdiv@sign:	; 1 bytes @ 0x1F
	global	___fttol@exp1
___fttol@exp1:	; 1 bytes @ 0x1F
	ds	1
	global	?___wmul
?___wmul:	; 2 bytes @ 0x20
	global	?_trapmf
?_trapmf:	; 3 bytes @ 0x20
	global	___wmul@multiplier
___wmul@multiplier:	; 2 bytes @ 0x20
	global	trapmf@x
trapmf@x:	; 3 bytes @ 0x20
	ds	2
	global	___wmul@multiplicand
___wmul@multiplicand:	; 2 bytes @ 0x22
	ds	1
	global	trapmf@a
trapmf@a:	; 3 bytes @ 0x23
	ds	1
	global	___wmul@product
___wmul@product:	; 2 bytes @ 0x24
	ds	2
	global	?___lwtoft
?___lwtoft:	; 3 bytes @ 0x26
	global	___lwtoft@c
___lwtoft@c:	; 2 bytes @ 0x26
	global	trapmf@b
trapmf@b:	; 3 bytes @ 0x26
	ds	3
??___lwtoft:	; 0 bytes @ 0x29
	global	trapmf@c
trapmf@c:	; 3 bytes @ 0x29
	ds	3
	global	trapmf@d
trapmf@d:	; 3 bytes @ 0x2C
	ds	3
	global	trapmf@ua
trapmf@ua:	; 3 bytes @ 0x2F
	ds	3
	global	?___ftmul
?___ftmul:	; 3 bytes @ 0x32
	global	___ftmul@f1
___ftmul@f1:	; 3 bytes @ 0x32
	ds	3
	global	___ftmul@f2
___ftmul@f2:	; 3 bytes @ 0x35
	ds	3
??___ftmul:	; 0 bytes @ 0x38
	ds	4
	global	___ftmul@exp
___ftmul@exp:	; 1 bytes @ 0x3C
	ds	1
	global	___ftmul@f3_as_product
___ftmul@f3_as_product:	; 3 bytes @ 0x3D
	ds	3
	global	___ftmul@cntr
___ftmul@cntr:	; 1 bytes @ 0x40
	ds	1
	global	___ftmul@sign
___ftmul@sign:	; 1 bytes @ 0x41
	ds	1
??_ISR:	; 0 bytes @ 0x42
	ds	6
;!
;!Data Sizes:
;!    Strings     53
;!    Constant    0
;!    Data        4
;!    BSS         179
;!    Persistent  0
;!    Stack       0
;!
;!Auto Spaces:
;!    Space          Size  Autos    Used
;!    COMMON           14     14      14
;!    BANK0            80     72      80
;!    BANK1            80     40      71
;!    BANK3            96     26      74
;!    BANK2            96      0      96

;!
;!Pointer List with Targets:
;!
;!    LCD_WriteString@Str	PTR const unsigned char  size(1) Largest target is 5
;!		 -> STR_3(CODE[5]), STR_2(CODE[5]), STR_1(CODE[3]), 
;!
;!    USART_WriteString@str	PTR const unsigned char  size(1) Largest target is 40
;!		 -> STR_4(CODE[40]), 
;!


;!
;!Critical Paths under _main in COMMON
;!
;!    None.
;!
;!Critical Paths under _ISR in COMMON
;!
;!    _ISR->___awtoft
;!    _trapmf->___awtoft
;!    ___ftneg->___awtoft
;!    ___ftadd->___awtoft
;!    _send->___lwdiv
;!    _minimo->___awtoft
;!    _maximo->___awtoft
;!    ___ftge->___bmul
;!    ___wmul->___awtoft
;!    ___lwtoft->___awtoft
;!    ___fttol->___awtoft
;!    ___ftmul->___awtoft
;!    ___awtoft->___ftpack
;!    _USART_ReceiveChar->_USART_WriteString
;!    _USART_WriteString->_USART_WriteChar
;!
;!Critical Paths under _main in BANK0
;!
;!    None.
;!
;!Critical Paths under _ISR in BANK0
;!
;!    _ISR->___ftmul
;!    _trapmf->___ftdiv
;!    ___ftdiv->___ftadd
;!    ___ftadd->___ftneg
;!    _minimo->___ftge
;!    _maximo->_minimo
;!    ___wmul->___fttol
;!    ___lwtoft->___wmul
;!    ___fttol->_maximo
;!    ___ftmul->_trapmf
;!
;!Critical Paths under _main in BANK1
;!
;!    None.
;!
;!Critical Paths under _ISR in BANK1
;!
;!    None.
;!
;!Critical Paths under _main in BANK3
;!
;!    _main->_USART_Init
;!    _USART_Init->___aldiv
;!    _LCD_WriteString->_LCD_WriteData
;!    _LCD_Init->_LCD_WriteCmd
;!    _LCD_Clear->_LCD_WriteCmd
;!
;!Critical Paths under _ISR in BANK3
;!
;!    None.
;!
;!Critical Paths under _main in BANK2
;!
;!    None.
;!
;!Critical Paths under _ISR in BANK2
;!
;!    None.

;;
;;Main: autosize = 0, tempsize = 3, incstack = 0, save=0
;;

;!
;!Call Graph Tables:
;!
;! ---------------------------------------------------------------------------------
;! (Depth) Function   	        Calls       Base Space   Used Autos Params    Refs
;! ---------------------------------------------------------------------------------
;! (0) _main                                                 3     3      0    1130
;!                                             23 BANK3      3     3      0
;!                          _LCD_Clear
;!                         _LCD_Cursor
;!                           _LCD_Init
;!                    _LCD_WriteString
;!                     _PWM_DutyCycle1
;!                     _PWM_DutyCycle2
;!                           _PWM_Init
;!                        _TIMER0_Init
;!                         _TIMER0_Set
;!                         _USART_Init
;!                             _inicia
;!                                _res
;!                                _set
;! ---------------------------------------------------------------------------------
;! (1) _set                                                  1     1      0       0
;!                                              0 BANK3      1     1      0
;! ---------------------------------------------------------------------------------
;! (1) _res                                                  1     1      0       0
;!                                              0 BANK3      1     1      0
;! ---------------------------------------------------------------------------------
;! (1) _inicia                                               0     0      0       0
;! ---------------------------------------------------------------------------------
;! (1) _USART_Init                                           8     4      4     514
;!                                             15 BANK3      8     4      4
;!                            ___aldiv
;! ---------------------------------------------------------------------------------
;! (2) ___aldiv                                             15     7      8     428
;!                                              0 BANK3     15     7      8
;! ---------------------------------------------------------------------------------
;! (1) _TIMER0_Set                                           1     1      0      31
;!                                              0 BANK3      1     1      0
;! ---------------------------------------------------------------------------------
;! (1) _TIMER0_Init                                          0     0      0       0
;! ---------------------------------------------------------------------------------
;! (1) _PWM_Init                                             0     0      0       0
;! ---------------------------------------------------------------------------------
;! (1) _PWM_DutyCycle2                                       4     2      2     146
;!                                              0 BANK3      4     2      2
;! ---------------------------------------------------------------------------------
;! (1) _PWM_DutyCycle1                                       4     2      2     108
;!                                              0 BANK3      4     2      2
;! ---------------------------------------------------------------------------------
;! (1) _LCD_WriteString                                      2     2      0     157
;!                                              2 BANK3      2     2      0
;!                      _LCD_WriteData
;! ---------------------------------------------------------------------------------
;! (2) _LCD_WriteData                                        2     2      0      22
;!                                              0 BANK3      2     2      0
;! ---------------------------------------------------------------------------------
;! (1) _LCD_Init                                             2     2      0      22
;!                                              2 BANK3      2     2      0
;!                       _LCD_WriteCmd
;! ---------------------------------------------------------------------------------
;! (1) _LCD_Cursor                                           3     2      1     130
;!                                              0 BANK3      3     2      1
;! ---------------------------------------------------------------------------------
;! (1) _LCD_Clear                                            2     2      0      22
;!                                              2 BANK3      2     2      0
;!                       _LCD_WriteCmd
;! ---------------------------------------------------------------------------------
;! (2) _LCD_WriteCmd                                         2     2      0      22
;!                                              0 BANK3      2     2      0
;! ---------------------------------------------------------------------------------
;! Estimated maximum stack depth 2
;! ---------------------------------------------------------------------------------
;! (Depth) Function   	        Calls       Base Space   Used Autos Params    Refs
;! ---------------------------------------------------------------------------------
;! (3) _ISR                                                 46    46      0   50351
;!                                             66 BANK0      6     6      0
;!                                              0 BANK1     40    40      0
;!                  _USART_ReceiveChar
;!                           ___awtoft
;!                             ___bmul
;!                            ___ftadd
;!                            ___ftdiv
;!                             ___ftge
;!                            ___ftmul
;!                            ___ftneg
;!                            ___fttol
;!                            ___lwdiv
;!                           ___lwtoft
;!                             ___wmul
;!                                _abs
;!                             _maximo
;!                             _minimo
;!                               _send
;!                             _trapmf
;!                   i1_PWM_DutyCycle2
;!                       i1_TIMER0_Set
;!                           i1_inicia
;!                              i1_res
;!                              i1_set
;! ---------------------------------------------------------------------------------
;! (4) i1_set                                                1     1      0       0
;!                                              0 COMMON     1     1      0
;! ---------------------------------------------------------------------------------
;! (4) i1_res                                                1     1      0       0
;!                                              0 COMMON     1     1      0
;! ---------------------------------------------------------------------------------
;! (4) i1_inicia                                             0     0      0       0
;! ---------------------------------------------------------------------------------
;! (4) i1_TIMER0_Set                                         1     1      0      22
;!                                              0 COMMON     1     1      0
;! ---------------------------------------------------------------------------------
;! (4) i1_PWM_DutyCycle2                                     4     2      2      70
;!                                              0 COMMON     4     2      2
;! ---------------------------------------------------------------------------------
;! (4) _trapmf                                              18     3     15   17597
;!                                             32 BANK0     18     3     15
;!                           ___awtoft (ARG)
;!                            ___ftadd
;!                            ___ftdiv
;!                             ___ftge
;!                            ___ftneg
;! ---------------------------------------------------------------------------------
;! (5) ___ftneg                                              3     0      3     365
;!                                              0 BANK0      3     0      3
;!                           ___awtoft (ARG)
;! ---------------------------------------------------------------------------------
;! (5) ___ftdiv                                             16    10      6    2751
;!                                             16 BANK0     16    10      6
;!                            ___ftadd (ARG)
;!                            ___ftneg (ARG)
;!                           ___ftpack
;! ---------------------------------------------------------------------------------
;! (5) ___ftadd                                             13     7      6    6867
;!                                              3 BANK0     13     7      6
;!                           ___awtoft (ARG)
;!                             ___bmul (ARG)
;!                            ___ftneg (ARG)
;!                           ___ftpack
;! ---------------------------------------------------------------------------------
;! (4) _send                                                 3     3      0     682
;!                                              8 COMMON     3     3      0
;!                    _USART_WriteChar
;!                            ___lwdiv
;! ---------------------------------------------------------------------------------
;! (5) ___lwdiv                                              8     4      4     546
;!                                              0 COMMON     8     4      4
;! ---------------------------------------------------------------------------------
;! (4) _minimo                                               6     0      6    2528
;!                                              6 BANK0      6     0      6
;!                           ___awtoft (ARG)
;!                             ___ftge
;!                                _abs (ARG)
;! ---------------------------------------------------------------------------------
;! (4) _maximo                                               6     0      6    2272
;!                                             12 BANK0      6     0      6
;!                           ___awtoft (ARG)
;!                             ___ftge
;!                                _abs (ARG)
;!                             _minimo (ARG)
;! ---------------------------------------------------------------------------------
;! (5) ___ftge                                              12     6      6    1928
;!                                              4 COMMON     6     0      6
;!                                              0 BANK0      6     6      0
;!                             ___bmul (ARG)
;! ---------------------------------------------------------------------------------
;! (4) _abs                                                  4     2      2     194
;!                                              0 COMMON     4     2      2
;! ---------------------------------------------------------------------------------
;! (4) ___wmul                                               6     2      4    1844
;!                                             32 BANK0      6     2      4
;!                           ___awtoft (ARG)
;!                            ___fttol (ARG)
;!                            ___lwdiv (ARG)
;!                             _maximo (ARG)
;!                             _minimo (ARG)
;! ---------------------------------------------------------------------------------
;! (4) ___lwtoft                                             4     1      3    2173
;!                                             38 BANK0      4     1      3
;!                           ___awtoft (ARG)
;!                           ___ftpack
;!                            ___fttol (ARG)
;!                             ___wmul (ARG)
;!                             _maximo (ARG)
;!                             _minimo (ARG)
;! ---------------------------------------------------------------------------------
;! (4) ___fttol                                             14    10      4     508
;!                                             18 BANK0     14    10      4
;!                           ___awtoft (ARG)
;!                                _abs (ARG)
;!                             _maximo (ARG)
;!                             _minimo (ARG)
;! ---------------------------------------------------------------------------------
;! (4) ___ftmul                                             16    10      6    3053
;!                                             50 BANK0     16    10      6
;!                           ___awtoft (ARG)
;!                             ___bmul (ARG)
;!                            ___ftadd (ARG)
;!                            ___ftneg (ARG)
;!                           ___ftpack
;!                             _trapmf (ARG)
;! ---------------------------------------------------------------------------------
;! (4) ___bmul                                               4     3      1     560
;!                                              0 COMMON     4     3      1
;! ---------------------------------------------------------------------------------
;! (4) ___awtoft                                             6     3      3    2754
;!                                              8 COMMON     6     3      3
;!                           ___ftpack
;!                                _abs (ARG)
;! ---------------------------------------------------------------------------------
;! (6) ___ftpack                                             8     3      5    2087
;!                                              0 COMMON     8     3      5
;! ---------------------------------------------------------------------------------
;! (4) _USART_ReceiveChar                                    2     2      0     121
;!                                              3 COMMON     2     2      0
;!                  _USART_WriteString
;! ---------------------------------------------------------------------------------
;! (5) _USART_WriteString                                    2     2      0      97
;!                                              1 COMMON     2     2      0
;!                    _USART_WriteChar
;! ---------------------------------------------------------------------------------
;! (5) _USART_WriteChar                                      1     1      0      22
;!                                              0 COMMON     1     1      0
;! ---------------------------------------------------------------------------------
;! Estimated maximum stack depth 6
;! ---------------------------------------------------------------------------------
;!
;! Call Graph Graphs:
;!
;! _main (ROOT)
;!   _LCD_Clear
;!     _LCD_WriteCmd
;!   _LCD_Cursor
;!   _LCD_Init
;!     _LCD_WriteCmd
;!   _LCD_WriteString
;!     _LCD_WriteData
;!   _PWM_DutyCycle1
;!   _PWM_DutyCycle2
;!   _PWM_Init
;!   _TIMER0_Init
;!   _TIMER0_Set
;!   _USART_Init
;!     ___aldiv
;!   _inicia
;!   _res
;!   _set
;!
;! _ISR (ROOT)
;!   _USART_ReceiveChar
;!     _USART_WriteString
;!       _USART_WriteChar
;!   ___awtoft
;!     ___ftpack
;!     _abs (ARG)
;!   ___bmul
;!   ___ftadd
;!     ___awtoft (ARG)
;!       ___ftpack
;!       _abs (ARG)
;!     ___bmul (ARG)
;!     ___ftneg (ARG)
;!       ___awtoft (ARG)
;!         ___ftpack
;!         _abs (ARG)
;!     ___ftpack (ARG)
;!   ___ftdiv
;!     ___ftadd (ARG)
;!       ___awtoft (ARG)
;!         ___ftpack
;!         _abs (ARG)
;!       ___bmul (ARG)
;!       ___ftneg (ARG)
;!         ___awtoft (ARG)
;!           ___ftpack
;!           _abs (ARG)
;!       ___ftpack (ARG)
;!     ___ftneg (ARG)
;!       ___awtoft (ARG)
;!         ___ftpack
;!         _abs (ARG)
;!     ___ftpack (ARG)
;!   ___ftge
;!     ___bmul (ARG)
;!   ___ftmul
;!     ___awtoft (ARG)
;!       ___ftpack
;!       _abs (ARG)
;!     ___bmul (ARG)
;!     ___ftadd (ARG)
;!       ___awtoft (ARG)
;!         ___ftpack
;!         _abs (ARG)
;!       ___bmul (ARG)
;!       ___ftneg (ARG)
;!         ___awtoft (ARG)
;!           ___ftpack
;!           _abs (ARG)
;!       ___ftpack (ARG)
;!     ___ftneg (ARG)
;!       ___awtoft (ARG)
;!         ___ftpack
;!         _abs (ARG)
;!     ___ftpack (ARG)
;!     _trapmf (ARG)
;!       ___awtoft (ARG)
;!         ___ftpack
;!         _abs (ARG)
;!       ___ftadd (ARG)
;!         ___awtoft (ARG)
;!           ___ftpack
;!           _abs (ARG)
;!         ___bmul (ARG)
;!         ___ftneg (ARG)
;!           ___awtoft (ARG)
;!             ___ftpack
;!             _abs (ARG)
;!         ___ftpack (ARG)
;!       ___ftdiv (ARG)
;!         ___ftadd (ARG)
;!           ___awtoft (ARG)
;!             ___ftpack
;!             _abs (ARG)
;!           ___bmul (ARG)
;!           ___ftneg (ARG)
;!             ___awtoft (ARG)
;!               ___ftpack
;!               _abs (ARG)
;!           ___ftpack (ARG)
;!         ___ftneg (ARG)
;!           ___awtoft (ARG)
;!             ___ftpack
;!             _abs (ARG)
;!         ___ftpack (ARG)
;!       ___ftge (ARG)
;!         ___bmul (ARG)
;!       ___ftneg (ARG)
;!         ___awtoft (ARG)
;!           ___ftpack
;!           _abs (ARG)
;!   ___ftneg
;!     ___awtoft (ARG)
;!       ___ftpack
;!       _abs (ARG)
;!   ___fttol
;!     ___awtoft (ARG)
;!       ___ftpack
;!       _abs (ARG)
;!     _abs (ARG)
;!     _maximo (ARG)
;!       ___awtoft (ARG)
;!         ___ftpack
;!         _abs (ARG)
;!       ___ftge (ARG)
;!         ___bmul (ARG)
;!       _abs (ARG)
;!       _minimo (ARG)
;!         ___awtoft (ARG)
;!           ___ftpack
;!           _abs (ARG)
;!         ___ftge (ARG)
;!           ___bmul (ARG)
;!         _abs (ARG)
;!     _minimo (ARG)
;!       ___awtoft (ARG)
;!         ___ftpack
;!         _abs (ARG)
;!       ___ftge (ARG)
;!         ___bmul (ARG)
;!       _abs (ARG)
;!   ___lwdiv
;!   ___lwtoft
;!     ___awtoft (ARG)
;!       ___ftpack
;!       _abs (ARG)
;!     ___ftpack (ARG)
;!     ___fttol (ARG)
;!       ___awtoft (ARG)
;!         ___ftpack
;!         _abs (ARG)
;!       _abs (ARG)
;!       _maximo (ARG)
;!         ___awtoft (ARG)
;!           ___ftpack
;!           _abs (ARG)
;!         ___ftge (ARG)
;!           ___bmul (ARG)
;!         _abs (ARG)
;!         _minimo (ARG)
;!           ___awtoft (ARG)
;!             ___ftpack
;!             _abs (ARG)
;!           ___ftge (ARG)
;!             ___bmul (ARG)
;!           _abs (ARG)
;!       _minimo (ARG)
;!         ___awtoft (ARG)
;!           ___ftpack
;!           _abs (ARG)
;!         ___ftge (ARG)
;!           ___bmul (ARG)
;!         _abs (ARG)
;!     ___wmul (ARG)
;!       ___awtoft (ARG)
;!         ___ftpack
;!         _abs (ARG)
;!       ___fttol (ARG)
;!         ___awtoft (ARG)
;!           ___ftpack
;!           _abs (ARG)
;!         _abs (ARG)
;!         _maximo (ARG)
;!           ___awtoft (ARG)
;!             ___ftpack
;!             _abs (ARG)
;!           ___ftge (ARG)
;!             ___bmul (ARG)
;!           _abs (ARG)
;!           _minimo (ARG)
;!             ___awtoft (ARG)
;!               ___ftpack
;!               _abs (ARG)
;!             ___ftge (ARG)
;!               ___bmul (ARG)
;!             _abs (ARG)
;!         _minimo (ARG)
;!           ___awtoft (ARG)
;!             ___ftpack
;!             _abs (ARG)
;!           ___ftge (ARG)
;!             ___bmul (ARG)
;!           _abs (ARG)
;!       ___lwdiv (ARG)
;!       _maximo (ARG)
;!         ___awtoft (ARG)
;!           ___ftpack
;!           _abs (ARG)
;!         ___ftge (ARG)
;!           ___bmul (ARG)
;!         _abs (ARG)
;!         _minimo (ARG)
;!           ___awtoft (ARG)
;!             ___ftpack
;!             _abs (ARG)
;!           ___ftge (ARG)
;!             ___bmul (ARG)
;!           _abs (ARG)
;!       _minimo (ARG)
;!         ___awtoft (ARG)
;!           ___ftpack
;!           _abs (ARG)
;!         ___ftge (ARG)
;!           ___bmul (ARG)
;!         _abs (ARG)
;!     _maximo (ARG)
;!       ___awtoft (ARG)
;!         ___ftpack
;!         _abs (ARG)
;!       ___ftge (ARG)
;!         ___bmul (ARG)
;!       _abs (ARG)
;!       _minimo (ARG)
;!         ___awtoft (ARG)
;!           ___ftpack
;!           _abs (ARG)
;!         ___ftge (ARG)
;!           ___bmul (ARG)
;!         _abs (ARG)
;!     _minimo (ARG)
;!       ___awtoft (ARG)
;!         ___ftpack
;!         _abs (ARG)
;!       ___ftge (ARG)
;!         ___bmul (ARG)
;!       _abs (ARG)
;!   ___wmul
;!     ___awtoft (ARG)
;!       ___ftpack
;!       _abs (ARG)
;!     ___fttol (ARG)
;!       ___awtoft (ARG)
;!         ___ftpack
;!         _abs (ARG)
;!       _abs (ARG)
;!       _maximo (ARG)
;!         ___awtoft (ARG)
;!           ___ftpack
;!           _abs (ARG)
;!         ___ftge (ARG)
;!           ___bmul (ARG)
;!         _abs (ARG)
;!         _minimo (ARG)
;!           ___awtoft (ARG)
;!             ___ftpack
;!             _abs (ARG)
;!           ___ftge (ARG)
;!             ___bmul (ARG)
;!           _abs (ARG)
;!       _minimo (ARG)
;!         ___awtoft (ARG)
;!           ___ftpack
;!           _abs (ARG)
;!         ___ftge (ARG)
;!           ___bmul (ARG)
;!         _abs (ARG)
;!     ___lwdiv (ARG)
;!     _maximo (ARG)
;!       ___awtoft (ARG)
;!         ___ftpack
;!         _abs (ARG)
;!       ___ftge (ARG)
;!         ___bmul (ARG)
;!       _abs (ARG)
;!       _minimo (ARG)
;!         ___awtoft (ARG)
;!           ___ftpack
;!           _abs (ARG)
;!         ___ftge (ARG)
;!           ___bmul (ARG)
;!         _abs (ARG)
;!     _minimo (ARG)
;!       ___awtoft (ARG)
;!         ___ftpack
;!         _abs (ARG)
;!       ___ftge (ARG)
;!         ___bmul (ARG)
;!       _abs (ARG)
;!   _abs
;!   _maximo
;!     ___awtoft (ARG)
;!       ___ftpack
;!       _abs (ARG)
;!     ___ftge (ARG)
;!       ___bmul (ARG)
;!     _abs (ARG)
;!     _minimo (ARG)
;!       ___awtoft (ARG)
;!         ___ftpack
;!         _abs (ARG)
;!       ___ftge (ARG)
;!         ___bmul (ARG)
;!       _abs (ARG)
;!   _minimo
;!     ___awtoft (ARG)
;!       ___ftpack
;!       _abs (ARG)
;!     ___ftge (ARG)
;!       ___bmul (ARG)
;!     _abs (ARG)
;!   _send
;!     _USART_WriteChar
;!     ___lwdiv
;!   _trapmf
;!     ___awtoft (ARG)
;!       ___ftpack
;!       _abs (ARG)
;!     ___ftadd (ARG)
;!       ___awtoft (ARG)
;!         ___ftpack
;!         _abs (ARG)
;!       ___bmul (ARG)
;!       ___ftneg (ARG)
;!         ___awtoft (ARG)
;!           ___ftpack
;!           _abs (ARG)
;!       ___ftpack (ARG)
;!     ___ftdiv (ARG)
;!       ___ftadd (ARG)
;!         ___awtoft (ARG)
;!           ___ftpack
;!           _abs (ARG)
;!         ___bmul (ARG)
;!         ___ftneg (ARG)
;!           ___awtoft (ARG)
;!             ___ftpack
;!             _abs (ARG)
;!         ___ftpack (ARG)
;!       ___ftneg (ARG)
;!         ___awtoft (ARG)
;!           ___ftpack
;!           _abs (ARG)
;!       ___ftpack (ARG)
;!     ___ftge (ARG)
;!       ___bmul (ARG)
;!     ___ftneg (ARG)
;!       ___awtoft (ARG)
;!         ___ftpack
;!         _abs (ARG)
;!   i1_PWM_DutyCycle2
;!   i1_TIMER0_Set
;!   i1_inicia
;!   i1_res
;!   i1_set
;!

;! Address spaces:

;!Name               Size   Autos  Total    Cost      Usage
;!BANK3               60     1A      4A       9       77.1%
;!BITBANK3            60      0       0       8        0.0%
;!SFR3                 0      0       0       4        0.0%
;!BITSFR3              0      0       0       4        0.0%
;!BANK2               60      0      60      11      100.0%
;!BITBANK2            60      0       0      10        0.0%
;!SFR2                 0      0       0       5        0.0%
;!BITSFR2              0      0       0       5        0.0%
;!BANK1               50     28      47       7       88.8%
;!BITBANK1            50      0       0       6        0.0%
;!SFR1                 0      0       0       2        0.0%
;!BITSFR1              0      0       0       2        0.0%
;!BANK0               50     48      50       5      100.0%
;!BITBANK0            50      0       0       4        0.0%
;!SFR0                 0      0       0       1        0.0%
;!BITSFR0              0      0       0       1        0.0%
;!COMMON               E      E       E       1      100.0%
;!BITCOMMON            E      0       0       0        0.0%
;!CODE                 0      0       0       0        0.0%
;!DATA                 0      0     14F      12        0.0%
;!ABS                  0      0     14F       3        0.0%
;!NULL                 0      0       0       0        0.0%
;!STACK                0      0       0       2        0.0%
;!EEDATA             100      0       0       0        0.0%

	global	_main

;; *************** function _main *****************
;; Defined at:
;;		line 394 in file "C:\Users\filip\programs\FuzzySI\firmware - Copia\main.c"
;; Parameters:    Size  Location     Type
;;		None
;; Auto vars:     Size  Location     Type
;;		None
;; Return value:  Size  Location     Type
;;		None               void
;; Registers used:
;;		wreg, fsr0l, fsr0h, status,2, status,0, pclath, cstack
;; Tracked objects:
;;		On entry : 17F/0
;;		On exit  : 0/0
;;		Unchanged: 0/0
;; Data sizes:     COMMON   BANK0   BANK1   BANK3   BANK2
;;      Params:         0       0       0       0       0
;;      Locals:         0       0       0       0       0
;;      Temps:          0       0       0       3       0
;;      Totals:         0       0       0       3       0
;;Total ram usage:        3 bytes
;; Hardware stack levels required when called:    6
;; This function calls:
;;		_LCD_Clear
;;		_LCD_Cursor
;;		_LCD_Init
;;		_LCD_WriteString
;;		_PWM_DutyCycle1
;;		_PWM_DutyCycle2
;;		_PWM_Init
;;		_TIMER0_Init
;;		_TIMER0_Set
;;		_USART_Init
;;		_inicia
;;		_res
;;		_set
;; This function is called by:
;;		Startup code after reset
;; This function uses a non-reentrant model
;;
psect	maintext,global,class=CODE,delta=2,split=1
	file	"C:\Users\filip\programs\FuzzySI\firmware - Copia\main.c"
	line	394
global __pmaintext
__pmaintext:	;psect for function _main
psect	maintext
	file	"C:\Users\filip\programs\FuzzySI\firmware - Copia\main.c"
	line	394
	global	__size_of_main
	__size_of_main	equ	__end_of_main-_main
	
_main:	
;incstack = 0
	opt	stack 2
; Regs used in _main: [wreg-fsr0h+status,2+status,0+pclath+cstack]
	line	395
	
l3228:	
;main.c: 395: TRISA = 0b00000001;
	movlw	(01h)
	bsf	status, 5	;RP0=1, select bank1
	bcf	status, 6	;RP1=0, select bank1
	movwf	(133)^080h	;volatile
	line	396
;main.c: 396: PORTA = 0b00000001;
	movlw	(01h)
	bcf	status, 5	;RP0=0, select bank0
	bcf	status, 6	;RP1=0, select bank0
	movwf	(5)	;volatile
	line	397
;main.c: 397: TRISB = 0b00001111;
	movlw	(0Fh)
	bsf	status, 5	;RP0=1, select bank1
	bcf	status, 6	;RP1=0, select bank1
	movwf	(134)^080h	;volatile
	line	398
	
l3230:	
;main.c: 398: PORTB = 0b00000000;
	bcf	status, 5	;RP0=0, select bank0
	bcf	status, 6	;RP1=0, select bank0
	clrf	(6)	;volatile
	line	399
	
l3232:	
;main.c: 399: TRISC = 0b10000001;
	movlw	(081h)
	bsf	status, 5	;RP0=1, select bank1
	bcf	status, 6	;RP1=0, select bank1
	movwf	(135)^080h	;volatile
	line	401
	
l3234:	
;main.c: 401: PORTC = 0b11000000;
	movlw	(0C0h)
	bcf	status, 5	;RP0=0, select bank0
	bcf	status, 6	;RP1=0, select bank0
	movwf	(7)	;volatile
	line	402
	
l3236:	
;main.c: 402: TRISD = 0b00000000;
	bsf	status, 5	;RP0=1, select bank1
	bcf	status, 6	;RP1=0, select bank1
	clrf	(136)^080h	;volatile
	line	403
	
l3238:	
;main.c: 403: PORTD = 0b00000000;
	bcf	status, 5	;RP0=0, select bank0
	bcf	status, 6	;RP1=0, select bank0
	clrf	(8)	;volatile
	line	404
	
l3240:	
;main.c: 404: TRISE = 0b00000000;
	bsf	status, 5	;RP0=1, select bank1
	bcf	status, 6	;RP1=0, select bank1
	clrf	(137)^080h	;volatile
	line	405
	
l3242:	
;main.c: 405: PORTE = 0b00000000;
	bcf	status, 5	;RP0=0, select bank0
	bcf	status, 6	;RP1=0, select bank0
	clrf	(9)	;volatile
	line	408
	
l3244:	
;main.c: 408: T1CON = 0x03;
	movlw	(03h)
	movwf	(16)	;volatile
	line	409
;main.c: 409: TMR1L = 0x00;
	clrf	(14)	;volatile
	line	410
;main.c: 410: TMR1H = 0x00;
	clrf	(15)	;volatile
	line	414
	
l3246:	
;main.c: 414: USART_Init(115200);
	movlw	0
	bsf	status, 5	;RP0=1, select bank3
	bsf	status, 6	;RP1=1, select bank3
	movwf	(USART_Init@BaudRate+3)^0180h
	movlw	01h
	movwf	(USART_Init@BaudRate+2)^0180h
	movlw	0C2h
	movwf	(USART_Init@BaudRate+1)^0180h
	movlw	0
	movwf	(USART_Init@BaudRate)^0180h

	fcall	_USART_Init
	line	415
	
l3248:	
;main.c: 415: TIMER0_Init();
	fcall	_TIMER0_Init
	line	418
	
l3250:	
;main.c: 418: PWM_Init();
	fcall	_PWM_Init
	line	419
	
l3252:	
;main.c: 419: LCD_Init();
	fcall	_LCD_Init
	line	422
	
l3254:	
;main.c: 422: INTCONbits.PEIE = 1;
	bsf	(11),6	;volatile
	line	423
	
l3256:	
;main.c: 423: INTCONbits.GIE = 1;
	bsf	(11),7	;volatile
	line	426
	
l3258:	
;main.c: 426: PWM_DutyCycle1(0);
	movlw	low(0)
	bsf	status, 5	;RP0=1, select bank3
	bsf	status, 6	;RP1=1, select bank3
	movwf	(PWM_DutyCycle1@valor)^0180h
	movlw	high(0)
	movwf	((PWM_DutyCycle1@valor)^0180h)+1
	fcall	_PWM_DutyCycle1
	line	427
	
l3260:	
;main.c: 427: PWM_DutyCycle2(100);
	movlw	low(064h)
	bsf	status, 5	;RP0=1, select bank3
	bsf	status, 6	;RP1=1, select bank3
	movwf	(PWM_DutyCycle2@valor)^0180h
	movlw	high(064h)
	movwf	((PWM_DutyCycle2@valor)^0180h)+1
	fcall	_PWM_DutyCycle2
	line	430
	
l3262:	
;main.c: 430: TIMER0_Set(238);
	movlw	(0EEh)
	fcall	_TIMER0_Set
	line	433
	
l3264:	
;main.c: 433: _delay((unsigned long)((1000)*(18432000/4000.0)));
	opt asmopt_off
movlw  24
	bsf	status, 5	;RP0=1, select bank3
	bsf	status, 6	;RP1=1, select bank3
movwf	((??_main+0)^0180h+0+2),f
movlw	97
movwf	((??_main+0)^0180h+0+1),f
	movlw	110
movwf	((??_main+0)^0180h+0),f
u5857:
	decfsz	((??_main+0)^0180h+0),f
	goto	u5857
	decfsz	((??_main+0)^0180h+0+1),f
	goto	u5857
	decfsz	((??_main+0)^0180h+0+2),f
	goto	u5857
	nop
opt asmopt_on

	goto	l3266
	line	436
;main.c: 436: while (1) {
	
l188:	
	line	438
	
l3266:	
;main.c: 438: if(PORTBbits.RB0 == 0){
	bcf	status, 5	;RP0=0, select bank0
	bcf	status, 6	;RP1=0, select bank0
	btfsc	(6),0	;volatile
	goto	u4091
	goto	u4090
u4091:
	goto	l3272
u4090:
	goto	l190
	line	439
	
l3268:	
;main.c: 439: while(PORTBbits.RB0 == 0);
	goto	l190
	
l191:	
	
l190:	
	btfss	(6),0	;volatile
	goto	u4101
	goto	u4100
u4101:
	goto	l190
u4100:
	goto	l3270
	
l192:	
	line	440
	
l3270:	
;main.c: 440: inicia();
	fcall	_inicia
	goto	l3272
	line	441
	
l189:	
	line	442
	
l3272:	
;main.c: 441: }
;main.c: 442: if(PORTBbits.RB1 == 0){
	bcf	status, 5	;RP0=0, select bank0
	bcf	status, 6	;RP1=0, select bank0
	btfsc	(6),1	;volatile
	goto	u4111
	goto	u4110
u4111:
	goto	l3280
u4110:
	goto	l194
	line	443
	
l3274:	
;main.c: 443: while(PORTBbits.RB1 == 0);
	goto	l194
	
l195:	
	
l194:	
	btfss	(6),1	;volatile
	goto	u4121
	goto	u4120
u4121:
	goto	l194
u4120:
	goto	l3276
	
l196:	
	line	444
	
l3276:	
;main.c: 444: _delay((unsigned long)((20)*(18432000/4000.0)));
	opt asmopt_off
movlw	120
	bsf	status, 5	;RP0=1, select bank3
	bsf	status, 6	;RP1=1, select bank3
movwf	((??_main+0)^0180h+0+1),f
	movlw	175
movwf	((??_main+0)^0180h+0),f
u5867:
	decfsz	((??_main+0)^0180h+0),f
	goto	u5867
	decfsz	((??_main+0)^0180h+0+1),f
	goto	u5867
opt asmopt_on

	line	445
;main.c: 445: while(PORTBbits.RB1 == 0);
	goto	l197
	
l198:	
	
l197:	
	bcf	status, 5	;RP0=0, select bank0
	bcf	status, 6	;RP1=0, select bank0
	btfss	(6),1	;volatile
	goto	u4131
	goto	u4130
u4131:
	goto	l197
u4130:
	goto	l3278
	
l199:	
	line	446
	
l3278:	
;main.c: 446: res();
	fcall	_res
	goto	l3280
	line	447
	
l193:	
	line	448
	
l3280:	
;main.c: 447: }
;main.c: 448: if(PORTBbits.RB2 == 0){
	bcf	status, 5	;RP0=0, select bank0
	bcf	status, 6	;RP1=0, select bank0
	btfsc	(6),2	;volatile
	goto	u4141
	goto	u4140
u4141:
	goto	l3288
u4140:
	goto	l201
	line	449
	
l3282:	
;main.c: 449: while(PORTBbits.RB2 == 0);
	goto	l201
	
l202:	
	
l201:	
	btfss	(6),2	;volatile
	goto	u4151
	goto	u4150
u4151:
	goto	l201
u4150:
	goto	l3284
	
l203:	
	line	450
	
l3284:	
;main.c: 450: _delay((unsigned long)((20)*(18432000/4000.0)));
	opt asmopt_off
movlw	120
	bsf	status, 5	;RP0=1, select bank3
	bsf	status, 6	;RP1=1, select bank3
movwf	((??_main+0)^0180h+0+1),f
	movlw	175
movwf	((??_main+0)^0180h+0),f
u5877:
	decfsz	((??_main+0)^0180h+0),f
	goto	u5877
	decfsz	((??_main+0)^0180h+0+1),f
	goto	u5877
opt asmopt_on

	line	451
;main.c: 451: while(PORTBbits.RB2 == 0);
	goto	l204
	
l205:	
	
l204:	
	bcf	status, 5	;RP0=0, select bank0
	bcf	status, 6	;RP1=0, select bank0
	btfss	(6),2	;volatile
	goto	u4161
	goto	u4160
u4161:
	goto	l204
u4160:
	goto	l3286
	
l206:	
	line	452
	
l3286:	
;main.c: 452: set();
	fcall	_set
	goto	l3288
	line	453
	
l200:	
	line	454
	
l3288:	
;main.c: 453: }
;main.c: 454: if(PORTBbits.RB3 == 0){
	bcf	status, 5	;RP0=0, select bank0
	bcf	status, 6	;RP1=0, select bank0
	btfsc	(6),3	;volatile
	goto	u4171
	goto	u4170
u4171:
	goto	l3296
u4170:
	goto	l208
	line	455
	
l3290:	
;main.c: 455: while(PORTBbits.RB3 == 0);
	goto	l208
	
l209:	
	
l208:	
	btfss	(6),3	;volatile
	goto	u4181
	goto	u4180
u4181:
	goto	l208
u4180:
	goto	l3292
	
l210:	
	line	456
	
l3292:	
;main.c: 456: _delay((unsigned long)((20)*(18432000/4000.0)));
	opt asmopt_off
movlw	120
	bsf	status, 5	;RP0=1, select bank3
	bsf	status, 6	;RP1=1, select bank3
movwf	((??_main+0)^0180h+0+1),f
	movlw	175
movwf	((??_main+0)^0180h+0),f
u5887:
	decfsz	((??_main+0)^0180h+0),f
	goto	u5887
	decfsz	((??_main+0)^0180h+0+1),f
	goto	u5887
opt asmopt_on

	line	457
	
l3294:	
;main.c: 457: pilotoAtivo = pilotoAtivo & 0b11111101;
	bsf	status, 5	;RP0=1, select bank1
	bcf	status, 6	;RP1=0, select bank1
	movf	(_pilotoAtivo)^080h,w
	andlw	0FDh
	bsf	status, 5	;RP0=1, select bank3
	bsf	status, 6	;RP1=1, select bank3
	movwf	(??_main+0)^0180h+0
	movf	(??_main+0)^0180h+0,w
	bsf	status, 5	;RP0=1, select bank1
	bcf	status, 6	;RP1=0, select bank1
	movwf	(_pilotoAtivo)^080h
	goto	l3296
	line	458
	
l207:	
	line	459
	
l3296:	
;main.c: 458: }
;main.c: 459: LCD_Clear();
	fcall	_LCD_Clear
	line	460
	
l3298:	
;main.c: 460: LCD_Cursor(0,0);
	bsf	status, 5	;RP0=1, select bank3
	bsf	status, 6	;RP1=1, select bank3
	clrf	(LCD_Cursor@Col)^0180h
	movlw	(0)
	fcall	_LCD_Cursor
	line	461
	
l3300:	
;main.c: 461: if(pilotoAtivo & 1){
	bsf	status, 5	;RP0=1, select bank1
	bcf	status, 6	;RP1=0, select bank1
	btfss	(_pilotoAtivo)^080h,(0)&7
	goto	u4191
	goto	u4190
u4191:
	goto	l3308
u4190:
	line	462
	
l3302:	
;main.c: 462: if(pilotoAtivo & 2){
	btfss	(_pilotoAtivo)^080h,(1)&7
	goto	u4201
	goto	u4200
u4201:
	goto	l3306
u4200:
	line	463
	
l3304:	
;main.c: 463: LCD_WriteString("At");
	movlw	((STR_1)-__stringbase)&0ffh
	fcall	_LCD_WriteString
	line	464
;main.c: 464: }else{
	goto	l3310
	
l212:	
	line	465
	
l3306:	
;main.c: 465: LCD_WriteString("Disp");
	movlw	((STR_2)-__stringbase)&0ffh
	fcall	_LCD_WriteString
	goto	l3310
	line	466
	
l213:	
	line	467
;main.c: 466: }
;main.c: 467: }else{
	goto	l3310
	
l211:	
	line	468
	
l3308:	
;main.c: 468: LCD_WriteString("Iind");
	movlw	((STR_3)-__stringbase)&0ffh
	fcall	_LCD_WriteString
	goto	l3310
	line	469
	
l214:	
	line	471
	
l3310:	
;main.c: 469: }
;main.c: 471: _delay((unsigned long)((200)*(18432000/4000.0)));
	opt asmopt_off
movlw  5
	bsf	status, 5	;RP0=1, select bank3
	bsf	status, 6	;RP1=1, select bank3
movwf	((??_main+0)^0180h+0+2),f
movlw	173
movwf	((??_main+0)^0180h+0+1),f
	movlw	224
movwf	((??_main+0)^0180h+0),f
u5897:
	decfsz	((??_main+0)^0180h+0),f
	goto	u5897
	decfsz	((??_main+0)^0180h+0+1),f
	goto	u5897
	decfsz	((??_main+0)^0180h+0+2),f
	goto	u5897
opt asmopt_on

	goto	l3266
	line	472
	
l215:	
	line	436
	goto	l3266
	
l216:	
	line	473
	
l217:	
	global	start
	ljmp	start
	opt stack 0
GLOBAL	__end_of_main
	__end_of_main:
	signat	_main,88
	global	_set

;; *************** function _set *****************
;; Defined at:
;;		line 99 in file "C:\Users\filip\programs\FuzzySI\firmware - Copia\main.c"
;; Parameters:    Size  Location     Type
;;		None
;; Auto vars:     Size  Location     Type
;;		None
;; Return value:  Size  Location     Type
;;		None               void
;; Registers used:
;;		wreg, status,2, status,0
;; Tracked objects:
;;		On entry : 0/0
;;		On exit  : 0/0
;;		Unchanged: 0/0
;; Data sizes:     COMMON   BANK0   BANK1   BANK3   BANK2
;;      Params:         0       0       0       0       0
;;      Locals:         0       0       0       0       0
;;      Temps:          0       0       0       1       0
;;      Totals:         0       0       0       1       0
;;Total ram usage:        1 bytes
;; Hardware stack levels used:    1
;; Hardware stack levels required when called:    4
;; This function calls:
;;		Nothing
;; This function is called by:
;;		_main
;; This function uses a non-reentrant model
;;
psect	text1,local,class=CODE,delta=2,merge=1
	line	99
global __ptext1
__ptext1:	;psect for function _set
psect	text1
	file	"C:\Users\filip\programs\FuzzySI\firmware - Copia\main.c"
	line	99
	global	__size_of_set
	__size_of_set	equ	__end_of_set-_set
	
_set:	
;incstack = 0
	opt	stack 3
; Regs used in _set: [wreg+status,2+status,0]
	line	100
	
l2446:	
;main.c: 100: if(kmph > 40){
	movlw	high(029h)
	bcf	status, 5	;RP0=0, select bank0
	bcf	status, 6	;RP1=0, select bank0
	subwf	(_kmph+1),w
	movlw	low(029h)
	skipnz
	subwf	(_kmph),w
	skipc
	goto	u2851
	goto	u2850
u2851:
	goto	l114
u2850:
	line	102
	
l2448:	
;main.c: 102: if(pilotoAtivo == 3 && setpoint > 1640){
	bsf	status, 5	;RP0=1, select bank1
	bcf	status, 6	;RP1=0, select bank1
	movf	(_pilotoAtivo)^080h,w
	xorlw	03h
	skipz
	goto	u2861
	goto	u2860
u2861:
	goto	l2454
u2860:
	
l2450:	
	movlw	high(0669h)
	subwf	(_setpoint+1)^080h,w
	movlw	low(0669h)
	skipnz
	subwf	(_setpoint)^080h,w
	skipc
	goto	u2871
	goto	u2870
u2871:
	goto	l2454
u2870:
	line	104
	
l2452:	
;main.c: 104: setpoint = setpoint - 41;
	movf	(_setpoint)^080h,w
	addlw	low(0FFD7h)
	movwf	(_setpoint)^080h
	movf	(_setpoint+1)^080h,w
	skipnc
	addlw	1
	addlw	high(0FFD7h)
	movwf	1+(_setpoint)^080h
	line	105
;main.c: 105: velocidadeSetada = setpoint;
	movf	(_setpoint+1)^080h,w
	bcf	status, 5	;RP0=0, select bank0
	bcf	status, 6	;RP1=0, select bank0
	clrf	(_velocidadeSetada+1)
	addwf	(_velocidadeSetada+1)
	bsf	status, 5	;RP0=1, select bank1
	bcf	status, 6	;RP1=0, select bank1
	movf	(_setpoint)^080h,w
	bcf	status, 5	;RP0=0, select bank0
	bcf	status, 6	;RP1=0, select bank0
	clrf	(_velocidadeSetada)
	addwf	(_velocidadeSetada)

	goto	l2454
	line	106
	
l112:	
	line	107
	
l2454:	
;main.c: 106: }
;main.c: 107: if(pilotoAtivo == 1){
	bsf	status, 5	;RP0=1, select bank1
	bcf	status, 6	;RP1=0, select bank1
	movf	(_pilotoAtivo)^080h,w
	xorlw	01h
	skipz
	goto	u2881
	goto	u2880
u2881:
	goto	l114
u2880:
	line	109
	
l2456:	
;main.c: 109: pilotoAtivo = 3;
	movlw	(03h)
	bsf	status, 5	;RP0=1, select bank3
	bsf	status, 6	;RP1=1, select bank3
	movwf	(??_set+0)^0180h+0
	movf	(??_set+0)^0180h+0,w
	bsf	status, 5	;RP0=1, select bank1
	bcf	status, 6	;RP1=0, select bank1
	movwf	(_pilotoAtivo)^080h
	line	110
	
l2458:	
;main.c: 110: setpoint = velocidadeSetada;
	bcf	status, 5	;RP0=0, select bank0
	bcf	status, 6	;RP1=0, select bank0
	movf	(_velocidadeSetada+1),w
	bsf	status, 5	;RP0=1, select bank1
	bcf	status, 6	;RP1=0, select bank1
	clrf	(_setpoint+1)^080h
	addwf	(_setpoint+1)^080h
	bcf	status, 5	;RP0=0, select bank0
	bcf	status, 6	;RP1=0, select bank0
	movf	(_velocidadeSetada),w
	bsf	status, 5	;RP0=1, select bank1
	bcf	status, 6	;RP1=0, select bank1
	clrf	(_setpoint)^080h
	addwf	(_setpoint)^080h

	goto	l114
	line	111
	
l113:	
	goto	l114
	line	112
	
l111:	
	line	113
	
l114:	
	return
	opt stack 0
GLOBAL	__end_of_set
	__end_of_set:
	signat	_set,88
	global	_res

;; *************** function _res *****************
;; Defined at:
;;		line 86 in file "C:\Users\filip\programs\FuzzySI\firmware - Copia\main.c"
;; Parameters:    Size  Location     Type
;;		None
;; Auto vars:     Size  Location     Type
;;		None
;; Return value:  Size  Location     Type
;;		None               void
;; Registers used:
;;		wreg, status,2, status,0
;; Tracked objects:
;;		On entry : 0/0
;;		On exit  : 0/0
;;		Unchanged: 0/0
;; Data sizes:     COMMON   BANK0   BANK1   BANK3   BANK2
;;      Params:         0       0       0       0       0
;;      Locals:         0       0       0       0       0
;;      Temps:          0       0       0       1       0
;;      Totals:         0       0       0       1       0
;;Total ram usage:        1 bytes
;; Hardware stack levels used:    1
;; Hardware stack levels required when called:    4
;; This function calls:
;;		Nothing
;; This function is called by:
;;		_main
;; This function uses a non-reentrant model
;;
psect	text2,local,class=CODE,delta=2,merge=1
	line	86
global __ptext2
__ptext2:	;psect for function _res
psect	text2
	file	"C:\Users\filip\programs\FuzzySI\firmware - Copia\main.c"
	line	86
	global	__size_of_res
	__size_of_res	equ	__end_of_res-_res
	
_res:	
;incstack = 0
	opt	stack 3
; Regs used in _res: [wreg+status,2+status,0]
	line	87
	
l2434:	
;main.c: 87: if(pilotoAtivo == 3 && setpoint < 9000){
	bsf	status, 5	;RP0=1, select bank1
	bcf	status, 6	;RP1=0, select bank1
	movf	(_pilotoAtivo)^080h,w
	xorlw	03h
	skipz
	goto	u2821
	goto	u2820
u2821:
	goto	l2440
u2820:
	
l2436:	
	movlw	high(02328h)
	subwf	(_setpoint+1)^080h,w
	movlw	low(02328h)
	skipnz
	subwf	(_setpoint)^080h,w
	skipnc
	goto	u2831
	goto	u2830
u2831:
	goto	l2440
u2830:
	line	89
	
l2438:	
;main.c: 89: setpoint = setpoint + 41;
	movf	(_setpoint)^080h,w
	addlw	low(029h)
	movwf	(_setpoint)^080h
	movf	(_setpoint+1)^080h,w
	skipnc
	addlw	1
	addlw	high(029h)
	movwf	1+(_setpoint)^080h
	line	90
;main.c: 90: velocidadeSetada = setpoint;
	movf	(_setpoint+1)^080h,w
	bcf	status, 5	;RP0=0, select bank0
	bcf	status, 6	;RP1=0, select bank0
	clrf	(_velocidadeSetada+1)
	addwf	(_velocidadeSetada+1)
	bsf	status, 5	;RP0=1, select bank1
	bcf	status, 6	;RP1=0, select bank1
	movf	(_setpoint)^080h,w
	bcf	status, 5	;RP0=0, select bank0
	bcf	status, 6	;RP1=0, select bank0
	clrf	(_velocidadeSetada)
	addwf	(_velocidadeSetada)

	goto	l2440
	line	91
	
l106:	
	line	92
	
l2440:	
;main.c: 91: }
;main.c: 92: if(pilotoAtivo == 1){
	bsf	status, 5	;RP0=1, select bank1
	bcf	status, 6	;RP1=0, select bank1
	movf	(_pilotoAtivo)^080h,w
	xorlw	01h
	skipz
	goto	u2841
	goto	u2840
u2841:
	goto	l108
u2840:
	line	94
	
l2442:	
;main.c: 94: pilotoAtivo = 3;
	movlw	(03h)
	bsf	status, 5	;RP0=1, select bank3
	bsf	status, 6	;RP1=1, select bank3
	movwf	(??_res+0)^0180h+0
	movf	(??_res+0)^0180h+0,w
	bsf	status, 5	;RP0=1, select bank1
	bcf	status, 6	;RP1=0, select bank1
	movwf	(_pilotoAtivo)^080h
	line	95
	
l2444:	
;main.c: 95: setpoint = velocidadeSetada;
	bcf	status, 5	;RP0=0, select bank0
	bcf	status, 6	;RP1=0, select bank0
	movf	(_velocidadeSetada+1),w
	bsf	status, 5	;RP0=1, select bank1
	bcf	status, 6	;RP1=0, select bank1
	clrf	(_setpoint+1)^080h
	addwf	(_setpoint+1)^080h
	bcf	status, 5	;RP0=0, select bank0
	bcf	status, 6	;RP1=0, select bank0
	movf	(_velocidadeSetada),w
	bsf	status, 5	;RP0=1, select bank1
	bcf	status, 6	;RP1=0, select bank1
	clrf	(_setpoint)^080h
	addwf	(_setpoint)^080h

	goto	l108
	line	96
	
l107:	
	line	97
	
l108:	
	return
	opt stack 0
GLOBAL	__end_of_res
	__end_of_res:
	signat	_res,88
	global	_inicia

;; *************** function _inicia *****************
;; Defined at:
;;		line 79 in file "C:\Users\filip\programs\FuzzySI\firmware - Copia\main.c"
;; Parameters:    Size  Location     Type
;;		None
;; Auto vars:     Size  Location     Type
;;		None
;; Return value:  Size  Location     Type
;;		None               void
;; Registers used:
;;		status,2
;; Tracked objects:
;;		On entry : 0/0
;;		On exit  : 0/0
;;		Unchanged: 0/0
;; Data sizes:     COMMON   BANK0   BANK1   BANK3   BANK2
;;      Params:         0       0       0       0       0
;;      Locals:         0       0       0       0       0
;;      Temps:          0       0       0       0       0
;;      Totals:         0       0       0       0       0
;;Total ram usage:        0 bytes
;; Hardware stack levels used:    1
;; Hardware stack levels required when called:    4
;; This function calls:
;;		Nothing
;; This function is called by:
;;		_main
;; This function uses a non-reentrant model
;;
psect	text3,local,class=CODE,delta=2,merge=1
	line	79
global __ptext3
__ptext3:	;psect for function _inicia
psect	text3
	file	"C:\Users\filip\programs\FuzzySI\firmware - Copia\main.c"
	line	79
	global	__size_of_inicia
	__size_of_inicia	equ	__end_of_inicia-_inicia
	
_inicia:	
;incstack = 0
	opt	stack 3
; Regs used in _inicia: [status,2]
	line	80
	
l3192:	
;main.c: 80: if(pilotoAtivo & 1){
	bsf	status, 5	;RP0=1, select bank1
	bcf	status, 6	;RP1=0, select bank1
	btfss	(_pilotoAtivo)^080h,(0)&7
	goto	u4081
	goto	u4080
u4081:
	goto	l101
u4080:
	line	81
	
l3194:	
;main.c: 81: pilotoAtivo = 0;
	clrf	(_pilotoAtivo)^080h
	line	82
;main.c: 82: }else{
	goto	l103
	
l101:	
	line	83
;main.c: 83: pilotoAtivo = 1;
	clrf	(_pilotoAtivo)^080h
	incf	(_pilotoAtivo)^080h,f
	goto	l103
	line	84
	
l102:	
	line	85
	
l103:	
	return
	opt stack 0
GLOBAL	__end_of_inicia
	__end_of_inicia:
	signat	_inicia,88
	global	_USART_Init

;; *************** function _USART_Init *****************
;; Defined at:
;;		line 6 in file "C:\Users\filip\programs\FuzzySI\firmware - Copia\usart.c"
;; Parameters:    Size  Location     Type
;;  BaudRate        4   15[BANK3 ] long 
;; Auto vars:     Size  Location     Type
;;		None
;; Return value:  Size  Location     Type
;;		None               void
;; Registers used:
;;		wreg, status,2, status,0, pclath, cstack
;; Tracked objects:
;;		On entry : 0/0
;;		On exit  : 0/0
;;		Unchanged: 0/0
;; Data sizes:     COMMON   BANK0   BANK1   BANK3   BANK2
;;      Params:         0       0       0       4       0
;;      Locals:         0       0       0       0       0
;;      Temps:          0       0       0       4       0
;;      Totals:         0       0       0       8       0
;;Total ram usage:        8 bytes
;; Hardware stack levels used:    1
;; Hardware stack levels required when called:    5
;; This function calls:
;;		___aldiv
;; This function is called by:
;;		_main
;; This function uses a non-reentrant model
;;
psect	text4,local,class=CODE,delta=2,merge=1
	file	"C:\Users\filip\programs\FuzzySI\firmware - Copia\usart.c"
	line	6
global __ptext4
__ptext4:	;psect for function _USART_Init
psect	text4
	file	"C:\Users\filip\programs\FuzzySI\firmware - Copia\usart.c"
	line	6
	global	__size_of_USART_Init
	__size_of_USART_Init	equ	__end_of_USART_Init-_USART_Init
	
_USART_Init:	
;incstack = 0
	opt	stack 2
; Regs used in _USART_Init: [wreg+status,2+status,0+pclath+cstack]
	line	13
	
l2556:	
;usart.c: 13: SPBRG = (unsigned char)(18432000 / (16 * BaudRate)) - 1;
	bsf	status, 5	;RP0=1, select bank3
	bsf	status, 6	;RP1=1, select bank3
	movf	(USART_Init@BaudRate)^0180h,w
	movwf	(??_USART_Init+0)^0180h+0
	movf	(USART_Init@BaudRate+1)^0180h,w
	movwf	((??_USART_Init+0)^0180h+0+1)
	movf	(USART_Init@BaudRate+2)^0180h,w
	movwf	((??_USART_Init+0)^0180h+0+2)
	movf	(USART_Init@BaudRate+3)^0180h,w
	movwf	((??_USART_Init+0)^0180h+0+3)
	movlw	04h
u3025:
	clrc
	rlf	(??_USART_Init+0)^0180h+0,f
	rlf	(??_USART_Init+0)^0180h+1,f
	rlf	(??_USART_Init+0)^0180h+2,f
	rlf	(??_USART_Init+0)^0180h+3,f
u3020:
	addlw	-1
	skipz
	goto	u3025
	movf	3+(??_USART_Init+0)^0180h+0,w
	movwf	(___aldiv@divisor+3)^0180h
	movf	2+(??_USART_Init+0)^0180h+0,w
	movwf	(___aldiv@divisor+2)^0180h
	movf	1+(??_USART_Init+0)^0180h+0,w
	movwf	(___aldiv@divisor+1)^0180h
	movf	0+(??_USART_Init+0)^0180h+0,w
	movwf	(___aldiv@divisor)^0180h

	movlw	01h
	movwf	(___aldiv@dividend+3)^0180h
	movlw	019h
	movwf	(___aldiv@dividend+2)^0180h
	movlw	040h
	movwf	(___aldiv@dividend+1)^0180h
	movlw	0
	movwf	(___aldiv@dividend)^0180h

	fcall	___aldiv
	bsf	status, 5	;RP0=1, select bank3
	bsf	status, 6	;RP1=1, select bank3
	movf	0+(((0+(?___aldiv))^0180h)),w
	addlw	0FFh
	bsf	status, 5	;RP0=1, select bank1
	bcf	status, 6	;RP1=0, select bank1
	movwf	(153)^080h	;volatile
	line	16
	
l2558:	
;usart.c: 16: TXSTAbits.CSRC = 0;
	bcf	(152)^080h,7	;volatile
	line	17
	
l2560:	
;usart.c: 17: TXSTAbits.TX9 = 0;
	bcf	(152)^080h,6	;volatile
	line	18
	
l2562:	
;usart.c: 18: TXSTAbits.TXEN = 1;
	bsf	(152)^080h,5	;volatile
	line	19
	
l2564:	
;usart.c: 19: TXSTAbits.SYNC = 0;
	bcf	(152)^080h,4	;volatile
	line	21
	
l2566:	
;usart.c: 21: TXSTAbits.BRGH = 1;
	bsf	(152)^080h,2	;volatile
	line	22
	
l2568:	
;usart.c: 22: TXSTAbits.TRMT = 1;
	bsf	(152)^080h,1	;volatile
	line	23
	
l2570:	
;usart.c: 23: TXSTAbits.TX9D = 0;
	bcf	(152)^080h,0	;volatile
	line	26
	
l2572:	
;usart.c: 26: RCSTAbits.SPEN = 1;
	bcf	status, 5	;RP0=0, select bank0
	bcf	status, 6	;RP1=0, select bank0
	bsf	(24),7	;volatile
	line	27
	
l2574:	
;usart.c: 27: RCSTAbits.RX9 = 0;
	bcf	(24),6	;volatile
	line	28
	
l2576:	
;usart.c: 28: RCSTAbits.SREN = 0;
	bcf	(24),5	;volatile
	line	29
	
l2578:	
;usart.c: 29: RCSTAbits.CREN = 1;
	bsf	(24),4	;volatile
	line	30
	
l2580:	
;usart.c: 30: RCSTAbits.ADDEN = 0;
	bcf	(24),3	;volatile
	line	31
	
l2582:	
;usart.c: 31: RCSTAbits.FERR = 0;
	bcf	(24),2	;volatile
	line	32
	
l2584:	
;usart.c: 32: RCSTAbits.OERR = 0;
	bcf	(24),1	;volatile
	line	33
	
l2586:	
;usart.c: 33: RCSTAbits.RX9D = 0;
	bcf	(24),0	;volatile
	line	36
	
l2588:	
;usart.c: 36: PIE1bits.TXIE = 0;
	bsf	status, 5	;RP0=1, select bank1
	bcf	status, 6	;RP1=0, select bank1
	bcf	(140)^080h,4	;volatile
	line	37
	
l2590:	
;usart.c: 37: PIR1bits.TXIF = 0;
	bcf	status, 5	;RP0=0, select bank0
	bcf	status, 6	;RP1=0, select bank0
	bcf	(12),4	;volatile
	line	38
	
l2592:	
;usart.c: 38: PIE1bits.RCIE = 1;
	bsf	status, 5	;RP0=1, select bank1
	bcf	status, 6	;RP1=0, select bank1
	bsf	(140)^080h,5	;volatile
	line	39
	
l2594:	
;usart.c: 39: PIR1bits.RCIF = 0;
	bcf	status, 5	;RP0=0, select bank0
	bcf	status, 6	;RP1=0, select bank0
	bcf	(12),5	;volatile
	line	40
	
l236:	
	return
	opt stack 0
GLOBAL	__end_of_USART_Init
	__end_of_USART_Init:
	signat	_USART_Init,4216
	global	___aldiv

;; *************** function ___aldiv *****************
;; Defined at:
;;		line 6 in file "C:\Program Files (x86)\Microchip\xc8\v1.33\sources\common\aldiv.c"
;; Parameters:    Size  Location     Type
;;  divisor         4    0[BANK3 ] long 
;;  dividend        4    4[BANK3 ] long 
;; Auto vars:     Size  Location     Type
;;  quotient        4   11[BANK3 ] long 
;;  sign            1   10[BANK3 ] unsigned char 
;;  counter         1    9[BANK3 ] unsigned char 
;; Return value:  Size  Location     Type
;;                  4    0[BANK3 ] long 
;; Registers used:
;;		wreg, status,2, status,0
;; Tracked objects:
;;		On entry : 0/0
;;		On exit  : 0/0
;;		Unchanged: 0/0
;; Data sizes:     COMMON   BANK0   BANK1   BANK3   BANK2
;;      Params:         0       0       0       8       0
;;      Locals:         0       0       0       6       0
;;      Temps:          0       0       0       1       0
;;      Totals:         0       0       0      15       0
;;Total ram usage:       15 bytes
;; Hardware stack levels used:    1
;; Hardware stack levels required when called:    4
;; This function calls:
;;		Nothing
;; This function is called by:
;;		_USART_Init
;; This function uses a non-reentrant model
;;
psect	text5,local,class=CODE,delta=2,merge=1
	file	"C:\Program Files (x86)\Microchip\xc8\v1.33\sources\common\aldiv.c"
	line	6
global __ptext5
__ptext5:	;psect for function ___aldiv
psect	text5
	file	"C:\Program Files (x86)\Microchip\xc8\v1.33\sources\common\aldiv.c"
	line	6
	global	__size_of___aldiv
	__size_of___aldiv	equ	__end_of___aldiv-___aldiv
	
___aldiv:	
;incstack = 0
	opt	stack 2
; Regs used in ___aldiv: [wreg+status,2+status,0]
	line	14
	
l2206:	
	bsf	status, 5	;RP0=1, select bank3
	bsf	status, 6	;RP1=1, select bank3
	clrf	(___aldiv@sign)^0180h
	line	15
	
l2208:	
	btfss	(___aldiv@divisor+3)^0180h,7
	goto	u2241
	goto	u2240
u2241:
	goto	l618
u2240:
	line	16
	
l2210:	
	comf	(___aldiv@divisor)^0180h,f
	comf	(___aldiv@divisor+1)^0180h,f
	comf	(___aldiv@divisor+2)^0180h,f
	comf	(___aldiv@divisor+3)^0180h,f
	incf	(___aldiv@divisor)^0180h,f
	skipnz
	incf	(___aldiv@divisor+1)^0180h,f
	skipnz
	incf	(___aldiv@divisor+2)^0180h,f
	skipnz
	incf	(___aldiv@divisor+3)^0180h,f
	line	17
	clrf	(___aldiv@sign)^0180h
	incf	(___aldiv@sign)^0180h,f
	line	18
	
l618:	
	line	19
	btfss	(___aldiv@dividend+3)^0180h,7
	goto	u2251
	goto	u2250
u2251:
	goto	l2216
u2250:
	line	20
	
l2212:	
	comf	(___aldiv@dividend)^0180h,f
	comf	(___aldiv@dividend+1)^0180h,f
	comf	(___aldiv@dividend+2)^0180h,f
	comf	(___aldiv@dividend+3)^0180h,f
	incf	(___aldiv@dividend)^0180h,f
	skipnz
	incf	(___aldiv@dividend+1)^0180h,f
	skipnz
	incf	(___aldiv@dividend+2)^0180h,f
	skipnz
	incf	(___aldiv@dividend+3)^0180h,f
	line	21
	
l2214:	
	movlw	(01h)
	movwf	(??___aldiv+0)^0180h+0
	movf	(??___aldiv+0)^0180h+0,w
	xorwf	(___aldiv@sign)^0180h,f
	goto	l2216
	line	22
	
l619:	
	line	23
	
l2216:	
	movlw	0
	movwf	(___aldiv@quotient+3)^0180h
	movlw	0
	movwf	(___aldiv@quotient+2)^0180h
	movlw	0
	movwf	(___aldiv@quotient+1)^0180h
	movlw	0
	movwf	(___aldiv@quotient)^0180h

	line	24
	
l2218:	
	movf	(___aldiv@divisor+3)^0180h,w
	iorwf	(___aldiv@divisor+2)^0180h,w
	iorwf	(___aldiv@divisor+1)^0180h,w
	iorwf	(___aldiv@divisor)^0180h,w
	skipnz
	goto	u2261
	goto	u2260
u2261:
	goto	l2238
u2260:
	line	25
	
l2220:	
	clrf	(___aldiv@counter)^0180h
	incf	(___aldiv@counter)^0180h,f
	line	26
	goto	l2224
	
l622:	
	line	27
	
l2222:	
	movlw	01h
	movwf	(??___aldiv+0)^0180h+0
u2275:
	clrc
	rlf	(___aldiv@divisor)^0180h,f
	rlf	(___aldiv@divisor+1)^0180h,f
	rlf	(___aldiv@divisor+2)^0180h,f
	rlf	(___aldiv@divisor+3)^0180h,f
	decfsz	(??___aldiv+0)^0180h+0
	goto	u2275
	line	28
	movlw	(01h)
	movwf	(??___aldiv+0)^0180h+0
	movf	(??___aldiv+0)^0180h+0,w
	addwf	(___aldiv@counter)^0180h,f
	goto	l2224
	line	29
	
l621:	
	line	26
	
l2224:	
	btfss	(___aldiv@divisor+3)^0180h,(31)&7
	goto	u2281
	goto	u2280
u2281:
	goto	l2222
u2280:
	goto	l2226
	
l623:	
	goto	l2226
	line	30
	
l624:	
	line	31
	
l2226:	
	movlw	01h
	movwf	(??___aldiv+0)^0180h+0
u2295:
	clrc
	rlf	(___aldiv@quotient)^0180h,f
	rlf	(___aldiv@quotient+1)^0180h,f
	rlf	(___aldiv@quotient+2)^0180h,f
	rlf	(___aldiv@quotient+3)^0180h,f
	decfsz	(??___aldiv+0)^0180h+0
	goto	u2295
	line	32
	
l2228:	
	movf	(___aldiv@divisor+3)^0180h,w
	subwf	(___aldiv@dividend+3)^0180h,w
	skipz
	goto	u2305
	movf	(___aldiv@divisor+2)^0180h,w
	subwf	(___aldiv@dividend+2)^0180h,w
	skipz
	goto	u2305
	movf	(___aldiv@divisor+1)^0180h,w
	subwf	(___aldiv@dividend+1)^0180h,w
	skipz
	goto	u2305
	movf	(___aldiv@divisor)^0180h,w
	subwf	(___aldiv@dividend)^0180h,w
u2305:
	skipc
	goto	u2301
	goto	u2300
u2301:
	goto	l2234
u2300:
	line	33
	
l2230:	
	movf	(___aldiv@divisor)^0180h,w
	subwf	(___aldiv@dividend)^0180h,f
	movf	(___aldiv@divisor+1)^0180h,w
	skipc
	incfsz	(___aldiv@divisor+1)^0180h,w
	subwf	(___aldiv@dividend+1)^0180h,f
	movf	(___aldiv@divisor+2)^0180h,w
	skipc
	incfsz	(___aldiv@divisor+2)^0180h,w
	subwf	(___aldiv@dividend+2)^0180h,f
	movf	(___aldiv@divisor+3)^0180h,w
	skipc
	incfsz	(___aldiv@divisor+3)^0180h,w
	subwf	(___aldiv@dividend+3)^0180h,f
	line	34
	
l2232:	
	bsf	(___aldiv@quotient)^0180h+(0/8),(0)&7
	goto	l2234
	line	35
	
l625:	
	line	36
	
l2234:	
	movlw	01h
u2315:
	clrc
	rrf	(___aldiv@divisor+3)^0180h,f
	rrf	(___aldiv@divisor+2)^0180h,f
	rrf	(___aldiv@divisor+1)^0180h,f
	rrf	(___aldiv@divisor)^0180h,f
	addlw	-1
	skipz
	goto	u2315

	line	37
	
l2236:	
	movlw	low(01h)
	subwf	(___aldiv@counter)^0180h,f
	btfss	status,2
	goto	u2321
	goto	u2320
u2321:
	goto	l2226
u2320:
	goto	l2238
	
l626:	
	goto	l2238
	line	38
	
l620:	
	line	39
	
l2238:	
	movf	(___aldiv@sign)^0180h,w
	skipz
	goto	u2330
	goto	l2242
u2330:
	line	40
	
l2240:	
	comf	(___aldiv@quotient)^0180h,f
	comf	(___aldiv@quotient+1)^0180h,f
	comf	(___aldiv@quotient+2)^0180h,f
	comf	(___aldiv@quotient+3)^0180h,f
	incf	(___aldiv@quotient)^0180h,f
	skipnz
	incf	(___aldiv@quotient+1)^0180h,f
	skipnz
	incf	(___aldiv@quotient+2)^0180h,f
	skipnz
	incf	(___aldiv@quotient+3)^0180h,f
	goto	l2242
	
l627:	
	line	41
	
l2242:	
	movf	(___aldiv@quotient+3)^0180h,w
	movwf	(?___aldiv+3)^0180h
	movf	(___aldiv@quotient+2)^0180h,w
	movwf	(?___aldiv+2)^0180h
	movf	(___aldiv@quotient+1)^0180h,w
	movwf	(?___aldiv+1)^0180h
	movf	(___aldiv@quotient)^0180h,w
	movwf	(?___aldiv)^0180h

	goto	l628
	
l2244:	
	line	42
	
l628:	
	return
	opt stack 0
GLOBAL	__end_of___aldiv
	__end_of___aldiv:
	signat	___aldiv,8316
	global	_TIMER0_Set

;; *************** function _TIMER0_Set *****************
;; Defined at:
;;		line 20 in file "C:\Users\filip\programs\FuzzySI\firmware - Copia\timers.c"
;; Parameters:    Size  Location     Type
;;  contagens       1    wreg     unsigned char 
;; Auto vars:     Size  Location     Type
;;  contagens       1    0[BANK3 ] unsigned char 
;; Return value:  Size  Location     Type
;;		None               void
;; Registers used:
;;		wreg
;; Tracked objects:
;;		On entry : 0/0
;;		On exit  : 0/0
;;		Unchanged: 0/0
;; Data sizes:     COMMON   BANK0   BANK1   BANK3   BANK2
;;      Params:         0       0       0       0       0
;;      Locals:         0       0       0       1       0
;;      Temps:          0       0       0       0       0
;;      Totals:         0       0       0       1       0
;;Total ram usage:        1 bytes
;; Hardware stack levels used:    1
;; Hardware stack levels required when called:    4
;; This function calls:
;;		Nothing
;; This function is called by:
;;		_main
;; This function uses a non-reentrant model
;;
psect	text6,local,class=CODE,delta=2,merge=1
	file	"C:\Users\filip\programs\FuzzySI\firmware - Copia\timers.c"
	line	20
global __ptext6
__ptext6:	;psect for function _TIMER0_Set
psect	text6
	file	"C:\Users\filip\programs\FuzzySI\firmware - Copia\timers.c"
	line	20
	global	__size_of_TIMER0_Set
	__size_of_TIMER0_Set	equ	__end_of_TIMER0_Set-_TIMER0_Set
	
_TIMER0_Set:	
;incstack = 0
	opt	stack 3
; Regs used in _TIMER0_Set: [wreg]
;TIMER0_Set@contagens stored from wreg
	bsf	status, 5	;RP0=1, select bank3
	bsf	status, 6	;RP1=1, select bank3
	movwf	(TIMER0_Set@contagens)^0180h
	line	22
	
l3196:	
;timers.c: 22: TMR0 = contagens;
	movf	(TIMER0_Set@contagens)^0180h,w
	bcf	status, 5	;RP0=0, select bank0
	bcf	status, 6	;RP1=0, select bank0
	movwf	(1)	;volatile
	line	23
	
l296:	
	return
	opt stack 0
GLOBAL	__end_of_TIMER0_Set
	__end_of_TIMER0_Set:
	signat	_TIMER0_Set,4216
	global	_TIMER0_Init

;; *************** function _TIMER0_Init *****************
;; Defined at:
;;		line 6 in file "C:\Users\filip\programs\FuzzySI\firmware - Copia\timers.c"
;; Parameters:    Size  Location     Type
;;		None
;; Auto vars:     Size  Location     Type
;;		None
;; Return value:  Size  Location     Type
;;		None               void
;; Registers used:
;;		None
;; Tracked objects:
;;		On entry : 0/0
;;		On exit  : 0/0
;;		Unchanged: 0/0
;; Data sizes:     COMMON   BANK0   BANK1   BANK3   BANK2
;;      Params:         0       0       0       0       0
;;      Locals:         0       0       0       0       0
;;      Temps:          0       0       0       0       0
;;      Totals:         0       0       0       0       0
;;Total ram usage:        0 bytes
;; Hardware stack levels used:    1
;; Hardware stack levels required when called:    4
;; This function calls:
;;		Nothing
;; This function is called by:
;;		_main
;; This function uses a non-reentrant model
;;
psect	text7,local,class=CODE,delta=2,merge=1
	line	6
global __ptext7
__ptext7:	;psect for function _TIMER0_Init
psect	text7
	file	"C:\Users\filip\programs\FuzzySI\firmware - Copia\timers.c"
	line	6
	global	__size_of_TIMER0_Init
	__size_of_TIMER0_Init	equ	__end_of_TIMER0_Init-_TIMER0_Init
	
_TIMER0_Init:	
;incstack = 0
	opt	stack 3
; Regs used in _TIMER0_Init: []
	line	8
	
l3198:	
;timers.c: 8: OPTION_REGbits.T0CS = 0;
	bsf	status, 5	;RP0=1, select bank1
	bcf	status, 6	;RP1=0, select bank1
	bcf	(129)^080h,5	;volatile
	line	9
;timers.c: 9: OPTION_REGbits.T0SE = 0;
	bcf	(129)^080h,4	;volatile
	line	10
;timers.c: 10: OPTION_REGbits.PSA = 0;
	bcf	(129)^080h,3	;volatile
	line	11
;timers.c: 11: OPTION_REGbits.PS2 = 1;
	bsf	(129)^080h,2	;volatile
	line	12
;timers.c: 12: OPTION_REGbits.PS1 = 1;
	bsf	(129)^080h,1	;volatile
	line	13
;timers.c: 13: OPTION_REGbits.PS0 = 1;
	bsf	(129)^080h,0	;volatile
	line	14
;timers.c: 14: INTCONbits.TMR0IF = 0;
	bcf	(11),2	;volatile
	line	15
;timers.c: 15: INTCONbits.TMR0IE = 1;
	bsf	(11),5	;volatile
	line	16
	
l293:	
	return
	opt stack 0
GLOBAL	__end_of_TIMER0_Init
	__end_of_TIMER0_Init:
	signat	_TIMER0_Init,88
	global	_PWM_Init

;; *************** function _PWM_Init *****************
;; Defined at:
;;		line 5 in file "C:\Users\filip\programs\FuzzySI\firmware - Copia\pwm.c"
;; Parameters:    Size  Location     Type
;;		None
;; Auto vars:     Size  Location     Type
;;		None
;; Return value:  Size  Location     Type
;;		None               void
;; Registers used:
;;		wreg
;; Tracked objects:
;;		On entry : 0/0
;;		On exit  : 0/0
;;		Unchanged: 0/0
;; Data sizes:     COMMON   BANK0   BANK1   BANK3   BANK2
;;      Params:         0       0       0       0       0
;;      Locals:         0       0       0       0       0
;;      Temps:          0       0       0       0       0
;;      Totals:         0       0       0       0       0
;;Total ram usage:        0 bytes
;; Hardware stack levels used:    1
;; Hardware stack levels required when called:    4
;; This function calls:
;;		Nothing
;; This function is called by:
;;		_main
;; This function uses a non-reentrant model
;;
psect	text8,local,class=CODE,delta=2,merge=1
	file	"C:\Users\filip\programs\FuzzySI\firmware - Copia\pwm.c"
	line	5
global __ptext8
__ptext8:	;psect for function _PWM_Init
psect	text8
	file	"C:\Users\filip\programs\FuzzySI\firmware - Copia\pwm.c"
	line	5
	global	__size_of_PWM_Init
	__size_of_PWM_Init	equ	__end_of_PWM_Init-_PWM_Init
	
_PWM_Init:	
;incstack = 0
	opt	stack 3
; Regs used in _PWM_Init: [wreg]
	line	14
	
l3200:	
;pwm.c: 14: T2CONbits.T2CKPS1 = 1;
	bcf	status, 5	;RP0=0, select bank0
	bcf	status, 6	;RP1=0, select bank0
	bsf	(18),1	;volatile
	line	15
;pwm.c: 15: T2CONbits.T2CKPS0 = 0;
	bcf	(18),0	;volatile
	line	18
;pwm.c: 18: T2CONbits.TOUTPS3 = 0;
	bcf	(18),6	;volatile
	line	19
;pwm.c: 19: T2CONbits.TOUTPS2 = 0;
	bcf	(18),5	;volatile
	line	20
;pwm.c: 20: T2CONbits.TOUTPS1 = 0;
	bcf	(18),4	;volatile
	line	21
;pwm.c: 21: T2CONbits.TOUTPS0 = 0;
	bcf	(18),3	;volatile
	line	24
;pwm.c: 24: T2CONbits.TMR2ON = 1;
	bsf	(18),2	;volatile
	line	27
	
l3202:	
;pwm.c: 27: PR2 = 255;
	movlw	(0FFh)
	bsf	status, 5	;RP0=1, select bank1
	bcf	status, 6	;RP1=0, select bank1
	movwf	(146)^080h	;volatile
	line	43
	
l3204:	
;pwm.c: 43: CCP1CONbits.CCP1M3 = 1;
	bcf	status, 5	;RP0=0, select bank0
	bcf	status, 6	;RP1=0, select bank0
	bsf	(23),3	;volatile
	line	44
	
l3206:	
;pwm.c: 44: CCP1CONbits.CCP1M2 = 1;
	bsf	(23),2	;volatile
	line	45
	
l3208:	
;pwm.c: 45: CCP1CONbits.CCP1M1 = 1;
	bsf	(23),1	;volatile
	line	46
	
l3210:	
;pwm.c: 46: CCP1CONbits.CCP1M0 = 1;
	bsf	(23),0	;volatile
	line	49
	
l3212:	
;pwm.c: 49: PIE1bits.CCP1IE = 1;
	bsf	status, 5	;RP0=1, select bank1
	bcf	status, 6	;RP1=0, select bank1
	bsf	(140)^080h,2	;volatile
	line	50
	
l3214:	
;pwm.c: 50: PIR1bits.CCP1IF = 0;
	bcf	status, 5	;RP0=0, select bank0
	bcf	status, 6	;RP1=0, select bank0
	bcf	(12),2	;volatile
	line	53
	
l3216:	
;pwm.c: 53: CCP2CONbits.CCP2M3 = 1;
	bsf	(29),3	;volatile
	line	54
	
l3218:	
;pwm.c: 54: CCP2CONbits.CCP2M2 = 1;
	bsf	(29),2	;volatile
	line	55
	
l3220:	
;pwm.c: 55: CCP2CONbits.CCP2M1 = 1;
	bsf	(29),1	;volatile
	line	56
	
l3222:	
;pwm.c: 56: CCP2CONbits.CCP2M0 = 1;
	bsf	(29),0	;volatile
	line	59
	
l3224:	
;pwm.c: 59: PIE2bits.CCP2IE = 1;
	bsf	status, 5	;RP0=1, select bank1
	bcf	status, 6	;RP1=0, select bank1
	bsf	(141)^080h,0	;volatile
	line	60
	
l3226:	
;pwm.c: 60: PIR2bits.CCP2IF = 0;
	bcf	status, 5	;RP0=0, select bank0
	bcf	status, 6	;RP1=0, select bank0
	bcf	(13),0	;volatile
	line	61
	
l444:	
	return
	opt stack 0
GLOBAL	__end_of_PWM_Init
	__end_of_PWM_Init:
	signat	_PWM_Init,88
	global	_PWM_DutyCycle2

;; *************** function _PWM_DutyCycle2 *****************
;; Defined at:
;;		line 96 in file "C:\Users\filip\programs\FuzzySI\firmware - Copia\pwm.c"
;; Parameters:    Size  Location     Type
;;  valor           2    0[BANK3 ] int 
;; Auto vars:     Size  Location     Type
;;		None
;; Return value:  Size  Location     Type
;;		None               void
;; Registers used:
;;		wreg, status,2, status,0
;; Tracked objects:
;;		On entry : 0/0
;;		On exit  : 0/0
;;		Unchanged: 0/0
;; Data sizes:     COMMON   BANK0   BANK1   BANK3   BANK2
;;      Params:         0       0       0       2       0
;;      Locals:         0       0       0       0       0
;;      Temps:          0       0       0       2       0
;;      Totals:         0       0       0       4       0
;;Total ram usage:        4 bytes
;; Hardware stack levels used:    1
;; Hardware stack levels required when called:    4
;; This function calls:
;;		Nothing
;; This function is called by:
;;		_main
;; This function uses a non-reentrant model
;;
psect	text9,local,class=CODE,delta=2,merge=1
	line	96
global __ptext9
__ptext9:	;psect for function _PWM_DutyCycle2
psect	text9
	file	"C:\Users\filip\programs\FuzzySI\firmware - Copia\pwm.c"
	line	96
	global	__size_of_PWM_DutyCycle2
	__size_of_PWM_DutyCycle2	equ	__end_of_PWM_DutyCycle2-_PWM_DutyCycle2
	
_PWM_DutyCycle2:	
;incstack = 0
	opt	stack 3
; Regs used in _PWM_DutyCycle2: [wreg+status,2+status,0]
	line	98
	
l2552:	
;pwm.c: 98: CCPR2L = valor >> 2;
	bsf	status, 5	;RP0=1, select bank3
	bsf	status, 6	;RP1=1, select bank3
	movf	(PWM_DutyCycle2@valor+1)^0180h,w
	movwf	(??_PWM_DutyCycle2+0)^0180h+0+1
	movf	(PWM_DutyCycle2@valor)^0180h,w
	movwf	(??_PWM_DutyCycle2+0)^0180h+0
	rlf	(??_PWM_DutyCycle2+0)^0180h+1,w
	rrf	(??_PWM_DutyCycle2+0)^0180h+1,f
	rrf	(??_PWM_DutyCycle2+0)^0180h+0,f
	rlf	(??_PWM_DutyCycle2+0)^0180h+1,w
	rrf	(??_PWM_DutyCycle2+0)^0180h+1,f
	rrf	(??_PWM_DutyCycle2+0)^0180h+0,f
	movf	0+(??_PWM_DutyCycle2+0)^0180h+0,w
	bcf	status, 5	;RP0=0, select bank0
	bcf	status, 6	;RP1=0, select bank0
	movwf	(27)	;volatile
	line	99
	
l2554:	
;pwm.c: 99: CCP2CON = (valor << 4)|0X0C;
	bsf	status, 5	;RP0=1, select bank3
	bsf	status, 6	;RP1=1, select bank3
	movf	(PWM_DutyCycle2@valor)^0180h,w
	movwf	(??_PWM_DutyCycle2+0)^0180h+0
	movlw	(04h)-1
u3015:
	clrc
	rlf	(??_PWM_DutyCycle2+0)^0180h+0,f
	addlw	-1
	skipz
	goto	u3015
	clrc
	rlf	(??_PWM_DutyCycle2+0)^0180h+0,w
	iorlw	0Ch
	bcf	status, 5	;RP0=0, select bank0
	bcf	status, 6	;RP1=0, select bank0
	movwf	(29)	;volatile
	line	100
	
l450:	
	return
	opt stack 0
GLOBAL	__end_of_PWM_DutyCycle2
	__end_of_PWM_DutyCycle2:
	signat	_PWM_DutyCycle2,4216
	global	_PWM_DutyCycle1

;; *************** function _PWM_DutyCycle1 *****************
;; Defined at:
;;		line 64 in file "C:\Users\filip\programs\FuzzySI\firmware - Copia\pwm.c"
;; Parameters:    Size  Location     Type
;;  valor           2    0[BANK3 ] int 
;; Auto vars:     Size  Location     Type
;;		None
;; Return value:  Size  Location     Type
;;		None               void
;; Registers used:
;;		wreg, status,2, status,0
;; Tracked objects:
;;		On entry : 0/0
;;		On exit  : 0/0
;;		Unchanged: 0/0
;; Data sizes:     COMMON   BANK0   BANK1   BANK3   BANK2
;;      Params:         0       0       0       2       0
;;      Locals:         0       0       0       0       0
;;      Temps:          0       0       0       2       0
;;      Totals:         0       0       0       4       0
;;Total ram usage:        4 bytes
;; Hardware stack levels used:    1
;; Hardware stack levels required when called:    4
;; This function calls:
;;		Nothing
;; This function is called by:
;;		_main
;; This function uses a non-reentrant model
;;
psect	text10,local,class=CODE,delta=2,merge=1
	line	64
global __ptext10
__ptext10:	;psect for function _PWM_DutyCycle1
psect	text10
	file	"C:\Users\filip\programs\FuzzySI\firmware - Copia\pwm.c"
	line	64
	global	__size_of_PWM_DutyCycle1
	__size_of_PWM_DutyCycle1	equ	__end_of_PWM_DutyCycle1-_PWM_DutyCycle1
	
_PWM_DutyCycle1:	
;incstack = 0
	opt	stack 3
; Regs used in _PWM_DutyCycle1: [wreg+status,2+status,0]
	line	91
	
l2650:	
;pwm.c: 91: CCPR1L = valor >> 2;
	bsf	status, 5	;RP0=1, select bank3
	bsf	status, 6	;RP1=1, select bank3
	movf	(PWM_DutyCycle1@valor+1)^0180h,w
	movwf	(??_PWM_DutyCycle1+0)^0180h+0+1
	movf	(PWM_DutyCycle1@valor)^0180h,w
	movwf	(??_PWM_DutyCycle1+0)^0180h+0
	rlf	(??_PWM_DutyCycle1+0)^0180h+1,w
	rrf	(??_PWM_DutyCycle1+0)^0180h+1,f
	rrf	(??_PWM_DutyCycle1+0)^0180h+0,f
	rlf	(??_PWM_DutyCycle1+0)^0180h+1,w
	rrf	(??_PWM_DutyCycle1+0)^0180h+1,f
	rrf	(??_PWM_DutyCycle1+0)^0180h+0,f
	movf	0+(??_PWM_DutyCycle1+0)^0180h+0,w
	bcf	status, 5	;RP0=0, select bank0
	bcf	status, 6	;RP1=0, select bank0
	movwf	(21)	;volatile
	line	92
	
l2652:	
;pwm.c: 92: CCP1CON = (valor << 4)|0X0C;
	bsf	status, 5	;RP0=1, select bank3
	bsf	status, 6	;RP1=1, select bank3
	movf	(PWM_DutyCycle1@valor)^0180h,w
	movwf	(??_PWM_DutyCycle1+0)^0180h+0
	movlw	(04h)-1
u3035:
	clrc
	rlf	(??_PWM_DutyCycle1+0)^0180h+0,f
	addlw	-1
	skipz
	goto	u3035
	clrc
	rlf	(??_PWM_DutyCycle1+0)^0180h+0,w
	iorlw	0Ch
	bcf	status, 5	;RP0=0, select bank0
	bcf	status, 6	;RP1=0, select bank0
	movwf	(23)	;volatile
	line	94
	
l447:	
	return
	opt stack 0
GLOBAL	__end_of_PWM_DutyCycle1
	__end_of_PWM_DutyCycle1:
	signat	_PWM_DutyCycle1,4216
	global	_LCD_WriteString

;; *************** function _LCD_WriteString *****************
;; Defined at:
;;		line 61 in file "C:\Users\filip\programs\FuzzySI\firmware - Copia\lcd.c"
;; Parameters:    Size  Location     Type
;;  Str             1    wreg     PTR const unsigned char 
;;		 -> STR_3(5), STR_2(5), STR_1(3), 
;; Auto vars:     Size  Location     Type
;;  Str             1    3[BANK3 ] PTR const unsigned char 
;;		 -> STR_3(5), STR_2(5), STR_1(3), 
;; Return value:  Size  Location     Type
;;		None               void
;; Registers used:
;;		wreg, fsr0l, fsr0h, status,2, status,0, pclath, cstack
;; Tracked objects:
;;		On entry : 0/0
;;		On exit  : 0/0
;;		Unchanged: 0/0
;; Data sizes:     COMMON   BANK0   BANK1   BANK3   BANK2
;;      Params:         0       0       0       0       0
;;      Locals:         0       0       0       1       0
;;      Temps:          0       0       0       1       0
;;      Totals:         0       0       0       2       0
;;Total ram usage:        2 bytes
;; Hardware stack levels used:    1
;; Hardware stack levels required when called:    5
;; This function calls:
;;		_LCD_WriteData
;; This function is called by:
;;		_main
;; This function uses a non-reentrant model
;;
psect	text11,local,class=CODE,delta=2,merge=1
	file	"C:\Users\filip\programs\FuzzySI\firmware - Copia\lcd.c"
	line	61
global __ptext11
__ptext11:	;psect for function _LCD_WriteString
psect	text11
	file	"C:\Users\filip\programs\FuzzySI\firmware - Copia\lcd.c"
	line	61
	global	__size_of_LCD_WriteString
	__size_of_LCD_WriteString	equ	__end_of_LCD_WriteString-_LCD_WriteString
	
_LCD_WriteString:	
;incstack = 0
	opt	stack 2
; Regs used in _LCD_WriteString: [wreg-fsr0h+status,2+status,0+pclath+cstack]
;LCD_WriteString@Str stored from wreg
	bsf	status, 5	;RP0=1, select bank3
	bsf	status, 6	;RP1=1, select bank3
	movwf	(LCD_WriteString@Str)^0180h
	line	63
	
l2678:	
;lcd.c: 63: while(*Str != '\0')
	goto	l2684
	
l325:	
	line	65
	
l2680:	
;lcd.c: 64: {
;lcd.c: 65: LCD_WriteData(*Str);
	movf	(LCD_WriteString@Str)^0180h,w
	movwf	fsr0
	fcall	stringdir
	fcall	_LCD_WriteData
	line	66
	
l2682:	
;lcd.c: 66: Str++;
	movlw	(01h)
	bsf	status, 5	;RP0=1, select bank3
	bsf	status, 6	;RP1=1, select bank3
	movwf	(??_LCD_WriteString+0)^0180h+0
	movf	(??_LCD_WriteString+0)^0180h+0,w
	addwf	(LCD_WriteString@Str)^0180h,f
	goto	l2684
	line	67
	
l324:	
	line	63
	
l2684:	
	movf	(LCD_WriteString@Str)^0180h,w
	movwf	fsr0
	fcall	stringdir
	iorlw	0
	skipz
	goto	u3051
	goto	u3050
u3051:
	goto	l2680
u3050:
	goto	l327
	
l326:	
	line	68
	
l327:	
	return
	opt stack 0
GLOBAL	__end_of_LCD_WriteString
	__end_of_LCD_WriteString:
	signat	_LCD_WriteString,4216
	global	_LCD_WriteData

;; *************** function _LCD_WriteData *****************
;; Defined at:
;;		line 47 in file "C:\Users\filip\programs\FuzzySI\firmware - Copia\lcd.c"
;; Parameters:    Size  Location     Type
;;  Byte            1    wreg     unsigned char 
;; Auto vars:     Size  Location     Type
;;  Byte            1    1[BANK3 ] unsigned char 
;; Return value:  Size  Location     Type
;;		None               void
;; Registers used:
;;		wreg
;; Tracked objects:
;;		On entry : 0/0
;;		On exit  : 0/0
;;		Unchanged: 0/0
;; Data sizes:     COMMON   BANK0   BANK1   BANK3   BANK2
;;      Params:         0       0       0       0       0
;;      Locals:         0       0       0       1       0
;;      Temps:          0       0       0       1       0
;;      Totals:         0       0       0       2       0
;;Total ram usage:        2 bytes
;; Hardware stack levels used:    1
;; Hardware stack levels required when called:    4
;; This function calls:
;;		Nothing
;; This function is called by:
;;		_LCD_WriteString
;; This function uses a non-reentrant model
;;
psect	text12,local,class=CODE,delta=2,merge=1
	line	47
global __ptext12
__ptext12:	;psect for function _LCD_WriteData
psect	text12
	file	"C:\Users\filip\programs\FuzzySI\firmware - Copia\lcd.c"
	line	47
	global	__size_of_LCD_WriteData
	__size_of_LCD_WriteData	equ	__end_of_LCD_WriteData-_LCD_WriteData
	
_LCD_WriteData:	
;incstack = 0
	opt	stack 2
; Regs used in _LCD_WriteData: [wreg]
;LCD_WriteData@Byte stored from wreg
	bsf	status, 5	;RP0=1, select bank3
	bsf	status, 6	;RP1=1, select bank3
	movwf	(LCD_WriteData@Byte)^0180h
	line	49
	
l2198:	
;lcd.c: 49: PORTEbits.RE0 = 1;
	bcf	status, 5	;RP0=0, select bank0
	bcf	status, 6	;RP1=0, select bank0
	bsf	(9),0	;volatile
	line	51
	
l2200:	
;lcd.c: 51: PORTD = Byte;
	bsf	status, 5	;RP0=1, select bank3
	bsf	status, 6	;RP1=1, select bank3
	movf	(LCD_WriteData@Byte)^0180h,w
	bcf	status, 5	;RP0=0, select bank0
	bcf	status, 6	;RP1=0, select bank0
	movwf	(8)	;volatile
	line	53
	
l2202:	
;lcd.c: 53: PORTEbits.RE1 = 1;
	bsf	(9),1	;volatile
	line	55
;lcd.c: 55: _delay((unsigned long)((40)*(18432000/4000000.0)));
	opt asmopt_off
movlw	61
	bsf	status, 5	;RP0=1, select bank3
	bsf	status, 6	;RP1=1, select bank3
movwf	(??_LCD_WriteData+0)^0180h+0,f
u5907:
decfsz	(??_LCD_WriteData+0)^0180h+0,f
	goto	u5907
opt asmopt_on

	line	57
	
l2204:	
;lcd.c: 57: PORTEbits.RE1 = 0;
	bcf	status, 5	;RP0=0, select bank0
	bcf	status, 6	;RP1=0, select bank0
	bcf	(9),1	;volatile
	line	58
	
l321:	
	return
	opt stack 0
GLOBAL	__end_of_LCD_WriteData
	__end_of_LCD_WriteData:
	signat	_LCD_WriteData,4216
	global	_LCD_Init

;; *************** function _LCD_Init *****************
;; Defined at:
;;		line 87 in file "C:\Users\filip\programs\FuzzySI\firmware - Copia\lcd.c"
;; Parameters:    Size  Location     Type
;;		None
;; Auto vars:     Size  Location     Type
;;		None
;; Return value:  Size  Location     Type
;;		None               void
;; Registers used:
;;		wreg, status,2, status,0, pclath, cstack
;; Tracked objects:
;;		On entry : 0/0
;;		On exit  : 0/0
;;		Unchanged: 0/0
;; Data sizes:     COMMON   BANK0   BANK1   BANK3   BANK2
;;      Params:         0       0       0       0       0
;;      Locals:         0       0       0       0       0
;;      Temps:          0       0       0       2       0
;;      Totals:         0       0       0       2       0
;;Total ram usage:        2 bytes
;; Hardware stack levels used:    1
;; Hardware stack levels required when called:    5
;; This function calls:
;;		_LCD_WriteCmd
;; This function is called by:
;;		_main
;; This function uses a non-reentrant model
;;
psect	text13,local,class=CODE,delta=2,merge=1
	line	87
global __ptext13
__ptext13:	;psect for function _LCD_Init
psect	text13
	file	"C:\Users\filip\programs\FuzzySI\firmware - Copia\lcd.c"
	line	87
	global	__size_of_LCD_Init
	__size_of_LCD_Init	equ	__end_of_LCD_Init-_LCD_Init
	
_LCD_Init:	
;incstack = 0
	opt	stack 2
; Regs used in _LCD_Init: [wreg+status,2+status,0+pclath+cstack]
	line	90
	
l2626:	
;lcd.c: 90: ADCON1bits.PCFG3 = 0;
	bsf	status, 5	;RP0=1, select bank1
	bcf	status, 6	;RP1=0, select bank1
	bcf	(159)^080h,3	;volatile
	line	91
;lcd.c: 91: ADCON1bits.PCFG2 = 1;
	bsf	(159)^080h,2	;volatile
	line	92
;lcd.c: 92: ADCON1bits.PCFG1 = 0;
	bcf	(159)^080h,1	;volatile
	line	93
;lcd.c: 93: ADCON1bits.PCFG0 = 0;
	bcf	(159)^080h,0	;volatile
	line	95
	
l2628:	
;lcd.c: 95: _delay((unsigned long)((15)*(18432000/4000.0)));
	opt asmopt_off
movlw	90
	bsf	status, 5	;RP0=1, select bank3
	bsf	status, 6	;RP1=1, select bank3
movwf	((??_LCD_Init+0)^0180h+0+1),f
	movlw	195
movwf	((??_LCD_Init+0)^0180h+0),f
u5917:
	decfsz	((??_LCD_Init+0)^0180h+0),f
	goto	u5917
	decfsz	((??_LCD_Init+0)^0180h+0+1),f
	goto	u5917
opt asmopt_on

	line	97
	
l2630:	
;lcd.c: 97: LCD_WriteCmd(0x30);
	movlw	(030h)
	fcall	_LCD_WriteCmd
	line	98
	
l2632:	
;lcd.c: 98: _delay((unsigned long)((4)*(18432000/4000.0)));
	opt asmopt_off
movlw	24
	bsf	status, 5	;RP0=1, select bank3
	bsf	status, 6	;RP1=1, select bank3
movwf	((??_LCD_Init+0)^0180h+0+1),f
	movlw	239
movwf	((??_LCD_Init+0)^0180h+0),f
u5927:
	decfsz	((??_LCD_Init+0)^0180h+0),f
	goto	u5927
	decfsz	((??_LCD_Init+0)^0180h+0+1),f
	goto	u5927
opt asmopt_on

	line	100
;lcd.c: 100: LCD_WriteCmd(0x30);
	movlw	(030h)
	fcall	_LCD_WriteCmd
	line	101
	
l2634:	
;lcd.c: 101: _delay((unsigned long)((100)*(18432000/4000000.0)));
	opt asmopt_off
movlw	153
	bsf	status, 5	;RP0=1, select bank3
	bsf	status, 6	;RP1=1, select bank3
movwf	(??_LCD_Init+0)^0180h+0,f
u5937:
decfsz	(??_LCD_Init+0)^0180h+0,f
	goto	u5937
opt asmopt_on

	line	103
	
l2636:	
;lcd.c: 103: LCD_WriteCmd(0x30);
	movlw	(030h)
	fcall	_LCD_WriteCmd
	line	104
;lcd.c: 104: _delay((unsigned long)((40)*(18432000/4000000.0)));
	opt asmopt_off
movlw	61
	bsf	status, 5	;RP0=1, select bank3
	bsf	status, 6	;RP1=1, select bank3
movwf	(??_LCD_Init+0)^0180h+0,f
u5947:
decfsz	(??_LCD_Init+0)^0180h+0,f
	goto	u5947
opt asmopt_on

	line	106
	
l2638:	
;lcd.c: 106: LCD_WriteCmd(0x38);
	movlw	(038h)
	fcall	_LCD_WriteCmd
	line	107
	
l2640:	
;lcd.c: 107: _delay((unsigned long)((40)*(18432000/4000000.0)));
	opt asmopt_off
movlw	61
	bsf	status, 5	;RP0=1, select bank3
	bsf	status, 6	;RP1=1, select bank3
movwf	(??_LCD_Init+0)^0180h+0,f
u5957:
decfsz	(??_LCD_Init+0)^0180h+0,f
	goto	u5957
opt asmopt_on

	line	109
;lcd.c: 109: LCD_WriteCmd(0x01);
	movlw	(01h)
	fcall	_LCD_WriteCmd
	line	110
	
l2642:	
;lcd.c: 110: _delay((unsigned long)((2)*(18432000/4000.0)));
	opt asmopt_off
movlw	12
	bsf	status, 5	;RP0=1, select bank3
	bsf	status, 6	;RP1=1, select bank3
movwf	((??_LCD_Init+0)^0180h+0+1),f
	movlw	247
movwf	((??_LCD_Init+0)^0180h+0),f
u5967:
	decfsz	((??_LCD_Init+0)^0180h+0),f
	goto	u5967
	decfsz	((??_LCD_Init+0)^0180h+0+1),f
	goto	u5967
opt asmopt_on

	line	112
	
l2644:	
;lcd.c: 112: LCD_WriteCmd(0x0C);
	movlw	(0Ch)
	fcall	_LCD_WriteCmd
	line	113
;lcd.c: 113: _delay((unsigned long)((40)*(18432000/4000000.0)));
	opt asmopt_off
movlw	61
	bsf	status, 5	;RP0=1, select bank3
	bsf	status, 6	;RP1=1, select bank3
movwf	(??_LCD_Init+0)^0180h+0,f
u5977:
decfsz	(??_LCD_Init+0)^0180h+0,f
	goto	u5977
opt asmopt_on

	line	115
	
l2646:	
;lcd.c: 115: LCD_WriteCmd(0x06);
	movlw	(06h)
	fcall	_LCD_WriteCmd
	line	116
	
l2648:	
;lcd.c: 116: _delay((unsigned long)((40)*(18432000/4000000.0)));
	opt asmopt_off
movlw	61
	bsf	status, 5	;RP0=1, select bank3
	bsf	status, 6	;RP1=1, select bank3
movwf	(??_LCD_Init+0)^0180h+0,f
u5987:
decfsz	(??_LCD_Init+0)^0180h+0,f
	goto	u5987
opt asmopt_on

	line	117
	
l333:	
	return
	opt stack 0
GLOBAL	__end_of_LCD_Init
	__end_of_LCD_Init:
	signat	_LCD_Init,88
	global	_LCD_Cursor

;; *************** function _LCD_Cursor *****************
;; Defined at:
;;		line 10 in file "C:\Users\filip\programs\FuzzySI\firmware - Copia\lcd.c"
;; Parameters:    Size  Location     Type
;;  Row             1    wreg     unsigned char 
;;  Col             1    0[BANK3 ] unsigned char 
;; Auto vars:     Size  Location     Type
;;  Row             1    2[BANK3 ] unsigned char 
;; Return value:  Size  Location     Type
;;		None               void
;; Registers used:
;;		wreg, status,2, status,0
;; Tracked objects:
;;		On entry : 0/0
;;		On exit  : 0/0
;;		Unchanged: 0/0
;; Data sizes:     COMMON   BANK0   BANK1   BANK3   BANK2
;;      Params:         0       0       0       1       0
;;      Locals:         0       0       0       1       0
;;      Temps:          0       0       0       1       0
;;      Totals:         0       0       0       3       0
;;Total ram usage:        3 bytes
;; Hardware stack levels used:    1
;; Hardware stack levels required when called:    4
;; This function calls:
;;		Nothing
;; This function is called by:
;;		_main
;; This function uses a non-reentrant model
;;
psect	text14,local,class=CODE,delta=2,merge=1
	line	10
global __ptext14
__ptext14:	;psect for function _LCD_Cursor
psect	text14
	file	"C:\Users\filip\programs\FuzzySI\firmware - Copia\lcd.c"
	line	10
	global	__size_of_LCD_Cursor
	__size_of_LCD_Cursor	equ	__end_of_LCD_Cursor-_LCD_Cursor
	
_LCD_Cursor:	
;incstack = 0
	opt	stack 3
; Regs used in _LCD_Cursor: [wreg+status,2+status,0]
;LCD_Cursor@Row stored from wreg
	bsf	status, 5	;RP0=1, select bank3
	bsf	status, 6	;RP1=1, select bank3
	movwf	(LCD_Cursor@Row)^0180h
	line	12
	
l2664:	
;lcd.c: 12: PORTEbits.RE0 = 0;
	bcf	status, 5	;RP0=0, select bank0
	bcf	status, 6	;RP1=0, select bank0
	bcf	(9),0	;volatile
	line	14
	
l2666:	
;lcd.c: 14: if (Row == 0)
	bsf	status, 5	;RP0=1, select bank3
	bsf	status, 6	;RP1=1, select bank3
	movf	(LCD_Cursor@Row)^0180h,f
	skipz
	goto	u3041
	goto	u3040
u3041:
	goto	l2670
u3040:
	line	16
	
l2668:	
;lcd.c: 15: {
;lcd.c: 16: PORTD = 0x80 + Col;
	movf	(LCD_Cursor@Col)^0180h,w
	addlw	080h
	bcf	status, 5	;RP0=0, select bank0
	bcf	status, 6	;RP1=0, select bank0
	movwf	(8)	;volatile
	line	17
;lcd.c: 17: }
	goto	l2672
	line	18
	
l313:	
	line	20
	
l2670:	
;lcd.c: 18: else
;lcd.c: 19: {
;lcd.c: 20: PORTD = 0xC0 + Col;
	bsf	status, 5	;RP0=1, select bank3
	bsf	status, 6	;RP1=1, select bank3
	movf	(LCD_Cursor@Col)^0180h,w
	addlw	0C0h
	bcf	status, 5	;RP0=0, select bank0
	bcf	status, 6	;RP1=0, select bank0
	movwf	(8)	;volatile
	goto	l2672
	line	21
	
l314:	
	line	24
	
l2672:	
;lcd.c: 21: }
;lcd.c: 24: PORTEbits.RE1 = 1;
	bsf	(9),1	;volatile
	line	26
	
l2674:	
;lcd.c: 26: _delay((unsigned long)((40)*(18432000/4000000.0)));
	opt asmopt_off
movlw	61
	bsf	status, 5	;RP0=1, select bank3
	bsf	status, 6	;RP1=1, select bank3
movwf	(??_LCD_Cursor+0)^0180h+0,f
u5997:
decfsz	(??_LCD_Cursor+0)^0180h+0,f
	goto	u5997
opt asmopt_on

	line	28
	
l2676:	
;lcd.c: 28: PORTEbits.RE1 = 0;
	bcf	status, 5	;RP0=0, select bank0
	bcf	status, 6	;RP1=0, select bank0
	bcf	(9),1	;volatile
	line	29
	
l315:	
	return
	opt stack 0
GLOBAL	__end_of_LCD_Cursor
	__end_of_LCD_Cursor:
	signat	_LCD_Cursor,8312
	global	_LCD_Clear

;; *************** function _LCD_Clear *****************
;; Defined at:
;;		line 71 in file "C:\Users\filip\programs\FuzzySI\firmware - Copia\lcd.c"
;; Parameters:    Size  Location     Type
;;		None
;; Auto vars:     Size  Location     Type
;;		None
;; Return value:  Size  Location     Type
;;		None               void
;; Registers used:
;;		wreg, status,2, status,0, pclath, cstack
;; Tracked objects:
;;		On entry : 0/0
;;		On exit  : 0/0
;;		Unchanged: 0/0
;; Data sizes:     COMMON   BANK0   BANK1   BANK3   BANK2
;;      Params:         0       0       0       0       0
;;      Locals:         0       0       0       0       0
;;      Temps:          0       0       0       2       0
;;      Totals:         0       0       0       2       0
;;Total ram usage:        2 bytes
;; Hardware stack levels used:    1
;; Hardware stack levels required when called:    5
;; This function calls:
;;		_LCD_WriteCmd
;; This function is called by:
;;		_main
;; This function uses a non-reentrant model
;;
psect	text15,local,class=CODE,delta=2,merge=1
	line	71
global __ptext15
__ptext15:	;psect for function _LCD_Clear
psect	text15
	file	"C:\Users\filip\programs\FuzzySI\firmware - Copia\lcd.c"
	line	71
	global	__size_of_LCD_Clear
	__size_of_LCD_Clear	equ	__end_of_LCD_Clear-_LCD_Clear
	
_LCD_Clear:	
;incstack = 0
	opt	stack 2
; Regs used in _LCD_Clear: [wreg+status,2+status,0+pclath+cstack]
	line	73
	
l2654:	
;lcd.c: 73: LCD_WriteCmd(0x01);
	movlw	(01h)
	fcall	_LCD_WriteCmd
	line	75
	
l2656:	
;lcd.c: 75: _delay((unsigned long)((2)*(18432000/4000.0)));
	opt asmopt_off
movlw	12
	bsf	status, 5	;RP0=1, select bank3
	bsf	status, 6	;RP1=1, select bank3
movwf	((??_LCD_Clear+0)^0180h+0+1),f
	movlw	247
movwf	((??_LCD_Clear+0)^0180h+0),f
u6007:
	decfsz	((??_LCD_Clear+0)^0180h+0),f
	goto	u6007
	decfsz	((??_LCD_Clear+0)^0180h+0+1),f
	goto	u6007
opt asmopt_on

	line	77
	
l2658:	
;lcd.c: 77: LCD_WriteCmd(0x0C);
	movlw	(0Ch)
	fcall	_LCD_WriteCmd
	line	79
;lcd.c: 79: _delay((unsigned long)((40)*(18432000/4000000.0)));
	opt asmopt_off
movlw	61
	bsf	status, 5	;RP0=1, select bank3
	bsf	status, 6	;RP1=1, select bank3
movwf	(??_LCD_Clear+0)^0180h+0,f
u6017:
decfsz	(??_LCD_Clear+0)^0180h+0,f
	goto	u6017
opt asmopt_on

	line	81
	
l2660:	
;lcd.c: 81: LCD_WriteCmd(0x06);
	movlw	(06h)
	fcall	_LCD_WriteCmd
	line	83
	
l2662:	
;lcd.c: 83: _delay((unsigned long)((40)*(18432000/4000000.0)));
	opt asmopt_off
movlw	61
	bsf	status, 5	;RP0=1, select bank3
	bsf	status, 6	;RP1=1, select bank3
movwf	(??_LCD_Clear+0)^0180h+0,f
u6027:
decfsz	(??_LCD_Clear+0)^0180h+0,f
	goto	u6027
opt asmopt_on

	line	84
	
l330:	
	return
	opt stack 0
GLOBAL	__end_of_LCD_Clear
	__end_of_LCD_Clear:
	signat	_LCD_Clear,88
	global	_LCD_WriteCmd

;; *************** function _LCD_WriteCmd *****************
;; Defined at:
;;		line 32 in file "C:\Users\filip\programs\FuzzySI\firmware - Copia\lcd.c"
;; Parameters:    Size  Location     Type
;;  Byte            1    wreg     unsigned char 
;; Auto vars:     Size  Location     Type
;;  Byte            1    1[BANK3 ] unsigned char 
;; Return value:  Size  Location     Type
;;		None               void
;; Registers used:
;;		wreg
;; Tracked objects:
;;		On entry : 0/0
;;		On exit  : 0/0
;;		Unchanged: 0/0
;; Data sizes:     COMMON   BANK0   BANK1   BANK3   BANK2
;;      Params:         0       0       0       0       0
;;      Locals:         0       0       0       1       0
;;      Temps:          0       0       0       1       0
;;      Totals:         0       0       0       2       0
;;Total ram usage:        2 bytes
;; Hardware stack levels used:    1
;; Hardware stack levels required when called:    4
;; This function calls:
;;		Nothing
;; This function is called by:
;;		_LCD_Clear
;;		_LCD_Init
;; This function uses a non-reentrant model
;;
psect	text16,local,class=CODE,delta=2,merge=1
	line	32
global __ptext16
__ptext16:	;psect for function _LCD_WriteCmd
psect	text16
	file	"C:\Users\filip\programs\FuzzySI\firmware - Copia\lcd.c"
	line	32
	global	__size_of_LCD_WriteCmd
	__size_of_LCD_WriteCmd	equ	__end_of_LCD_WriteCmd-_LCD_WriteCmd
	
_LCD_WriteCmd:	
;incstack = 0
	opt	stack 2
; Regs used in _LCD_WriteCmd: [wreg]
;LCD_WriteCmd@Byte stored from wreg
	bsf	status, 5	;RP0=1, select bank3
	bsf	status, 6	;RP1=1, select bank3
	movwf	(LCD_WriteCmd@Byte)^0180h
	line	34
	
l2190:	
;lcd.c: 34: PORTEbits.RE0 = 0;
	bcf	status, 5	;RP0=0, select bank0
	bcf	status, 6	;RP1=0, select bank0
	bcf	(9),0	;volatile
	line	36
	
l2192:	
;lcd.c: 36: PORTD = Byte;
	bsf	status, 5	;RP0=1, select bank3
	bsf	status, 6	;RP1=1, select bank3
	movf	(LCD_WriteCmd@Byte)^0180h,w
	bcf	status, 5	;RP0=0, select bank0
	bcf	status, 6	;RP1=0, select bank0
	movwf	(8)	;volatile
	line	39
	
l2194:	
;lcd.c: 39: PORTEbits.RE1 = 1;
	bsf	(9),1	;volatile
	line	41
;lcd.c: 41: _delay((unsigned long)((40)*(18432000/4000000.0)));
	opt asmopt_off
movlw	61
	bsf	status, 5	;RP0=1, select bank3
	bsf	status, 6	;RP1=1, select bank3
movwf	(??_LCD_WriteCmd+0)^0180h+0,f
u6037:
decfsz	(??_LCD_WriteCmd+0)^0180h+0,f
	goto	u6037
opt asmopt_on

	line	43
	
l2196:	
;lcd.c: 43: PORTEbits.RE1 = 0;
	bcf	status, 5	;RP0=0, select bank0
	bcf	status, 6	;RP1=0, select bank0
	bcf	(9),1	;volatile
	line	44
	
l318:	
	return
	opt stack 0
GLOBAL	__end_of_LCD_WriteCmd
	__end_of_LCD_WriteCmd:
	signat	_LCD_WriteCmd,4216
	global	_ISR

;; *************** function _ISR *****************
;; Defined at:
;;		line 166 in file "C:\Users\filip\programs\FuzzySI\firmware - Copia\main.c"
;; Parameters:    Size  Location     Type
;;		None
;; Auto vars:     Size  Location     Type
;;  index           1   15[BANK1 ] unsigned char 
;;  a               2   27[BANK1 ] int 
;;  a               2   25[BANK1 ] int 
;;  a               2   23[BANK1 ] int 
;;  a               2   21[BANK1 ] int 
;;  checksum        1   13[BANK1 ] unsigned char 
;;  a               2   35[BANK1 ] int 
;;  x               3   37[BANK1 ] float 
;;  rule            3   32[BANK1 ] float 
;;  total_area      3   29[BANK1 ] float 
;;  soma            3   18[BANK1 ] float 
;;  reajuste        3    8[BANK1 ] float 
;;  delta           2   16[BANK1 ] int 
;;  rpmAux          2    0[BANK1 ] int 
;;  byte            1   14[BANK1 ] unsigned char 
;; Return value:  Size  Location     Type
;;		None               void
;; Registers used:
;;		wreg, fsr0l, fsr0h, status,2, status,0, btemp+1, pclath, cstack
;; Tracked objects:
;;		On entry : 0/0
;;		On exit  : 0/0
;;		Unchanged: 0/0
;; Data sizes:     COMMON   BANK0   BANK1   BANK3   BANK2
;;      Params:         0       0       0       0       0
;;      Locals:         0       0      40       0       0
;;      Temps:          0       6       0       0       0
;;      Totals:         0       6      40       0       0
;;Total ram usage:       46 bytes
;; Hardware stack levels used:    1
;; Hardware stack levels required when called:    3
;; This function calls:
;;		_USART_ReceiveChar
;;		___awtoft
;;		___bmul
;;		___ftadd
;;		___ftdiv
;;		___ftge
;;		___ftmul
;;		___ftneg
;;		___fttol
;;		___lwdiv
;;		___lwtoft
;;		___wmul
;;		_abs
;;		_maximo
;;		_minimo
;;		_send
;;		_trapmf
;;		i1_PWM_DutyCycle2
;;		i1_TIMER0_Set
;;		i1_inicia
;;		i1_res
;;		i1_set
;; This function is called by:
;;		Interrupt level 1
;; This function uses a non-reentrant model
;;
psect	text17,local,class=CODE,delta=2,merge=1
	file	"C:\Users\filip\programs\FuzzySI\firmware - Copia\main.c"
	line	166
global __ptext17
__ptext17:	;psect for function _ISR
psect	text17
	file	"C:\Users\filip\programs\FuzzySI\firmware - Copia\main.c"
	line	166
	global	__size_of_ISR
	__size_of_ISR	equ	__end_of_ISR-_ISR
	
_ISR:	
;incstack = 0
	opt	stack 2
; Regs used in _ISR: [wreg-fsr0h+status,2+status,0+btemp+1+pclath+cstack]
psect	intentry,class=CODE,delta=2
global __pintentry
__pintentry:
global interrupt_function
interrupt_function:
	global saved_w
	saved_w	set	btemp+0
	movwf	saved_w
	swapf	status,w
	bcf	status, 5	;RP0=0, select bank0
	bcf	status, 6	;RP1=0, select bank0
	movwf	(??_ISR+2)
	movf	fsr0,w
	movwf	(??_ISR+3)
	movf	pclath,w
	movwf	(??_ISR+4)
	movf	btemp+1,w
	movwf	(??_ISR+5)
	ljmp	_ISR
psect	text17
	line	168
	
i1l3764:	
;main.c: 168: if (PIR1bits.RCIF) {
	btfss	(12),5	;volatile
	goto	u535_21
	goto	u535_20
u535_21:
	goto	i1l3830
u535_20:
	line	171
	
i1l3766:	
;main.c: 171: unsigned char byte = USART_ReceiveChar();
	fcall	_USART_ReceiveChar
	bcf	status, 5	;RP0=0, select bank0
	bcf	status, 6	;RP1=0, select bank0
	movwf	(??_ISR+0)+0
	movf	(??_ISR+0)+0,w
	bsf	status, 5	;RP0=1, select bank1
	bcf	status, 6	;RP1=0, select bank1
	movwf	(ISR@byte)^080h
	line	172
	
i1l3768:	
;main.c: 172: if (byte == '#')
	movf	(ISR@byte)^080h,w
	xorlw	023h
	skipz
	goto	u536_21
	goto	u536_20
u536_21:
	goto	i1l3772
u536_20:
	line	174
	
i1l3770:	
;main.c: 173: {
;main.c: 174: receiveIndex = 0;
	clrf	(_receiveIndex)^080h
	clrf	(_receiveIndex+1)^080h
	line	175
;main.c: 175: } else {
	goto	i1l3774
	
i1l141:	
	line	176
	
i1l3772:	
;main.c: 176: receiveIndex++;
	movlw	low(01h)
	addwf	(_receiveIndex)^080h,f
	skipnc
	incf	(_receiveIndex+1)^080h,f
	movlw	high(01h)
	addwf	(_receiveIndex+1)^080h,f
	goto	i1l3774
	line	177
	
i1l142:	
	line	178
	
i1l3774:	
;main.c: 177: }
;main.c: 178: receivedBuffer[receiveIndex] = byte;
	movf	(ISR@byte)^080h,w
	bcf	status, 5	;RP0=0, select bank0
	bcf	status, 6	;RP1=0, select bank0
	movwf	(??_ISR+0)+0
	bsf	status, 5	;RP0=1, select bank1
	bcf	status, 6	;RP1=0, select bank1
	movf	(_receiveIndex)^080h,w
	addlw	_receivedBuffer&0ffh
	movwf	fsr0
	bcf	status, 5	;RP0=0, select bank0
	bcf	status, 6	;RP1=0, select bank0
	movf	(??_ISR+0)+0,w
	bcf	status, 7	;select IRP bank1
	movwf	indf
	line	180
	
i1l3776:	
;main.c: 180: if (receiveIndex == 6) {
	movlw	06h
	bsf	status, 5	;RP0=1, select bank1
	bcf	status, 6	;RP1=0, select bank1
	xorwf	(_receiveIndex)^080h,w
	iorwf	(_receiveIndex+1)^080h,w
	skipz
	goto	u537_21
	goto	u537_20
u537_21:
	goto	i1l3828
u537_20:
	line	181
	
i1l3778:	
;main.c: 181: receiveIndex = 0;
	clrf	(_receiveIndex)^080h
	clrf	(_receiveIndex+1)^080h
	line	183
	
i1l3780:	
;main.c: 183: if (receivedBuffer[1] == 'A' && receivedBuffer[2] == 'A' && receivedBuffer[3] == 'A') {
	movf	0+(_receivedBuffer)^080h+01h,w
	xorlw	041h
	skipz
	goto	u538_21
	goto	u538_20
u538_21:
	goto	i1l3788
u538_20:
	
i1l3782:	
	movf	0+(_receivedBuffer)^080h+02h,w
	xorlw	041h
	skipz
	goto	u539_21
	goto	u539_20
u539_21:
	goto	i1l3788
u539_20:
	
i1l3784:	
	movf	0+(_receivedBuffer)^080h+03h,w
	xorlw	041h
	skipz
	goto	u540_21
	goto	u540_20
u540_21:
	goto	i1l3788
u540_20:
	line	184
	
i1l3786:	
;main.c: 184: send();
	fcall	_send
	line	185
;main.c: 185: } else {
	goto	i1l3828
	
i1l144:	
	line	186
	
i1l3788:	
;main.c: 186: if (receivedBuffer[0] == '#' && receivedBuffer[1] == '$' && receivedBuffer[2] == ':') {
	bsf	status, 5	;RP0=1, select bank1
	bcf	status, 6	;RP1=0, select bank1
	movf	(_receivedBuffer)^080h,w
	xorlw	023h
	skipz
	goto	u541_21
	goto	u541_20
u541_21:
	goto	i1l3828
u541_20:
	
i1l3790:	
	movf	0+(_receivedBuffer)^080h+01h,w
	xorlw	024h
	skipz
	goto	u542_21
	goto	u542_20
u542_21:
	goto	i1l3828
u542_20:
	
i1l3792:	
	movf	0+(_receivedBuffer)^080h+02h,w
	xorlw	03Ah
	skipz
	goto	u543_21
	goto	u543_20
u543_21:
	goto	i1l3828
u543_20:
	line	187
	
i1l3794:	
;main.c: 187: unsigned char checksum = 0x00;
	clrf	(ISR@checksum)^080h
	line	188
;main.c: 188: for (unsigned char index = 0; index < 6; index++) {
	clrf	(ISR@index)^080h
	
i1l3796:	
	movlw	(06h)
	subwf	(ISR@index)^080h,w
	skipc
	goto	u544_21
	goto	u544_20
u544_21:
	goto	i1l3800
u544_20:
	goto	i1l3806
	
i1l3798:	
	goto	i1l3806
	
i1l147:	
	line	189
	
i1l3800:	
;main.c: 189: checksum ^= receivedBuffer[index];
	movf	(ISR@index)^080h,w
	addlw	_receivedBuffer&0ffh
	movwf	fsr0
	bcf	status, 7	;select IRP bank1
	movf	indf,w
	bcf	status, 5	;RP0=0, select bank0
	bcf	status, 6	;RP1=0, select bank0
	movwf	(??_ISR+0)+0
	movf	(??_ISR+0)+0,w
	bsf	status, 5	;RP0=1, select bank1
	bcf	status, 6	;RP1=0, select bank1
	xorwf	(ISR@checksum)^080h,f
	line	188
	
i1l3802:	
	movlw	(01h)
	bcf	status, 5	;RP0=0, select bank0
	bcf	status, 6	;RP1=0, select bank0
	movwf	(??_ISR+0)+0
	movf	(??_ISR+0)+0,w
	bsf	status, 5	;RP0=1, select bank1
	bcf	status, 6	;RP1=0, select bank1
	addwf	(ISR@index)^080h,f
	
i1l3804:	
	movlw	(06h)
	subwf	(ISR@index)^080h,w
	skipc
	goto	u545_21
	goto	u545_20
u545_21:
	goto	i1l3800
u545_20:
	goto	i1l3806
	
i1l148:	
	line	191
	
i1l3806:	
;main.c: 190: }
;main.c: 191: if (receivedBuffer[6] == checksum) {
	movf	0+(_receivedBuffer)^080h+06h,w
	xorwf	(ISR@checksum)^080h,w
	skipz
	goto	u546_21
	goto	u546_20
u546_21:
	goto	i1l3828
u546_20:
	line	192
	
i1l3808:	
;main.c: 192: if(receivedBuffer[3] == 'M'){
	movf	0+(_receivedBuffer)^080h+03h,w
	xorlw	04Dh
	skipz
	goto	u547_21
	goto	u547_20
u547_21:
	goto	i1l3812
u547_20:
	line	193
	
i1l3810:	
;main.c: 193: setpoint = ((receivedBuffer[4] << 8) + (receivedBuffer[5])) * 41;
	movf	0+(_receivedBuffer)^080h+04h,w
	bcf	status, 5	;RP0=0, select bank0
	bcf	status, 6	;RP1=0, select bank0
	movwf	(??_ISR+0)+0
	clrf	(??_ISR+0)+0+1
	movf	(??_ISR+0)+0,w
	movwf	(??_ISR+0)+1
	clrf	(??_ISR+0)+0
	bsf	status, 5	;RP0=1, select bank1
	bcf	status, 6	;RP1=0, select bank1
	movf	0+(_receivedBuffer)^080h+05h,w
	bcf	status, 5	;RP0=0, select bank0
	bcf	status, 6	;RP1=0, select bank0
	addwf	0+(??_ISR+0)+0,w
	movwf	(___wmul@multiplier)
	movlw	0
	skipnc
	movlw	1
	addwf	1+(??_ISR+0)+0,w
	movwf	1+(___wmul@multiplier)
	movlw	low(029h)
	movwf	(___wmul@multiplicand)
	movlw	high(029h)
	movwf	((___wmul@multiplicand))+1
	fcall	___wmul
	bcf	status, 5	;RP0=0, select bank0
	bcf	status, 6	;RP1=0, select bank0
	movf	(1+(?___wmul)),w
	bsf	status, 5	;RP0=1, select bank1
	bcf	status, 6	;RP1=0, select bank1
	clrf	(_setpoint+1)^080h
	addwf	(_setpoint+1)^080h
	bcf	status, 5	;RP0=0, select bank0
	bcf	status, 6	;RP1=0, select bank0
	movf	(0+(?___wmul)),w
	bsf	status, 5	;RP0=1, select bank1
	bcf	status, 6	;RP1=0, select bank1
	clrf	(_setpoint)^080h
	addwf	(_setpoint)^080h

	goto	i1l3812
	line	194
	
i1l150:	
	line	195
	
i1l3812:	
;main.c: 194: }
;main.c: 195: if(receivedBuffer[3] == 'I'){
	movf	0+(_receivedBuffer)^080h+03h,w
	xorlw	049h
	skipz
	goto	u548_21
	goto	u548_20
u548_21:
	goto	i1l3816
u548_20:
	line	196
	
i1l3814:	
;main.c: 196: inicia();
	fcall	i1_inicia
	goto	i1l3816
	line	197
	
i1l151:	
	line	198
	
i1l3816:	
;main.c: 197: }
;main.c: 198: if(receivedBuffer[3] == 'S'){
	bsf	status, 5	;RP0=1, select bank1
	bcf	status, 6	;RP1=0, select bank1
	movf	0+(_receivedBuffer)^080h+03h,w
	xorlw	053h
	skipz
	goto	u549_21
	goto	u549_20
u549_21:
	goto	i1l3820
u549_20:
	line	199
	
i1l3818:	
;main.c: 199: set();
	fcall	i1_set
	goto	i1l3820
	line	200
	
i1l152:	
	line	201
	
i1l3820:	
;main.c: 200: }
;main.c: 201: if(receivedBuffer[3] == 'R'){
	bsf	status, 5	;RP0=1, select bank1
	bcf	status, 6	;RP1=0, select bank1
	movf	0+(_receivedBuffer)^080h+03h,w
	xorlw	052h
	skipz
	goto	u550_21
	goto	u550_20
u550_21:
	goto	i1l3824
u550_20:
	line	202
	
i1l3822:	
;main.c: 202: res();
	fcall	i1_res
	goto	i1l3824
	line	203
	
i1l153:	
	line	204
	
i1l3824:	
;main.c: 203: }
;main.c: 204: if(receivedBuffer[3] == 'F'){
	bsf	status, 5	;RP0=1, select bank1
	bcf	status, 6	;RP1=0, select bank1
	movf	0+(_receivedBuffer)^080h+03h,w
	xorlw	046h
	skipz
	goto	u551_21
	goto	u551_20
u551_21:
	goto	i1l3828
u551_20:
	line	205
	
i1l3826:	
;main.c: 205: pilotoAtivo = pilotoAtivo & 0b11111101;
	movf	(_pilotoAtivo)^080h,w
	andlw	0FDh
	bcf	status, 5	;RP0=0, select bank0
	bcf	status, 6	;RP1=0, select bank0
	movwf	(??_ISR+0)+0
	movf	(??_ISR+0)+0,w
	bsf	status, 5	;RP0=1, select bank1
	bcf	status, 6	;RP1=0, select bank1
	movwf	(_pilotoAtivo)^080h
	goto	i1l3828
	line	206
	
i1l154:	
	goto	i1l3828
	line	208
	
i1l149:	
	goto	i1l3828
	line	209
	
i1l146:	
	goto	i1l3828
	line	210
	
i1l145:	
	goto	i1l3828
	line	211
	
i1l143:	
	line	212
	
i1l3828:	
;main.c: 206: }
;main.c: 208: }
;main.c: 209: }
;main.c: 210: }
;main.c: 211: }
;main.c: 212: PIR1bits.RCIF = 0;
	bcf	status, 5	;RP0=0, select bank0
	bcf	status, 6	;RP1=0, select bank0
	bcf	(12),5	;volatile
	goto	i1l3830
	line	213
	
i1l140:	
	line	227
	
i1l3830:	
;main.c: 213: }
;main.c: 227: if (INTCONbits.T0IF) {
	btfss	(11),2	;volatile
	goto	u552_21
	goto	u552_20
u552_21:
	goto	i1l4008
u552_20:
	line	229
	
i1l3832:	
;main.c: 229: TIMER0_Set(238);
	movlw	(0EEh)
	fcall	i1_TIMER0_Set
	line	232
	
i1l3834:	
;main.c: 232: if (contagens_tm0 < 499) {
	movlw	high(01F3h)
	bsf	status, 5	;RP0=1, select bank1
	bcf	status, 6	;RP1=0, select bank1
	subwf	(_contagens_tm0+1)^080h,w
	movlw	low(01F3h)
	skipnz
	subwf	(_contagens_tm0)^080h,w
	skipnc
	goto	u553_21
	goto	u553_20
u553_21:
	goto	i1l3840
u553_20:
	line	234
	
i1l3836:	
;main.c: 234: contagens_tm0++;
	movlw	low(01h)
	addwf	(_contagens_tm0)^080h,f
	skipnc
	incf	(_contagens_tm0+1)^080h,f
	movlw	high(01h)
	addwf	(_contagens_tm0+1)^080h,f
	line	237
	
i1l3838:	
;main.c: 237: PORTBbits.RB6 = 1;
	bcf	status, 5	;RP0=0, select bank0
	bcf	status, 6	;RP1=0, select bank0
	bsf	(6),6	;volatile
	line	238
;main.c: 238: } else {
	goto	i1l4006
	
i1l156:	
	line	240
	
i1l3840:	
;main.c: 240: contagens_tm0 = 0;
	bsf	status, 5	;RP0=1, select bank1
	bcf	status, 6	;RP1=0, select bank1
	clrf	(_contagens_tm0)^080h
	clrf	(_contagens_tm0+1)^080h
	line	243
	
i1l3842:	
;main.c: 243: pulsos = (TMR1H << 8) + TMR1L;
	bcf	status, 5	;RP0=0, select bank0
	bcf	status, 6	;RP1=0, select bank0
	movf	(15),w	;volatile
	bsf	status, 5	;RP0=1, select bank1
	bcf	status, 6	;RP1=0, select bank1
	clrf	(_pulsos+1)^080h
	addwf	(_pulsos+1)^080h
	bcf	status, 5	;RP0=0, select bank0
	bcf	status, 6	;RP1=0, select bank0
	movf	(14),w	;volatile
	bsf	status, 5	;RP0=1, select bank1
	bcf	status, 6	;RP1=0, select bank1
	clrf	(_pulsos)^080h
	addwf	(_pulsos)^080h

	line	244
	
i1l3844:	
;main.c: 244: rpm = ((pulsos / 7) * 120);
	movlw	low(07h)
	movwf	(___lwdiv@divisor)
	movlw	high(07h)
	movwf	((___lwdiv@divisor))+1
	movf	(_pulsos+1)^080h,w
	clrf	(___lwdiv@dividend+1)
	addwf	(___lwdiv@dividend+1)
	movf	(_pulsos)^080h,w
	clrf	(___lwdiv@dividend)
	addwf	(___lwdiv@dividend)

	fcall	___lwdiv
	movf	(1+(?___lwdiv)),w
	bcf	status, 5	;RP0=0, select bank0
	bcf	status, 6	;RP1=0, select bank0
	clrf	(___wmul@multiplier+1)
	addwf	(___wmul@multiplier+1)
	movf	(0+(?___lwdiv)),w
	clrf	(___wmul@multiplier)
	addwf	(___wmul@multiplier)

	movlw	low(078h)
	movwf	(___wmul@multiplicand)
	movlw	high(078h)
	movwf	((___wmul@multiplicand))+1
	fcall	___wmul
	bcf	status, 5	;RP0=0, select bank0
	bcf	status, 6	;RP1=0, select bank0
	movf	(1+(?___wmul)),w
	bsf	status, 5	;RP0=1, select bank1
	bcf	status, 6	;RP1=0, select bank1
	clrf	(_rpm+1)^080h
	addwf	(_rpm+1)^080h
	bcf	status, 5	;RP0=0, select bank0
	bcf	status, 6	;RP1=0, select bank0
	movf	(0+(?___wmul)),w
	bsf	status, 5	;RP0=1, select bank1
	bcf	status, 6	;RP1=0, select bank1
	clrf	(_rpm)^080h
	addwf	(_rpm)^080h

	line	246
	
i1l3846:	
;main.c: 246: TMR1L = 0x00;
	bcf	status, 5	;RP0=0, select bank0
	bcf	status, 6	;RP1=0, select bank0
	clrf	(14)	;volatile
	line	247
	
i1l3848:	
;main.c: 247: TMR1H = 0x00;
	clrf	(15)	;volatile
	line	249
	
i1l3850:	
;main.c: 249: int rpmAux = rpm;
	bsf	status, 5	;RP0=1, select bank1
	bcf	status, 6	;RP1=0, select bank1
	movf	(_rpm+1)^080h,w
	clrf	(ISR@rpmAux+1)^080h
	addwf	(ISR@rpmAux+1)^080h
	movf	(_rpm)^080h,w
	clrf	(ISR@rpmAux)^080h
	addwf	(ISR@rpmAux)^080h

	line	252
	
i1l3852:	
;main.c: 252: erro_anterior = erro_atual;
	movf	(_erro_atual+1)^080h,w
	clrf	(_erro_anterior+1)^080h
	addwf	(_erro_anterior+1)^080h
	movf	(_erro_atual)^080h,w
	clrf	(_erro_anterior)^080h
	addwf	(_erro_anterior)^080h

	line	253
	
i1l3854:	
;main.c: 253: erro_atual = minimo(abs(setpoint - rpm), 2000);
	movlw	0x0
	bcf	status, 5	;RP0=0, select bank0
	bcf	status, 6	;RP1=0, select bank0
	movwf	(minimo@b)
	movlw	0xfa
	movwf	(minimo@b+1)
	movlw	0x44
	movwf	(minimo@b+2)
	bsf	status, 5	;RP0=1, select bank1
	bcf	status, 6	;RP1=0, select bank1
	comf	(_rpm)^080h,w
	bcf	status, 5	;RP0=0, select bank0
	bcf	status, 6	;RP1=0, select bank0
	movwf	(??_ISR+0)+0
	bsf	status, 5	;RP0=1, select bank1
	bcf	status, 6	;RP1=0, select bank1
	comf	(_rpm+1)^080h,w
	bcf	status, 5	;RP0=0, select bank0
	bcf	status, 6	;RP1=0, select bank0
	movwf	((??_ISR+0)+0+1)
	incf	(??_ISR+0)+0,f
	skipnz
	incf	((??_ISR+0)+0+1),f
	bsf	status, 5	;RP0=1, select bank1
	bcf	status, 6	;RP1=0, select bank1
	movf	(_setpoint)^080h,w
	bcf	status, 5	;RP0=0, select bank0
	bcf	status, 6	;RP1=0, select bank0
	addwf	0+(??_ISR+0)+0,w
	movwf	(abs@a)
	bsf	status, 5	;RP0=1, select bank1
	bcf	status, 6	;RP1=0, select bank1
	movf	(_setpoint+1)^080h,w
	skipnc
	incf	(_setpoint+1)^080h,w
	bcf	status, 5	;RP0=0, select bank0
	bcf	status, 6	;RP1=0, select bank0
	addwf	1+(??_ISR+0)+0,w
	movwf	1+(abs@a)
	fcall	_abs
	movf	(1+(?_abs)),w
	clrf	(___awtoft@c+1)
	addwf	(___awtoft@c+1)
	movf	(0+(?_abs)),w
	clrf	(___awtoft@c)
	addwf	(___awtoft@c)

	fcall	___awtoft
	movf	(0+(?___awtoft)),w
	bcf	status, 5	;RP0=0, select bank0
	bcf	status, 6	;RP1=0, select bank0
	movwf	(minimo@a)
	movf	(1+(?___awtoft)),w
	movwf	(minimo@a+1)
	movf	(2+(?___awtoft)),w
	movwf	(minimo@a+2)
	fcall	_minimo
	bcf	status, 5	;RP0=0, select bank0
	bcf	status, 6	;RP1=0, select bank0
	movf	(0+(?_minimo)),w
	movwf	(___fttol@f1)
	movf	(1+(?_minimo)),w
	movwf	(___fttol@f1+1)
	movf	(2+(?_minimo)),w
	movwf	(___fttol@f1+2)
	fcall	___fttol
	bcf	status, 5	;RP0=0, select bank0
	bcf	status, 6	;RP1=0, select bank0
	movf	1+(((0+(?___fttol)))),w
	bsf	status, 5	;RP0=1, select bank1
	bcf	status, 6	;RP1=0, select bank1
	clrf	(_erro_atual+1)^080h
	addwf	(_erro_atual+1)^080h
	bcf	status, 5	;RP0=0, select bank0
	bcf	status, 6	;RP1=0, select bank0
	movf	0+(((0+(?___fttol)))),w
	bsf	status, 5	;RP0=1, select bank1
	bcf	status, 6	;RP1=0, select bank1
	clrf	(_erro_atual)^080h
	addwf	(_erro_atual)^080h

	line	254
	
i1l3856:	
;main.c: 254: int delta = maximo(minimo(abs(erro_atual - erro_anterior), 1000), 1);
	movlw	0x0
	bcf	status, 5	;RP0=0, select bank0
	bcf	status, 6	;RP1=0, select bank0
	movwf	(maximo@b)
	movlw	0x80
	movwf	(maximo@b+1)
	movlw	0x3f
	movwf	(maximo@b+2)
	movlw	0x0
	movwf	(minimo@b)
	movlw	0x7a
	movwf	(minimo@b+1)
	movlw	0x44
	movwf	(minimo@b+2)
	bsf	status, 5	;RP0=1, select bank1
	bcf	status, 6	;RP1=0, select bank1
	comf	(_erro_anterior)^080h,w
	bcf	status, 5	;RP0=0, select bank0
	bcf	status, 6	;RP1=0, select bank0
	movwf	(??_ISR+0)+0
	bsf	status, 5	;RP0=1, select bank1
	bcf	status, 6	;RP1=0, select bank1
	comf	(_erro_anterior+1)^080h,w
	bcf	status, 5	;RP0=0, select bank0
	bcf	status, 6	;RP1=0, select bank0
	movwf	((??_ISR+0)+0+1)
	incf	(??_ISR+0)+0,f
	skipnz
	incf	((??_ISR+0)+0+1),f
	bsf	status, 5	;RP0=1, select bank1
	bcf	status, 6	;RP1=0, select bank1
	movf	(_erro_atual)^080h,w
	bcf	status, 5	;RP0=0, select bank0
	bcf	status, 6	;RP1=0, select bank0
	addwf	0+(??_ISR+0)+0,w
	movwf	(abs@a)
	bsf	status, 5	;RP0=1, select bank1
	bcf	status, 6	;RP1=0, select bank1
	movf	(_erro_atual+1)^080h,w
	skipnc
	incf	(_erro_atual+1)^080h,w
	bcf	status, 5	;RP0=0, select bank0
	bcf	status, 6	;RP1=0, select bank0
	addwf	1+(??_ISR+0)+0,w
	movwf	1+(abs@a)
	fcall	_abs
	movf	(1+(?_abs)),w
	clrf	(___awtoft@c+1)
	addwf	(___awtoft@c+1)
	movf	(0+(?_abs)),w
	clrf	(___awtoft@c)
	addwf	(___awtoft@c)

	fcall	___awtoft
	movf	(0+(?___awtoft)),w
	bcf	status, 5	;RP0=0, select bank0
	bcf	status, 6	;RP1=0, select bank0
	movwf	(minimo@a)
	movf	(1+(?___awtoft)),w
	movwf	(minimo@a+1)
	movf	(2+(?___awtoft)),w
	movwf	(minimo@a+2)
	fcall	_minimo
	bcf	status, 5	;RP0=0, select bank0
	bcf	status, 6	;RP1=0, select bank0
	movf	(0+(?_minimo)),w
	movwf	(maximo@a)
	movf	(1+(?_minimo)),w
	movwf	(maximo@a+1)
	movf	(2+(?_minimo)),w
	movwf	(maximo@a+2)
	fcall	_maximo
	bcf	status, 5	;RP0=0, select bank0
	bcf	status, 6	;RP1=0, select bank0
	movf	(0+(?_maximo)),w
	movwf	(___fttol@f1)
	movf	(1+(?_maximo)),w
	movwf	(___fttol@f1+1)
	movf	(2+(?_maximo)),w
	movwf	(___fttol@f1+2)
	fcall	___fttol
	bcf	status, 5	;RP0=0, select bank0
	bcf	status, 6	;RP1=0, select bank0
	movf	1+(((0+(?___fttol)))),w
	bsf	status, 5	;RP0=1, select bank1
	bcf	status, 6	;RP1=0, select bank1
	clrf	(ISR@delta+1)^080h
	addwf	(ISR@delta+1)^080h
	bcf	status, 5	;RP0=0, select bank0
	bcf	status, 6	;RP1=0, select bank0
	movf	0+(((0+(?___fttol)))),w
	bsf	status, 5	;RP0=1, select bank1
	bcf	status, 6	;RP1=0, select bank1
	clrf	(ISR@delta)^080h
	addwf	(ISR@delta)^080h

	line	255
	
i1l3858:	
;main.c: 255: float x = 0;
	movlw	0x0
	movwf	(ISR@x)^080h
	movlw	0x0
	movwf	(ISR@x+1)^080h
	movlw	0x0
	movwf	(ISR@x+2)^080h
	line	256
	
i1l3860:	
;main.c: 256: float rule = 0;
	movlw	0x0
	movwf	(ISR@rule)^080h
	movlw	0x0
	movwf	(ISR@rule+1)^080h
	movlw	0x0
	movwf	(ISR@rule+2)^080h
	line	259
	
i1l3862:	
;main.c: 259: if (erro_atual <= 100) {
	movf	(_erro_atual+1)^080h,w
	xorlw	80h
	movwf	btemp+1
	movlw	(high(065h))^80h
	subwf	btemp+1,w
	skipz
	goto	u554_25
	movlw	low(065h)
	subwf	(_erro_atual)^080h,w
u554_25:

	skipnc
	goto	u554_21
	goto	u554_20
u554_21:
	goto	i1l3884
u554_20:
	line	262
	
i1l3864:	
;main.c: 262: rule = trapmf(erro_atual, -1, 0, 1, 100);
	bsf	status, 5	;RP0=1, select bank1
	bcf	status, 6	;RP1=0, select bank1
	movf	(_erro_atual+1)^080h,w
	clrf	(___awtoft@c+1)
	addwf	(___awtoft@c+1)
	movf	(_erro_atual)^080h,w
	clrf	(___awtoft@c)
	addwf	(___awtoft@c)

	fcall	___awtoft
	movf	(0+(?___awtoft)),w
	bcf	status, 5	;RP0=0, select bank0
	bcf	status, 6	;RP1=0, select bank0
	movwf	(trapmf@x)
	movf	(1+(?___awtoft)),w
	movwf	(trapmf@x+1)
	movf	(2+(?___awtoft)),w
	movwf	(trapmf@x+2)
	movlw	0x0
	movwf	(trapmf@a)
	movlw	0x80
	movwf	(trapmf@a+1)
	movlw	0xbf
	movwf	(trapmf@a+2)
	movlw	0x0
	movwf	(trapmf@b)
	movlw	0x0
	movwf	(trapmf@b+1)
	movlw	0x0
	movwf	(trapmf@b+2)
	movlw	0x0
	movwf	(trapmf@c)
	movlw	0x80
	movwf	(trapmf@c+1)
	movlw	0x3f
	movwf	(trapmf@c+2)
	movlw	0x0
	movwf	(trapmf@d)
	movlw	0xc8
	movwf	(trapmf@d+1)
	movlw	0x42
	movwf	(trapmf@d+2)
	fcall	_trapmf
	bcf	status, 5	;RP0=0, select bank0
	bcf	status, 6	;RP1=0, select bank0
	movf	(0+(?_trapmf)),w
	bsf	status, 5	;RP0=1, select bank1
	bcf	status, 6	;RP1=0, select bank1
	movwf	(ISR@rule)^080h
	bcf	status, 5	;RP0=0, select bank0
	bcf	status, 6	;RP1=0, select bank0
	movf	(1+(?_trapmf)),w
	bsf	status, 5	;RP0=1, select bank1
	bcf	status, 6	;RP1=0, select bank1
	movwf	(ISR@rule+1)^080h
	bcf	status, 5	;RP0=0, select bank0
	bcf	status, 6	;RP1=0, select bank0
	movf	(2+(?_trapmf)),w
	bsf	status, 5	;RP0=1, select bank1
	bcf	status, 6	;RP1=0, select bank1
	movwf	(ISR@rule+2)^080h
	line	264
	
i1l3866:	
;main.c: 264: x = 0;
	movlw	0x0
	movwf	(ISR@x)^080h
	movlw	0x0
	movwf	(ISR@x+1)^080h
	movlw	0x0
	movwf	(ISR@x+2)^080h
	line	265
	
i1l3868:	
;main.c: 265: for (int a = 0; a <= 15; a++) {
	clrf	(ISR@a)^080h
	clrf	(ISR@a+1)^080h
	
i1l3870:	
	movf	(ISR@a+1)^080h,w
	xorlw	80h
	movwf	btemp+1
	movlw	(high(010h))^80h
	subwf	btemp+1,w
	skipz
	goto	u555_25
	movlw	low(010h)
	subwf	(ISR@a)^080h,w
u555_25:

	skipc
	goto	u555_21
	goto	u555_20
u555_21:
	goto	i1l3874
u555_20:
	goto	i1l3884
	
i1l3872:	
	goto	i1l3884
	
i1l159:	
	line	266
	
i1l3874:	
;main.c: 266: rBaixo[a] = trapmf(x, -1, 0, 0, 5);
	movlw	(03h)
	bcf	status, 5	;RP0=0, select bank0
	bcf	status, 6	;RP1=0, select bank0
	movwf	(??_ISR+0)+0
	movf	(??_ISR+0)+0,w
	movwf	(___bmul@multiplicand)
	bsf	status, 5	;RP0=1, select bank1
	bcf	status, 6	;RP1=0, select bank1
	movf	(ISR@a)^080h,w
	fcall	___bmul
	addlw	_rBaixo&0ffh
	movwf	fsr0
	bsf	status, 5	;RP0=1, select bank1
	bcf	status, 6	;RP1=0, select bank1
	movf	(ISR@x)^080h,w
	bcf	status, 5	;RP0=0, select bank0
	bcf	status, 6	;RP1=0, select bank0
	movwf	(trapmf@x)
	bsf	status, 5	;RP0=1, select bank1
	bcf	status, 6	;RP1=0, select bank1
	movf	(ISR@x+1)^080h,w
	bcf	status, 5	;RP0=0, select bank0
	bcf	status, 6	;RP1=0, select bank0
	movwf	(trapmf@x+1)
	bsf	status, 5	;RP0=1, select bank1
	bcf	status, 6	;RP1=0, select bank1
	movf	(ISR@x+2)^080h,w
	bcf	status, 5	;RP0=0, select bank0
	bcf	status, 6	;RP1=0, select bank0
	movwf	(trapmf@x+2)
	movlw	0x0
	movwf	(trapmf@a)
	movlw	0x80
	movwf	(trapmf@a+1)
	movlw	0xbf
	movwf	(trapmf@a+2)
	movlw	0x0
	movwf	(trapmf@b)
	movlw	0x0
	movwf	(trapmf@b+1)
	movlw	0x0
	movwf	(trapmf@b+2)
	movlw	0x0
	movwf	(trapmf@c)
	movlw	0x0
	movwf	(trapmf@c+1)
	movlw	0x0
	movwf	(trapmf@c+2)
	movlw	0x0
	movwf	(trapmf@d)
	movlw	0xa0
	movwf	(trapmf@d+1)
	movlw	0x40
	movwf	(trapmf@d+2)
	fcall	_trapmf
	bcf	status, 5	;RP0=0, select bank0
	bcf	status, 6	;RP1=0, select bank0
	movf	(0+(?_trapmf)),w
	bsf	status, 7	;select IRP bank3
	movwf	indf
	incf	fsr0,f
	movf	(1+(?_trapmf)),w
	movwf	indf
	incf	fsr0,f
	movf	(2+(?_trapmf)),w
	movwf	indf
	line	267
;main.c: 267: if (rBaixo[a] >= rule) {
	movlw	(03h)
	movwf	(??_ISR+0)+0
	movf	(??_ISR+0)+0,w
	movwf	(___bmul@multiplicand)
	bsf	status, 5	;RP0=1, select bank1
	bcf	status, 6	;RP1=0, select bank1
	movf	(ISR@a)^080h,w
	fcall	___bmul
	addlw	_rBaixo&0ffh
	movwf	fsr0
	bsf	status, 7	;select IRP bank3
	movf	indf,w
	movwf	(___ftge@ff1)
	incf	fsr0,f
	movf	indf,w
	movwf	(___ftge@ff1+1)
	incf	fsr0,f
	movf	indf,w
	movwf	(___ftge@ff1+2)
	bsf	status, 5	;RP0=1, select bank1
	bcf	status, 6	;RP1=0, select bank1
	movf	(ISR@rule)^080h,w
	movwf	(___ftge@ff2)
	movf	(ISR@rule+1)^080h,w
	movwf	(___ftge@ff2+1)
	movf	(ISR@rule+2)^080h,w
	movwf	(___ftge@ff2+2)
	fcall	___ftge
	btfss	status,0
	goto	u556_21
	goto	u556_20
u556_21:
	goto	i1l3878
u556_20:
	line	268
	
i1l3876:	
;main.c: 268: rBaixo[a] = rule;
	movlw	(03h)
	bcf	status, 5	;RP0=0, select bank0
	bcf	status, 6	;RP1=0, select bank0
	movwf	(??_ISR+0)+0
	movf	(??_ISR+0)+0,w
	movwf	(___bmul@multiplicand)
	bsf	status, 5	;RP0=1, select bank1
	bcf	status, 6	;RP1=0, select bank1
	movf	(ISR@a)^080h,w
	fcall	___bmul
	addlw	_rBaixo&0ffh
	movwf	fsr0
	bsf	status, 5	;RP0=1, select bank1
	bcf	status, 6	;RP1=0, select bank1
	movf	(ISR@rule)^080h,w
	bsf	status, 7	;select IRP bank3
	movwf	indf
	incf	fsr0,f
	movf	(ISR@rule+1)^080h,w
	movwf	indf
	incf	fsr0,f
	movf	(ISR@rule+2)^080h,w
	movwf	indf
	goto	i1l3878
	line	269
	
i1l161:	
	line	271
	
i1l3878:	
;main.c: 269: }
;main.c: 271: x += 1;
	movlw	0x0
	bcf	status, 5	;RP0=0, select bank0
	bcf	status, 6	;RP1=0, select bank0
	movwf	(___ftadd@f1)
	movlw	0x80
	movwf	(___ftadd@f1+1)
	movlw	0x3f
	movwf	(___ftadd@f1+2)
	bsf	status, 5	;RP0=1, select bank1
	bcf	status, 6	;RP1=0, select bank1
	movf	(ISR@x)^080h,w
	bcf	status, 5	;RP0=0, select bank0
	bcf	status, 6	;RP1=0, select bank0
	movwf	(___ftadd@f2)
	bsf	status, 5	;RP0=1, select bank1
	bcf	status, 6	;RP1=0, select bank1
	movf	(ISR@x+1)^080h,w
	bcf	status, 5	;RP0=0, select bank0
	bcf	status, 6	;RP1=0, select bank0
	movwf	(___ftadd@f2+1)
	bsf	status, 5	;RP0=1, select bank1
	bcf	status, 6	;RP1=0, select bank1
	movf	(ISR@x+2)^080h,w
	bcf	status, 5	;RP0=0, select bank0
	bcf	status, 6	;RP1=0, select bank0
	movwf	(___ftadd@f2+2)
	fcall	___ftadd
	bcf	status, 5	;RP0=0, select bank0
	bcf	status, 6	;RP1=0, select bank0
	movf	(0+(?___ftadd)),w
	bsf	status, 5	;RP0=1, select bank1
	bcf	status, 6	;RP1=0, select bank1
	movwf	(ISR@x)^080h
	bcf	status, 5	;RP0=0, select bank0
	bcf	status, 6	;RP1=0, select bank0
	movf	(1+(?___ftadd)),w
	bsf	status, 5	;RP0=1, select bank1
	bcf	status, 6	;RP1=0, select bank1
	movwf	(ISR@x+1)^080h
	bcf	status, 5	;RP0=0, select bank0
	bcf	status, 6	;RP1=0, select bank0
	movf	(2+(?___ftadd)),w
	bsf	status, 5	;RP0=1, select bank1
	bcf	status, 6	;RP1=0, select bank1
	movwf	(ISR@x+2)^080h
	line	265
	
i1l3880:	
	movlw	low(01h)
	addwf	(ISR@a)^080h,f
	skipnc
	incf	(ISR@a+1)^080h,f
	movlw	high(01h)
	addwf	(ISR@a+1)^080h,f
	
i1l3882:	
	movf	(ISR@a+1)^080h,w
	xorlw	80h
	movwf	btemp+1
	movlw	(high(010h))^80h
	subwf	btemp+1,w
	skipz
	goto	u557_25
	movlw	low(010h)
	subwf	(ISR@a)^080h,w
u557_25:

	skipc
	goto	u557_21
	goto	u557_20
u557_21:
	goto	i1l3874
u557_20:
	goto	i1l3884
	
i1l160:	
	goto	i1l3884
	line	273
	
i1l158:	
	line	277
	
i1l3884:	
;main.c: 272: }
;main.c: 273: }
;main.c: 277: if (erro_atual >= 100 && erro_atual <= 1001 && delta <= 200) {
	bsf	status, 5	;RP0=1, select bank1
	bcf	status, 6	;RP1=0, select bank1
	movf	(_erro_atual+1)^080h,w
	xorlw	80h
	movwf	btemp+1
	movlw	(high(064h))^80h
	subwf	btemp+1,w
	skipz
	goto	u558_25
	movlw	low(064h)
	subwf	(_erro_atual)^080h,w
u558_25:

	skipc
	goto	u558_21
	goto	u558_20
u558_21:
	goto	i1l3910
u558_20:
	
i1l3886:	
	bsf	status, 5	;RP0=1, select bank1
	bcf	status, 6	;RP1=0, select bank1
	movf	(_erro_atual+1)^080h,w
	xorlw	80h
	movwf	btemp+1
	movlw	(high(03EAh))^80h
	subwf	btemp+1,w
	skipz
	goto	u559_25
	movlw	low(03EAh)
	subwf	(_erro_atual)^080h,w
u559_25:

	skipnc
	goto	u559_21
	goto	u559_20
u559_21:
	goto	i1l3910
u559_20:
	
i1l3888:	
	bsf	status, 5	;RP0=1, select bank1
	bcf	status, 6	;RP1=0, select bank1
	movf	(ISR@delta+1)^080h,w
	xorlw	80h
	movwf	btemp+1
	movlw	(high(0C9h))^80h
	subwf	btemp+1,w
	skipz
	goto	u560_25
	movlw	low(0C9h)
	subwf	(ISR@delta)^080h,w
u560_25:

	skipnc
	goto	u560_21
	goto	u560_20
u560_21:
	goto	i1l3910
u560_20:
	line	280
	
i1l3890:	
;main.c: 279: rule = trapmf(erro_atual, 50, 800, 800, 1550) *
;main.c: 280: (1 - trapmf(delta, -1, 0, 1, 200));
	movlw	0x0
	bcf	status, 5	;RP0=0, select bank0
	bcf	status, 6	;RP1=0, select bank0
	movwf	(trapmf@d)
	movlw	0x48
	movwf	(trapmf@d+1)
	movlw	0x43
	movwf	(trapmf@d+2)
	movlw	0x0
	movwf	(trapmf@c)
	movlw	0x80
	movwf	(trapmf@c+1)
	movlw	0x3f
	movwf	(trapmf@c+2)
	movlw	0x0
	movwf	(trapmf@b)
	movlw	0x0
	movwf	(trapmf@b+1)
	movlw	0x0
	movwf	(trapmf@b+2)
	movlw	0x0
	movwf	(trapmf@a)
	movlw	0x80
	movwf	(trapmf@a+1)
	movlw	0xbf
	movwf	(trapmf@a+2)
	bsf	status, 5	;RP0=1, select bank1
	bcf	status, 6	;RP1=0, select bank1
	movf	(ISR@delta+1)^080h,w
	clrf	(___awtoft@c+1)
	addwf	(___awtoft@c+1)
	movf	(ISR@delta)^080h,w
	clrf	(___awtoft@c)
	addwf	(___awtoft@c)

	fcall	___awtoft
	movf	(0+(?___awtoft)),w
	bcf	status, 5	;RP0=0, select bank0
	bcf	status, 6	;RP1=0, select bank0
	movwf	(trapmf@x)
	movf	(1+(?___awtoft)),w
	movwf	(trapmf@x+1)
	movf	(2+(?___awtoft)),w
	movwf	(trapmf@x+2)
	fcall	_trapmf
	bcf	status, 5	;RP0=0, select bank0
	bcf	status, 6	;RP1=0, select bank0
	movf	(0+(?_trapmf)),w
	bsf	status, 5	;RP0=1, select bank1
	bcf	status, 6	;RP1=0, select bank1
	movwf	(_ISR$1671)^080h
	bcf	status, 5	;RP0=0, select bank0
	bcf	status, 6	;RP1=0, select bank0
	movf	(1+(?_trapmf)),w
	bsf	status, 5	;RP0=1, select bank1
	bcf	status, 6	;RP1=0, select bank1
	movwf	(_ISR$1671+1)^080h
	bcf	status, 5	;RP0=0, select bank0
	bcf	status, 6	;RP1=0, select bank0
	movf	(2+(?_trapmf)),w
	bsf	status, 5	;RP0=1, select bank1
	bcf	status, 6	;RP1=0, select bank1
	movwf	(_ISR$1671+2)^080h
;main.c: 279: rule = trapmf(erro_atual, 50, 800, 800, 1550) *
;main.c: 280: (1 - trapmf(delta, -1, 0, 1, 200));
	movlw	0xc0
	bcf	status, 5	;RP0=0, select bank0
	bcf	status, 6	;RP1=0, select bank0
	movwf	(trapmf@d)
	movlw	0xc1
	movwf	(trapmf@d+1)
	movlw	0x44
	movwf	(trapmf@d+2)
	movlw	0x0
	movwf	(trapmf@c)
	movlw	0x48
	movwf	(trapmf@c+1)
	movlw	0x44
	movwf	(trapmf@c+2)
	movlw	0x0
	movwf	(trapmf@b)
	movlw	0x48
	movwf	(trapmf@b+1)
	movlw	0x44
	movwf	(trapmf@b+2)
	movlw	0x0
	movwf	(trapmf@a)
	movlw	0x48
	movwf	(trapmf@a+1)
	movlw	0x42
	movwf	(trapmf@a+2)
	bsf	status, 5	;RP0=1, select bank1
	bcf	status, 6	;RP1=0, select bank1
	movf	(_erro_atual+1)^080h,w
	clrf	(___awtoft@c+1)
	addwf	(___awtoft@c+1)
	movf	(_erro_atual)^080h,w
	clrf	(___awtoft@c)
	addwf	(___awtoft@c)

	fcall	___awtoft
	movf	(0+(?___awtoft)),w
	bcf	status, 5	;RP0=0, select bank0
	bcf	status, 6	;RP1=0, select bank0
	movwf	(trapmf@x)
	movf	(1+(?___awtoft)),w
	movwf	(trapmf@x+1)
	movf	(2+(?___awtoft)),w
	movwf	(trapmf@x+2)
	fcall	_trapmf
	bcf	status, 5	;RP0=0, select bank0
	bcf	status, 6	;RP1=0, select bank0
	movf	(0+(?_trapmf)),w
	movwf	(___ftmul@f1)
	movf	(1+(?_trapmf)),w
	movwf	(___ftmul@f1+1)
	movf	(2+(?_trapmf)),w
	movwf	(___ftmul@f1+2)
	movlw	0x0
	movwf	(___ftadd@f1)
	movlw	0x80
	movwf	(___ftadd@f1+1)
	movlw	0x3f
	movwf	(___ftadd@f1+2)
	bsf	status, 5	;RP0=1, select bank1
	bcf	status, 6	;RP1=0, select bank1
	movf	(_ISR$1671)^080h,w
	bcf	status, 5	;RP0=0, select bank0
	bcf	status, 6	;RP1=0, select bank0
	movwf	(___ftneg@f1)
	bsf	status, 5	;RP0=1, select bank1
	bcf	status, 6	;RP1=0, select bank1
	movf	(_ISR$1671+1)^080h,w
	bcf	status, 5	;RP0=0, select bank0
	bcf	status, 6	;RP1=0, select bank0
	movwf	(___ftneg@f1+1)
	bsf	status, 5	;RP0=1, select bank1
	bcf	status, 6	;RP1=0, select bank1
	movf	(_ISR$1671+2)^080h,w
	bcf	status, 5	;RP0=0, select bank0
	bcf	status, 6	;RP1=0, select bank0
	movwf	(___ftneg@f1+2)
	fcall	___ftneg
	bcf	status, 5	;RP0=0, select bank0
	bcf	status, 6	;RP1=0, select bank0
	movf	(0+(?___ftneg)),w
	movwf	(___ftadd@f2)
	movf	(1+(?___ftneg)),w
	movwf	(___ftadd@f2+1)
	movf	(2+(?___ftneg)),w
	movwf	(___ftadd@f2+2)
	fcall	___ftadd
	bcf	status, 5	;RP0=0, select bank0
	bcf	status, 6	;RP1=0, select bank0
	movf	(0+(?___ftadd)),w
	movwf	(___ftmul@f2)
	movf	(1+(?___ftadd)),w
	movwf	(___ftmul@f2+1)
	movf	(2+(?___ftadd)),w
	movwf	(___ftmul@f2+2)
	fcall	___ftmul
	bcf	status, 5	;RP0=0, select bank0
	bcf	status, 6	;RP1=0, select bank0
	movf	(0+(?___ftmul)),w
	bsf	status, 5	;RP0=1, select bank1
	bcf	status, 6	;RP1=0, select bank1
	movwf	(ISR@rule)^080h
	bcf	status, 5	;RP0=0, select bank0
	bcf	status, 6	;RP1=0, select bank0
	movf	(1+(?___ftmul)),w
	bsf	status, 5	;RP0=1, select bank1
	bcf	status, 6	;RP1=0, select bank1
	movwf	(ISR@rule+1)^080h
	bcf	status, 5	;RP0=0, select bank0
	bcf	status, 6	;RP1=0, select bank0
	movf	(2+(?___ftmul)),w
	bsf	status, 5	;RP0=1, select bank1
	bcf	status, 6	;RP1=0, select bank1
	movwf	(ISR@rule+2)^080h
	line	282
	
i1l3892:	
;main.c: 282: x = 0;
	movlw	0x0
	movwf	(ISR@x)^080h
	movlw	0x0
	movwf	(ISR@x+1)^080h
	movlw	0x0
	movwf	(ISR@x+2)^080h
	line	283
	
i1l3894:	
;main.c: 283: for (int a = 0; a <= 15; a++) {
	clrf	(ISR@a_247)^080h
	clrf	(ISR@a_247+1)^080h
	
i1l3896:	
	movf	(ISR@a_247+1)^080h,w
	xorlw	80h
	movwf	btemp+1
	movlw	(high(010h))^80h
	subwf	btemp+1,w
	skipz
	goto	u561_25
	movlw	low(010h)
	subwf	(ISR@a_247)^080h,w
u561_25:

	skipc
	goto	u561_21
	goto	u561_20
u561_21:
	goto	i1l3900
u561_20:
	goto	i1l3910
	
i1l3898:	
	goto	i1l3910
	
i1l163:	
	line	284
	
i1l3900:	
;main.c: 284: rBaixo[a] = trapmf(x, 2, 5, 5, 10);
	movlw	(03h)
	bcf	status, 5	;RP0=0, select bank0
	bcf	status, 6	;RP1=0, select bank0
	movwf	(??_ISR+0)+0
	movf	(??_ISR+0)+0,w
	movwf	(___bmul@multiplicand)
	bsf	status, 5	;RP0=1, select bank1
	bcf	status, 6	;RP1=0, select bank1
	movf	(ISR@a_247)^080h,w
	fcall	___bmul
	addlw	_rBaixo&0ffh
	movwf	fsr0
	bsf	status, 5	;RP0=1, select bank1
	bcf	status, 6	;RP1=0, select bank1
	movf	(ISR@x)^080h,w
	bcf	status, 5	;RP0=0, select bank0
	bcf	status, 6	;RP1=0, select bank0
	movwf	(trapmf@x)
	bsf	status, 5	;RP0=1, select bank1
	bcf	status, 6	;RP1=0, select bank1
	movf	(ISR@x+1)^080h,w
	bcf	status, 5	;RP0=0, select bank0
	bcf	status, 6	;RP1=0, select bank0
	movwf	(trapmf@x+1)
	bsf	status, 5	;RP0=1, select bank1
	bcf	status, 6	;RP1=0, select bank1
	movf	(ISR@x+2)^080h,w
	bcf	status, 5	;RP0=0, select bank0
	bcf	status, 6	;RP1=0, select bank0
	movwf	(trapmf@x+2)
	movlw	0x0
	movwf	(trapmf@a)
	movlw	0x0
	movwf	(trapmf@a+1)
	movlw	0x40
	movwf	(trapmf@a+2)
	movlw	0x0
	movwf	(trapmf@b)
	movlw	0xa0
	movwf	(trapmf@b+1)
	movlw	0x40
	movwf	(trapmf@b+2)
	movlw	0x0
	movwf	(trapmf@c)
	movlw	0xa0
	movwf	(trapmf@c+1)
	movlw	0x40
	movwf	(trapmf@c+2)
	movlw	0x0
	movwf	(trapmf@d)
	movlw	0x20
	movwf	(trapmf@d+1)
	movlw	0x41
	movwf	(trapmf@d+2)
	fcall	_trapmf
	bcf	status, 5	;RP0=0, select bank0
	bcf	status, 6	;RP1=0, select bank0
	movf	(0+(?_trapmf)),w
	bsf	status, 7	;select IRP bank3
	movwf	indf
	incf	fsr0,f
	movf	(1+(?_trapmf)),w
	movwf	indf
	incf	fsr0,f
	movf	(2+(?_trapmf)),w
	movwf	indf
	line	285
;main.c: 285: if (rBaixo[a] >= rule) {
	movlw	(03h)
	movwf	(??_ISR+0)+0
	movf	(??_ISR+0)+0,w
	movwf	(___bmul@multiplicand)
	bsf	status, 5	;RP0=1, select bank1
	bcf	status, 6	;RP1=0, select bank1
	movf	(ISR@a_247)^080h,w
	fcall	___bmul
	addlw	_rBaixo&0ffh
	movwf	fsr0
	bsf	status, 7	;select IRP bank3
	movf	indf,w
	movwf	(___ftge@ff1)
	incf	fsr0,f
	movf	indf,w
	movwf	(___ftge@ff1+1)
	incf	fsr0,f
	movf	indf,w
	movwf	(___ftge@ff1+2)
	bsf	status, 5	;RP0=1, select bank1
	bcf	status, 6	;RP1=0, select bank1
	movf	(ISR@rule)^080h,w
	movwf	(___ftge@ff2)
	movf	(ISR@rule+1)^080h,w
	movwf	(___ftge@ff2+1)
	movf	(ISR@rule+2)^080h,w
	movwf	(___ftge@ff2+2)
	fcall	___ftge
	btfss	status,0
	goto	u562_21
	goto	u562_20
u562_21:
	goto	i1l3904
u562_20:
	line	286
	
i1l3902:	
;main.c: 286: rBaixo[a] = rule;
	movlw	(03h)
	bcf	status, 5	;RP0=0, select bank0
	bcf	status, 6	;RP1=0, select bank0
	movwf	(??_ISR+0)+0
	movf	(??_ISR+0)+0,w
	movwf	(___bmul@multiplicand)
	bsf	status, 5	;RP0=1, select bank1
	bcf	status, 6	;RP1=0, select bank1
	movf	(ISR@a_247)^080h,w
	fcall	___bmul
	addlw	_rBaixo&0ffh
	movwf	fsr0
	bsf	status, 5	;RP0=1, select bank1
	bcf	status, 6	;RP1=0, select bank1
	movf	(ISR@rule)^080h,w
	bsf	status, 7	;select IRP bank3
	movwf	indf
	incf	fsr0,f
	movf	(ISR@rule+1)^080h,w
	movwf	indf
	incf	fsr0,f
	movf	(ISR@rule+2)^080h,w
	movwf	indf
	goto	i1l3904
	line	287
	
i1l165:	
	line	289
	
i1l3904:	
;main.c: 287: }
;main.c: 289: x += 1;
	movlw	0x0
	bcf	status, 5	;RP0=0, select bank0
	bcf	status, 6	;RP1=0, select bank0
	movwf	(___ftadd@f1)
	movlw	0x80
	movwf	(___ftadd@f1+1)
	movlw	0x3f
	movwf	(___ftadd@f1+2)
	bsf	status, 5	;RP0=1, select bank1
	bcf	status, 6	;RP1=0, select bank1
	movf	(ISR@x)^080h,w
	bcf	status, 5	;RP0=0, select bank0
	bcf	status, 6	;RP1=0, select bank0
	movwf	(___ftadd@f2)
	bsf	status, 5	;RP0=1, select bank1
	bcf	status, 6	;RP1=0, select bank1
	movf	(ISR@x+1)^080h,w
	bcf	status, 5	;RP0=0, select bank0
	bcf	status, 6	;RP1=0, select bank0
	movwf	(___ftadd@f2+1)
	bsf	status, 5	;RP0=1, select bank1
	bcf	status, 6	;RP1=0, select bank1
	movf	(ISR@x+2)^080h,w
	bcf	status, 5	;RP0=0, select bank0
	bcf	status, 6	;RP1=0, select bank0
	movwf	(___ftadd@f2+2)
	fcall	___ftadd
	bcf	status, 5	;RP0=0, select bank0
	bcf	status, 6	;RP1=0, select bank0
	movf	(0+(?___ftadd)),w
	bsf	status, 5	;RP0=1, select bank1
	bcf	status, 6	;RP1=0, select bank1
	movwf	(ISR@x)^080h
	bcf	status, 5	;RP0=0, select bank0
	bcf	status, 6	;RP1=0, select bank0
	movf	(1+(?___ftadd)),w
	bsf	status, 5	;RP0=1, select bank1
	bcf	status, 6	;RP1=0, select bank1
	movwf	(ISR@x+1)^080h
	bcf	status, 5	;RP0=0, select bank0
	bcf	status, 6	;RP1=0, select bank0
	movf	(2+(?___ftadd)),w
	bsf	status, 5	;RP0=1, select bank1
	bcf	status, 6	;RP1=0, select bank1
	movwf	(ISR@x+2)^080h
	line	283
	
i1l3906:	
	movlw	low(01h)
	addwf	(ISR@a_247)^080h,f
	skipnc
	incf	(ISR@a_247+1)^080h,f
	movlw	high(01h)
	addwf	(ISR@a_247+1)^080h,f
	
i1l3908:	
	movf	(ISR@a_247+1)^080h,w
	xorlw	80h
	movwf	btemp+1
	movlw	(high(010h))^80h
	subwf	btemp+1,w
	skipz
	goto	u563_25
	movlw	low(010h)
	subwf	(ISR@a_247)^080h,w
u563_25:

	skipc
	goto	u563_21
	goto	u563_20
u563_21:
	goto	i1l3900
u563_20:
	goto	i1l3910
	
i1l164:	
	goto	i1l3910
	line	291
	
i1l162:	
	line	295
	
i1l3910:	
;main.c: 290: }
;main.c: 291: }
;main.c: 295: if (erro_atual >= 100 && erro_atual <= 1001 && delta >= 201) {
	bsf	status, 5	;RP0=1, select bank1
	bcf	status, 6	;RP1=0, select bank1
	movf	(_erro_atual+1)^080h,w
	xorlw	80h
	movwf	btemp+1
	movlw	(high(064h))^80h
	subwf	btemp+1,w
	skipz
	goto	u564_25
	movlw	low(064h)
	subwf	(_erro_atual)^080h,w
u564_25:

	skipc
	goto	u564_21
	goto	u564_20
u564_21:
	goto	i1l3936
u564_20:
	
i1l3912:	
	bsf	status, 5	;RP0=1, select bank1
	bcf	status, 6	;RP1=0, select bank1
	movf	(_erro_atual+1)^080h,w
	xorlw	80h
	movwf	btemp+1
	movlw	(high(03EAh))^80h
	subwf	btemp+1,w
	skipz
	goto	u565_25
	movlw	low(03EAh)
	subwf	(_erro_atual)^080h,w
u565_25:

	skipnc
	goto	u565_21
	goto	u565_20
u565_21:
	goto	i1l3936
u565_20:
	
i1l3914:	
	bsf	status, 5	;RP0=1, select bank1
	bcf	status, 6	;RP1=0, select bank1
	movf	(ISR@delta+1)^080h,w
	xorlw	80h
	movwf	btemp+1
	movlw	(high(0C9h))^80h
	subwf	btemp+1,w
	skipz
	goto	u566_25
	movlw	low(0C9h)
	subwf	(ISR@delta)^080h,w
u566_25:

	skipc
	goto	u566_21
	goto	u566_20
u566_21:
	goto	i1l3936
u566_20:
	line	298
	
i1l3916:	
;main.c: 297: rule = trapmf(erro_atual, 50, 800, 800, 1550) *
;main.c: 298: trapmf(delta, 200, 500, 2000, 2001);
	movlw	0x20
	bcf	status, 5	;RP0=0, select bank0
	bcf	status, 6	;RP1=0, select bank0
	movwf	(trapmf@d)
	movlw	0xfa
	movwf	(trapmf@d+1)
	movlw	0x44
	movwf	(trapmf@d+2)
	movlw	0x0
	movwf	(trapmf@c)
	movlw	0xfa
	movwf	(trapmf@c+1)
	movlw	0x44
	movwf	(trapmf@c+2)
	movlw	0x0
	movwf	(trapmf@b)
	movlw	0xfa
	movwf	(trapmf@b+1)
	movlw	0x43
	movwf	(trapmf@b+2)
	movlw	0x0
	movwf	(trapmf@a)
	movlw	0x48
	movwf	(trapmf@a+1)
	movlw	0x43
	movwf	(trapmf@a+2)
	bsf	status, 5	;RP0=1, select bank1
	bcf	status, 6	;RP1=0, select bank1
	movf	(ISR@delta+1)^080h,w
	clrf	(___awtoft@c+1)
	addwf	(___awtoft@c+1)
	movf	(ISR@delta)^080h,w
	clrf	(___awtoft@c)
	addwf	(___awtoft@c)

	fcall	___awtoft
	movf	(0+(?___awtoft)),w
	bcf	status, 5	;RP0=0, select bank0
	bcf	status, 6	;RP1=0, select bank0
	movwf	(trapmf@x)
	movf	(1+(?___awtoft)),w
	movwf	(trapmf@x+1)
	movf	(2+(?___awtoft)),w
	movwf	(trapmf@x+2)
	fcall	_trapmf
	bcf	status, 5	;RP0=0, select bank0
	bcf	status, 6	;RP1=0, select bank0
	movf	(0+(?_trapmf)),w
	movwf	(___ftmul@f1)
	movf	(1+(?_trapmf)),w
	movwf	(___ftmul@f1+1)
	movf	(2+(?_trapmf)),w
	movwf	(___ftmul@f1+2)
	movlw	0xc0
	movwf	(trapmf@d)
	movlw	0xc1
	movwf	(trapmf@d+1)
	movlw	0x44
	movwf	(trapmf@d+2)
	movlw	0x0
	movwf	(trapmf@c)
	movlw	0x48
	movwf	(trapmf@c+1)
	movlw	0x44
	movwf	(trapmf@c+2)
	movlw	0x0
	movwf	(trapmf@b)
	movlw	0x48
	movwf	(trapmf@b+1)
	movlw	0x44
	movwf	(trapmf@b+2)
	movlw	0x0
	movwf	(trapmf@a)
	movlw	0x48
	movwf	(trapmf@a+1)
	movlw	0x42
	movwf	(trapmf@a+2)
	bsf	status, 5	;RP0=1, select bank1
	bcf	status, 6	;RP1=0, select bank1
	movf	(_erro_atual+1)^080h,w
	clrf	(___awtoft@c+1)
	addwf	(___awtoft@c+1)
	movf	(_erro_atual)^080h,w
	clrf	(___awtoft@c)
	addwf	(___awtoft@c)

	fcall	___awtoft
	movf	(0+(?___awtoft)),w
	bcf	status, 5	;RP0=0, select bank0
	bcf	status, 6	;RP1=0, select bank0
	movwf	(trapmf@x)
	movf	(1+(?___awtoft)),w
	movwf	(trapmf@x+1)
	movf	(2+(?___awtoft)),w
	movwf	(trapmf@x+2)
	fcall	_trapmf
	bcf	status, 5	;RP0=0, select bank0
	bcf	status, 6	;RP1=0, select bank0
	movf	(0+(?_trapmf)),w
	movwf	(___ftmul@f2)
	movf	(1+(?_trapmf)),w
	movwf	(___ftmul@f2+1)
	movf	(2+(?_trapmf)),w
	movwf	(___ftmul@f2+2)
	fcall	___ftmul
	bcf	status, 5	;RP0=0, select bank0
	bcf	status, 6	;RP1=0, select bank0
	movf	(0+(?___ftmul)),w
	bsf	status, 5	;RP0=1, select bank1
	bcf	status, 6	;RP1=0, select bank1
	movwf	(ISR@rule)^080h
	bcf	status, 5	;RP0=0, select bank0
	bcf	status, 6	;RP1=0, select bank0
	movf	(1+(?___ftmul)),w
	bsf	status, 5	;RP0=1, select bank1
	bcf	status, 6	;RP1=0, select bank1
	movwf	(ISR@rule+1)^080h
	bcf	status, 5	;RP0=0, select bank0
	bcf	status, 6	;RP1=0, select bank0
	movf	(2+(?___ftmul)),w
	bsf	status, 5	;RP0=1, select bank1
	bcf	status, 6	;RP1=0, select bank1
	movwf	(ISR@rule+2)^080h
	line	300
	
i1l3918:	
;main.c: 300: x = 0;
	movlw	0x0
	movwf	(ISR@x)^080h
	movlw	0x0
	movwf	(ISR@x+1)^080h
	movlw	0x0
	movwf	(ISR@x+2)^080h
	line	301
	
i1l3920:	
;main.c: 301: for (int a = 0; a <= 15; a++) {
	clrf	(ISR@a_248)^080h
	clrf	(ISR@a_248+1)^080h
	
i1l3922:	
	movf	(ISR@a_248+1)^080h,w
	xorlw	80h
	movwf	btemp+1
	movlw	(high(010h))^80h
	subwf	btemp+1,w
	skipz
	goto	u567_25
	movlw	low(010h)
	subwf	(ISR@a_248)^080h,w
u567_25:

	skipc
	goto	u567_21
	goto	u567_20
u567_21:
	goto	i1l3926
u567_20:
	goto	i1l3936
	
i1l3924:	
	goto	i1l3936
	
i1l167:	
	line	302
	
i1l3926:	
;main.c: 302: rMedio[a] = trapmf(x, 2, 5, 5, 10);
	movlw	(03h)
	bcf	status, 5	;RP0=0, select bank0
	bcf	status, 6	;RP1=0, select bank0
	movwf	(??_ISR+0)+0
	movf	(??_ISR+0)+0,w
	movwf	(___bmul@multiplicand)
	bsf	status, 5	;RP0=1, select bank1
	bcf	status, 6	;RP1=0, select bank1
	movf	(ISR@a_248)^080h,w
	fcall	___bmul
	addlw	_rMedio&0ffh
	movwf	fsr0
	bsf	status, 5	;RP0=1, select bank1
	bcf	status, 6	;RP1=0, select bank1
	movf	(ISR@x)^080h,w
	bcf	status, 5	;RP0=0, select bank0
	bcf	status, 6	;RP1=0, select bank0
	movwf	(trapmf@x)
	bsf	status, 5	;RP0=1, select bank1
	bcf	status, 6	;RP1=0, select bank1
	movf	(ISR@x+1)^080h,w
	bcf	status, 5	;RP0=0, select bank0
	bcf	status, 6	;RP1=0, select bank0
	movwf	(trapmf@x+1)
	bsf	status, 5	;RP0=1, select bank1
	bcf	status, 6	;RP1=0, select bank1
	movf	(ISR@x+2)^080h,w
	bcf	status, 5	;RP0=0, select bank0
	bcf	status, 6	;RP1=0, select bank0
	movwf	(trapmf@x+2)
	movlw	0x0
	movwf	(trapmf@a)
	movlw	0x0
	movwf	(trapmf@a+1)
	movlw	0x40
	movwf	(trapmf@a+2)
	movlw	0x0
	movwf	(trapmf@b)
	movlw	0xa0
	movwf	(trapmf@b+1)
	movlw	0x40
	movwf	(trapmf@b+2)
	movlw	0x0
	movwf	(trapmf@c)
	movlw	0xa0
	movwf	(trapmf@c+1)
	movlw	0x40
	movwf	(trapmf@c+2)
	movlw	0x0
	movwf	(trapmf@d)
	movlw	0x20
	movwf	(trapmf@d+1)
	movlw	0x41
	movwf	(trapmf@d+2)
	fcall	_trapmf
	bcf	status, 5	;RP0=0, select bank0
	bcf	status, 6	;RP1=0, select bank0
	movf	(0+(?_trapmf)),w
	bsf	status, 7	;select IRP bank2
	movwf	indf
	incf	fsr0,f
	movf	(1+(?_trapmf)),w
	movwf	indf
	incf	fsr0,f
	movf	(2+(?_trapmf)),w
	movwf	indf
	line	304
;main.c: 304: if (rMedio[a] >= rule) {
	movlw	(03h)
	movwf	(??_ISR+0)+0
	movf	(??_ISR+0)+0,w
	movwf	(___bmul@multiplicand)
	bsf	status, 5	;RP0=1, select bank1
	bcf	status, 6	;RP1=0, select bank1
	movf	(ISR@a_248)^080h,w
	fcall	___bmul
	addlw	_rMedio&0ffh
	movwf	fsr0
	bsf	status, 7	;select IRP bank2
	movf	indf,w
	movwf	(___ftge@ff1)
	incf	fsr0,f
	movf	indf,w
	movwf	(___ftge@ff1+1)
	incf	fsr0,f
	movf	indf,w
	movwf	(___ftge@ff1+2)
	bsf	status, 5	;RP0=1, select bank1
	bcf	status, 6	;RP1=0, select bank1
	movf	(ISR@rule)^080h,w
	movwf	(___ftge@ff2)
	movf	(ISR@rule+1)^080h,w
	movwf	(___ftge@ff2+1)
	movf	(ISR@rule+2)^080h,w
	movwf	(___ftge@ff2+2)
	fcall	___ftge
	btfss	status,0
	goto	u568_21
	goto	u568_20
u568_21:
	goto	i1l3930
u568_20:
	line	305
	
i1l3928:	
;main.c: 305: rMedio[a] = rule;
	movlw	(03h)
	bcf	status, 5	;RP0=0, select bank0
	bcf	status, 6	;RP1=0, select bank0
	movwf	(??_ISR+0)+0
	movf	(??_ISR+0)+0,w
	movwf	(___bmul@multiplicand)
	bsf	status, 5	;RP0=1, select bank1
	bcf	status, 6	;RP1=0, select bank1
	movf	(ISR@a_248)^080h,w
	fcall	___bmul
	addlw	_rMedio&0ffh
	movwf	fsr0
	bsf	status, 5	;RP0=1, select bank1
	bcf	status, 6	;RP1=0, select bank1
	movf	(ISR@rule)^080h,w
	bsf	status, 7	;select IRP bank2
	movwf	indf
	incf	fsr0,f
	movf	(ISR@rule+1)^080h,w
	movwf	indf
	incf	fsr0,f
	movf	(ISR@rule+2)^080h,w
	movwf	indf
	goto	i1l3930
	line	306
	
i1l169:	
	line	308
	
i1l3930:	
;main.c: 306: }
;main.c: 308: x += 1;
	movlw	0x0
	bcf	status, 5	;RP0=0, select bank0
	bcf	status, 6	;RP1=0, select bank0
	movwf	(___ftadd@f1)
	movlw	0x80
	movwf	(___ftadd@f1+1)
	movlw	0x3f
	movwf	(___ftadd@f1+2)
	bsf	status, 5	;RP0=1, select bank1
	bcf	status, 6	;RP1=0, select bank1
	movf	(ISR@x)^080h,w
	bcf	status, 5	;RP0=0, select bank0
	bcf	status, 6	;RP1=0, select bank0
	movwf	(___ftadd@f2)
	bsf	status, 5	;RP0=1, select bank1
	bcf	status, 6	;RP1=0, select bank1
	movf	(ISR@x+1)^080h,w
	bcf	status, 5	;RP0=0, select bank0
	bcf	status, 6	;RP1=0, select bank0
	movwf	(___ftadd@f2+1)
	bsf	status, 5	;RP0=1, select bank1
	bcf	status, 6	;RP1=0, select bank1
	movf	(ISR@x+2)^080h,w
	bcf	status, 5	;RP0=0, select bank0
	bcf	status, 6	;RP1=0, select bank0
	movwf	(___ftadd@f2+2)
	fcall	___ftadd
	bcf	status, 5	;RP0=0, select bank0
	bcf	status, 6	;RP1=0, select bank0
	movf	(0+(?___ftadd)),w
	bsf	status, 5	;RP0=1, select bank1
	bcf	status, 6	;RP1=0, select bank1
	movwf	(ISR@x)^080h
	bcf	status, 5	;RP0=0, select bank0
	bcf	status, 6	;RP1=0, select bank0
	movf	(1+(?___ftadd)),w
	bsf	status, 5	;RP0=1, select bank1
	bcf	status, 6	;RP1=0, select bank1
	movwf	(ISR@x+1)^080h
	bcf	status, 5	;RP0=0, select bank0
	bcf	status, 6	;RP1=0, select bank0
	movf	(2+(?___ftadd)),w
	bsf	status, 5	;RP0=1, select bank1
	bcf	status, 6	;RP1=0, select bank1
	movwf	(ISR@x+2)^080h
	line	301
	
i1l3932:	
	movlw	low(01h)
	addwf	(ISR@a_248)^080h,f
	skipnc
	incf	(ISR@a_248+1)^080h,f
	movlw	high(01h)
	addwf	(ISR@a_248+1)^080h,f
	
i1l3934:	
	movf	(ISR@a_248+1)^080h,w
	xorlw	80h
	movwf	btemp+1
	movlw	(high(010h))^80h
	subwf	btemp+1,w
	skipz
	goto	u569_25
	movlw	low(010h)
	subwf	(ISR@a_248)^080h,w
u569_25:

	skipc
	goto	u569_21
	goto	u569_20
u569_21:
	goto	i1l3926
u569_20:
	goto	i1l3936
	
i1l168:	
	goto	i1l3936
	line	310
	
i1l166:	
	line	313
	
i1l3936:	
;main.c: 309: }
;main.c: 310: }
;main.c: 313: if (erro_atual >= 1001) {
	bsf	status, 5	;RP0=1, select bank1
	bcf	status, 6	;RP1=0, select bank1
	movf	(_erro_atual+1)^080h,w
	xorlw	80h
	movwf	btemp+1
	movlw	(high(03E9h))^80h
	subwf	btemp+1,w
	skipz
	goto	u570_25
	movlw	low(03E9h)
	subwf	(_erro_atual)^080h,w
u570_25:

	skipc
	goto	u570_21
	goto	u570_20
u570_21:
	goto	i1l3958
u570_20:
	line	315
	
i1l3938:	
;main.c: 315: rule = trapmf(erro_atual, 1001, 1500, 2000, 2001);
	bsf	status, 5	;RP0=1, select bank1
	bcf	status, 6	;RP1=0, select bank1
	movf	(_erro_atual+1)^080h,w
	clrf	(___awtoft@c+1)
	addwf	(___awtoft@c+1)
	movf	(_erro_atual)^080h,w
	clrf	(___awtoft@c)
	addwf	(___awtoft@c)

	fcall	___awtoft
	movf	(0+(?___awtoft)),w
	bcf	status, 5	;RP0=0, select bank0
	bcf	status, 6	;RP1=0, select bank0
	movwf	(trapmf@x)
	movf	(1+(?___awtoft)),w
	movwf	(trapmf@x+1)
	movf	(2+(?___awtoft)),w
	movwf	(trapmf@x+2)
	movlw	0x40
	movwf	(trapmf@a)
	movlw	0x7a
	movwf	(trapmf@a+1)
	movlw	0x44
	movwf	(trapmf@a+2)
	movlw	0x80
	movwf	(trapmf@b)
	movlw	0xbb
	movwf	(trapmf@b+1)
	movlw	0x44
	movwf	(trapmf@b+2)
	movlw	0x0
	movwf	(trapmf@c)
	movlw	0xfa
	movwf	(trapmf@c+1)
	movlw	0x44
	movwf	(trapmf@c+2)
	movlw	0x20
	movwf	(trapmf@d)
	movlw	0xfa
	movwf	(trapmf@d+1)
	movlw	0x44
	movwf	(trapmf@d+2)
	fcall	_trapmf
	bcf	status, 5	;RP0=0, select bank0
	bcf	status, 6	;RP1=0, select bank0
	movf	(0+(?_trapmf)),w
	bsf	status, 5	;RP0=1, select bank1
	bcf	status, 6	;RP1=0, select bank1
	movwf	(ISR@rule)^080h
	bcf	status, 5	;RP0=0, select bank0
	bcf	status, 6	;RP1=0, select bank0
	movf	(1+(?_trapmf)),w
	bsf	status, 5	;RP0=1, select bank1
	bcf	status, 6	;RP1=0, select bank1
	movwf	(ISR@rule+1)^080h
	bcf	status, 5	;RP0=0, select bank0
	bcf	status, 6	;RP1=0, select bank0
	movf	(2+(?_trapmf)),w
	bsf	status, 5	;RP0=1, select bank1
	bcf	status, 6	;RP1=0, select bank1
	movwf	(ISR@rule+2)^080h
	line	317
	
i1l3940:	
;main.c: 317: x = 0;
	movlw	0x0
	movwf	(ISR@x)^080h
	movlw	0x0
	movwf	(ISR@x+1)^080h
	movlw	0x0
	movwf	(ISR@x+2)^080h
	line	318
	
i1l3942:	
;main.c: 318: for (int a = 0; a <= 15; a++) {
	clrf	(ISR@a_249)^080h
	clrf	(ISR@a_249+1)^080h
	
i1l3944:	
	movf	(ISR@a_249+1)^080h,w
	xorlw	80h
	movwf	btemp+1
	movlw	(high(010h))^80h
	subwf	btemp+1,w
	skipz
	goto	u571_25
	movlw	low(010h)
	subwf	(ISR@a_249)^080h,w
u571_25:

	skipc
	goto	u571_21
	goto	u571_20
u571_21:
	goto	i1l3948
u571_20:
	goto	i1l3958
	
i1l3946:	
	goto	i1l3958
	
i1l171:	
	line	319
	
i1l3948:	
;main.c: 319: rGrande[a] = trapmf(x, 5, 10, 15, 16);
	movlw	(03h)
	bcf	status, 5	;RP0=0, select bank0
	bcf	status, 6	;RP1=0, select bank0
	movwf	(??_ISR+0)+0
	movf	(??_ISR+0)+0,w
	movwf	(___bmul@multiplicand)
	bsf	status, 5	;RP0=1, select bank1
	bcf	status, 6	;RP1=0, select bank1
	movf	(ISR@a_249)^080h,w
	fcall	___bmul
	addlw	_rGrande&0ffh
	movwf	fsr0
	bsf	status, 5	;RP0=1, select bank1
	bcf	status, 6	;RP1=0, select bank1
	movf	(ISR@x)^080h,w
	bcf	status, 5	;RP0=0, select bank0
	bcf	status, 6	;RP1=0, select bank0
	movwf	(trapmf@x)
	bsf	status, 5	;RP0=1, select bank1
	bcf	status, 6	;RP1=0, select bank1
	movf	(ISR@x+1)^080h,w
	bcf	status, 5	;RP0=0, select bank0
	bcf	status, 6	;RP1=0, select bank0
	movwf	(trapmf@x+1)
	bsf	status, 5	;RP0=1, select bank1
	bcf	status, 6	;RP1=0, select bank1
	movf	(ISR@x+2)^080h,w
	bcf	status, 5	;RP0=0, select bank0
	bcf	status, 6	;RP1=0, select bank0
	movwf	(trapmf@x+2)
	movlw	0x0
	movwf	(trapmf@a)
	movlw	0xa0
	movwf	(trapmf@a+1)
	movlw	0x40
	movwf	(trapmf@a+2)
	movlw	0x0
	movwf	(trapmf@b)
	movlw	0x20
	movwf	(trapmf@b+1)
	movlw	0x41
	movwf	(trapmf@b+2)
	movlw	0x0
	movwf	(trapmf@c)
	movlw	0x70
	movwf	(trapmf@c+1)
	movlw	0x41
	movwf	(trapmf@c+2)
	movlw	0x0
	movwf	(trapmf@d)
	movlw	0x80
	movwf	(trapmf@d+1)
	movlw	0x41
	movwf	(trapmf@d+2)
	fcall	_trapmf
	bcf	status, 5	;RP0=0, select bank0
	bcf	status, 6	;RP1=0, select bank0
	movf	(0+(?_trapmf)),w
	bsf	status, 7	;select IRP bank2
	movwf	indf
	incf	fsr0,f
	movf	(1+(?_trapmf)),w
	movwf	indf
	incf	fsr0,f
	movf	(2+(?_trapmf)),w
	movwf	indf
	line	321
;main.c: 321: if (rGrande[a] >= rule) {
	movlw	(03h)
	movwf	(??_ISR+0)+0
	movf	(??_ISR+0)+0,w
	movwf	(___bmul@multiplicand)
	bsf	status, 5	;RP0=1, select bank1
	bcf	status, 6	;RP1=0, select bank1
	movf	(ISR@a_249)^080h,w
	fcall	___bmul
	addlw	_rGrande&0ffh
	movwf	fsr0
	bsf	status, 7	;select IRP bank2
	movf	indf,w
	movwf	(___ftge@ff1)
	incf	fsr0,f
	movf	indf,w
	movwf	(___ftge@ff1+1)
	incf	fsr0,f
	movf	indf,w
	movwf	(___ftge@ff1+2)
	bsf	status, 5	;RP0=1, select bank1
	bcf	status, 6	;RP1=0, select bank1
	movf	(ISR@rule)^080h,w
	movwf	(___ftge@ff2)
	movf	(ISR@rule+1)^080h,w
	movwf	(___ftge@ff2+1)
	movf	(ISR@rule+2)^080h,w
	movwf	(___ftge@ff2+2)
	fcall	___ftge
	btfss	status,0
	goto	u572_21
	goto	u572_20
u572_21:
	goto	i1l3952
u572_20:
	line	322
	
i1l3950:	
;main.c: 322: rGrande[a] = rule;
	movlw	(03h)
	bcf	status, 5	;RP0=0, select bank0
	bcf	status, 6	;RP1=0, select bank0
	movwf	(??_ISR+0)+0
	movf	(??_ISR+0)+0,w
	movwf	(___bmul@multiplicand)
	bsf	status, 5	;RP0=1, select bank1
	bcf	status, 6	;RP1=0, select bank1
	movf	(ISR@a_249)^080h,w
	fcall	___bmul
	addlw	_rGrande&0ffh
	movwf	fsr0
	bsf	status, 5	;RP0=1, select bank1
	bcf	status, 6	;RP1=0, select bank1
	movf	(ISR@rule)^080h,w
	bsf	status, 7	;select IRP bank2
	movwf	indf
	incf	fsr0,f
	movf	(ISR@rule+1)^080h,w
	movwf	indf
	incf	fsr0,f
	movf	(ISR@rule+2)^080h,w
	movwf	indf
	goto	i1l3952
	line	323
	
i1l173:	
	line	325
	
i1l3952:	
;main.c: 323: }
;main.c: 325: x += 1;
	movlw	0x0
	bcf	status, 5	;RP0=0, select bank0
	bcf	status, 6	;RP1=0, select bank0
	movwf	(___ftadd@f1)
	movlw	0x80
	movwf	(___ftadd@f1+1)
	movlw	0x3f
	movwf	(___ftadd@f1+2)
	bsf	status, 5	;RP0=1, select bank1
	bcf	status, 6	;RP1=0, select bank1
	movf	(ISR@x)^080h,w
	bcf	status, 5	;RP0=0, select bank0
	bcf	status, 6	;RP1=0, select bank0
	movwf	(___ftadd@f2)
	bsf	status, 5	;RP0=1, select bank1
	bcf	status, 6	;RP1=0, select bank1
	movf	(ISR@x+1)^080h,w
	bcf	status, 5	;RP0=0, select bank0
	bcf	status, 6	;RP1=0, select bank0
	movwf	(___ftadd@f2+1)
	bsf	status, 5	;RP0=1, select bank1
	bcf	status, 6	;RP1=0, select bank1
	movf	(ISR@x+2)^080h,w
	bcf	status, 5	;RP0=0, select bank0
	bcf	status, 6	;RP1=0, select bank0
	movwf	(___ftadd@f2+2)
	fcall	___ftadd
	bcf	status, 5	;RP0=0, select bank0
	bcf	status, 6	;RP1=0, select bank0
	movf	(0+(?___ftadd)),w
	bsf	status, 5	;RP0=1, select bank1
	bcf	status, 6	;RP1=0, select bank1
	movwf	(ISR@x)^080h
	bcf	status, 5	;RP0=0, select bank0
	bcf	status, 6	;RP1=0, select bank0
	movf	(1+(?___ftadd)),w
	bsf	status, 5	;RP0=1, select bank1
	bcf	status, 6	;RP1=0, select bank1
	movwf	(ISR@x+1)^080h
	bcf	status, 5	;RP0=0, select bank0
	bcf	status, 6	;RP1=0, select bank0
	movf	(2+(?___ftadd)),w
	bsf	status, 5	;RP0=1, select bank1
	bcf	status, 6	;RP1=0, select bank1
	movwf	(ISR@x+2)^080h
	line	318
	
i1l3954:	
	movlw	low(01h)
	addwf	(ISR@a_249)^080h,f
	skipnc
	incf	(ISR@a_249+1)^080h,f
	movlw	high(01h)
	addwf	(ISR@a_249+1)^080h,f
	
i1l3956:	
	movf	(ISR@a_249+1)^080h,w
	xorlw	80h
	movwf	btemp+1
	movlw	(high(010h))^80h
	subwf	btemp+1,w
	skipz
	goto	u573_25
	movlw	low(010h)
	subwf	(ISR@a_249)^080h,w
u573_25:

	skipc
	goto	u573_21
	goto	u573_20
u573_21:
	goto	i1l3948
u573_20:
	goto	i1l3958
	
i1l172:	
	goto	i1l3958
	line	327
	
i1l170:	
	line	331
	
i1l3958:	
;main.c: 326: }
;main.c: 327: }
;main.c: 331: x = 0;
	movlw	0x0
	bsf	status, 5	;RP0=1, select bank1
	bcf	status, 6	;RP1=0, select bank1
	movwf	(ISR@x)^080h
	movlw	0x0
	movwf	(ISR@x+1)^080h
	movlw	0x0
	movwf	(ISR@x+2)^080h
	line	332
;main.c: 332: float total_area = 0;
	movlw	0x0
	movwf	(ISR@total_area)^080h
	movlw	0x0
	movwf	(ISR@total_area+1)^080h
	movlw	0x0
	movwf	(ISR@total_area+2)^080h
	line	333
;main.c: 333: float soma = 0;
	movlw	0x0
	movwf	(ISR@soma)^080h
	movlw	0x0
	movwf	(ISR@soma+1)^080h
	movlw	0x0
	movwf	(ISR@soma+2)^080h
	line	334
	
i1l3960:	
;main.c: 334: for (int a = 0; a <= 15; a++) {
	clrf	(ISR@a_252)^080h
	clrf	(ISR@a_252+1)^080h
	
i1l3962:	
	movf	(ISR@a_252+1)^080h,w
	xorlw	80h
	movwf	btemp+1
	movlw	(high(010h))^80h
	subwf	btemp+1,w
	skipz
	goto	u574_25
	movlw	low(010h)
	subwf	(ISR@a_252)^080h,w
u574_25:

	skipc
	goto	u574_21
	goto	u574_20
u574_21:
	goto	i1l174
u574_20:
	goto	i1l3988
	
i1l3964:	
	goto	i1l3988
	
i1l174:	
	line	335
;main.c: 335: if (a >= 0 && a <= 5) {
	bsf	status, 5	;RP0=1, select bank1
	bcf	status, 6	;RP1=0, select bank1
	btfsc	(ISR@a_252+1)^080h,7
	goto	u575_21
	goto	u575_20
u575_21:
	goto	i1l3970
u575_20:
	
i1l3966:	
	movf	(ISR@a_252+1)^080h,w
	xorlw	80h
	movwf	btemp+1
	movlw	(high(06h))^80h
	subwf	btemp+1,w
	skipz
	goto	u576_25
	movlw	low(06h)
	subwf	(ISR@a_252)^080h,w
u576_25:

	skipnc
	goto	u576_21
	goto	u576_20
u576_21:
	goto	i1l3970
u576_20:
	line	336
	
i1l3968:	
;main.c: 336: total_area += rBaixo[a];
	movlw	(03h)
	bcf	status, 5	;RP0=0, select bank0
	bcf	status, 6	;RP1=0, select bank0
	movwf	(??_ISR+0)+0
	movf	(??_ISR+0)+0,w
	movwf	(___bmul@multiplicand)
	bsf	status, 5	;RP0=1, select bank1
	bcf	status, 6	;RP1=0, select bank1
	movf	(ISR@a_252)^080h,w
	fcall	___bmul
	addlw	_rBaixo&0ffh
	movwf	fsr0
	bsf	status, 7	;select IRP bank3
	movf	indf,w
	bcf	status, 5	;RP0=0, select bank0
	bcf	status, 6	;RP1=0, select bank0
	movwf	(___ftadd@f1)
	incf	fsr0,f
	movf	indf,w
	movwf	(___ftadd@f1+1)
	incf	fsr0,f
	movf	indf,w
	movwf	(___ftadd@f1+2)
	bsf	status, 5	;RP0=1, select bank1
	bcf	status, 6	;RP1=0, select bank1
	movf	(ISR@total_area)^080h,w
	bcf	status, 5	;RP0=0, select bank0
	bcf	status, 6	;RP1=0, select bank0
	movwf	(___ftadd@f2)
	bsf	status, 5	;RP0=1, select bank1
	bcf	status, 6	;RP1=0, select bank1
	movf	(ISR@total_area+1)^080h,w
	bcf	status, 5	;RP0=0, select bank0
	bcf	status, 6	;RP1=0, select bank0
	movwf	(___ftadd@f2+1)
	bsf	status, 5	;RP0=1, select bank1
	bcf	status, 6	;RP1=0, select bank1
	movf	(ISR@total_area+2)^080h,w
	bcf	status, 5	;RP0=0, select bank0
	bcf	status, 6	;RP1=0, select bank0
	movwf	(___ftadd@f2+2)
	fcall	___ftadd
	bcf	status, 5	;RP0=0, select bank0
	bcf	status, 6	;RP1=0, select bank0
	movf	(0+(?___ftadd)),w
	bsf	status, 5	;RP0=1, select bank1
	bcf	status, 6	;RP1=0, select bank1
	movwf	(ISR@total_area)^080h
	bcf	status, 5	;RP0=0, select bank0
	bcf	status, 6	;RP1=0, select bank0
	movf	(1+(?___ftadd)),w
	bsf	status, 5	;RP0=1, select bank1
	bcf	status, 6	;RP1=0, select bank1
	movwf	(ISR@total_area+1)^080h
	bcf	status, 5	;RP0=0, select bank0
	bcf	status, 6	;RP1=0, select bank0
	movf	(2+(?___ftadd)),w
	bsf	status, 5	;RP0=1, select bank1
	bcf	status, 6	;RP1=0, select bank1
	movwf	(ISR@total_area+2)^080h
	line	337
;main.c: 337: soma += (x * rBaixo[a]);
	movlw	(03h)
	bcf	status, 5	;RP0=0, select bank0
	bcf	status, 6	;RP1=0, select bank0
	movwf	(??_ISR+0)+0
	movf	(??_ISR+0)+0,w
	movwf	(___bmul@multiplicand)
	bsf	status, 5	;RP0=1, select bank1
	bcf	status, 6	;RP1=0, select bank1
	movf	(ISR@a_252)^080h,w
	fcall	___bmul
	addlw	_rBaixo&0ffh
	movwf	fsr0
	bsf	status, 7	;select IRP bank3
	movf	indf,w
	bcf	status, 5	;RP0=0, select bank0
	bcf	status, 6	;RP1=0, select bank0
	movwf	(___ftmul@f2)
	incf	fsr0,f
	movf	indf,w
	movwf	(___ftmul@f2+1)
	incf	fsr0,f
	movf	indf,w
	movwf	(___ftmul@f2+2)
	bsf	status, 5	;RP0=1, select bank1
	bcf	status, 6	;RP1=0, select bank1
	movf	(ISR@x)^080h,w
	bcf	status, 5	;RP0=0, select bank0
	bcf	status, 6	;RP1=0, select bank0
	movwf	(___ftmul@f1)
	bsf	status, 5	;RP0=1, select bank1
	bcf	status, 6	;RP1=0, select bank1
	movf	(ISR@x+1)^080h,w
	bcf	status, 5	;RP0=0, select bank0
	bcf	status, 6	;RP1=0, select bank0
	movwf	(___ftmul@f1+1)
	bsf	status, 5	;RP0=1, select bank1
	bcf	status, 6	;RP1=0, select bank1
	movf	(ISR@x+2)^080h,w
	bcf	status, 5	;RP0=0, select bank0
	bcf	status, 6	;RP1=0, select bank0
	movwf	(___ftmul@f1+2)
	fcall	___ftmul
	bcf	status, 5	;RP0=0, select bank0
	bcf	status, 6	;RP1=0, select bank0
	movf	(0+(?___ftmul)),w
	movwf	(___ftadd@f1)
	movf	(1+(?___ftmul)),w
	movwf	(___ftadd@f1+1)
	movf	(2+(?___ftmul)),w
	movwf	(___ftadd@f1+2)
	bsf	status, 5	;RP0=1, select bank1
	bcf	status, 6	;RP1=0, select bank1
	movf	(ISR@soma)^080h,w
	bcf	status, 5	;RP0=0, select bank0
	bcf	status, 6	;RP1=0, select bank0
	movwf	(___ftadd@f2)
	bsf	status, 5	;RP0=1, select bank1
	bcf	status, 6	;RP1=0, select bank1
	movf	(ISR@soma+1)^080h,w
	bcf	status, 5	;RP0=0, select bank0
	bcf	status, 6	;RP1=0, select bank0
	movwf	(___ftadd@f2+1)
	bsf	status, 5	;RP0=1, select bank1
	bcf	status, 6	;RP1=0, select bank1
	movf	(ISR@soma+2)^080h,w
	bcf	status, 5	;RP0=0, select bank0
	bcf	status, 6	;RP1=0, select bank0
	movwf	(___ftadd@f2+2)
	fcall	___ftadd
	bcf	status, 5	;RP0=0, select bank0
	bcf	status, 6	;RP1=0, select bank0
	movf	(0+(?___ftadd)),w
	bsf	status, 5	;RP0=1, select bank1
	bcf	status, 6	;RP1=0, select bank1
	movwf	(ISR@soma)^080h
	bcf	status, 5	;RP0=0, select bank0
	bcf	status, 6	;RP1=0, select bank0
	movf	(1+(?___ftadd)),w
	bsf	status, 5	;RP0=1, select bank1
	bcf	status, 6	;RP1=0, select bank1
	movwf	(ISR@soma+1)^080h
	bcf	status, 5	;RP0=0, select bank0
	bcf	status, 6	;RP1=0, select bank0
	movf	(2+(?___ftadd)),w
	bsf	status, 5	;RP0=1, select bank1
	bcf	status, 6	;RP1=0, select bank1
	movwf	(ISR@soma+2)^080h
	goto	i1l3970
	line	338
	
i1l176:	
	line	340
	
i1l3970:	
;main.c: 338: }
;main.c: 340: if (a >= 5 && a <= 10) {
	bsf	status, 5	;RP0=1, select bank1
	bcf	status, 6	;RP1=0, select bank1
	movf	(ISR@a_252+1)^080h,w
	xorlw	80h
	movwf	btemp+1
	movlw	(high(05h))^80h
	subwf	btemp+1,w
	skipz
	goto	u577_25
	movlw	low(05h)
	subwf	(ISR@a_252)^080h,w
u577_25:

	skipc
	goto	u577_21
	goto	u577_20
u577_21:
	goto	i1l3976
u577_20:
	
i1l3972:	
	bsf	status, 5	;RP0=1, select bank1
	bcf	status, 6	;RP1=0, select bank1
	movf	(ISR@a_252+1)^080h,w
	xorlw	80h
	movwf	btemp+1
	movlw	(high(0Bh))^80h
	subwf	btemp+1,w
	skipz
	goto	u578_25
	movlw	low(0Bh)
	subwf	(ISR@a_252)^080h,w
u578_25:

	skipnc
	goto	u578_21
	goto	u578_20
u578_21:
	goto	i1l3976
u578_20:
	line	341
	
i1l3974:	
;main.c: 341: total_area += rMedio[a];
	movlw	(03h)
	bcf	status, 5	;RP0=0, select bank0
	bcf	status, 6	;RP1=0, select bank0
	movwf	(??_ISR+0)+0
	movf	(??_ISR+0)+0,w
	movwf	(___bmul@multiplicand)
	bsf	status, 5	;RP0=1, select bank1
	bcf	status, 6	;RP1=0, select bank1
	movf	(ISR@a_252)^080h,w
	fcall	___bmul
	addlw	_rMedio&0ffh
	movwf	fsr0
	bsf	status, 7	;select IRP bank2
	movf	indf,w
	bcf	status, 5	;RP0=0, select bank0
	bcf	status, 6	;RP1=0, select bank0
	movwf	(___ftadd@f1)
	incf	fsr0,f
	movf	indf,w
	movwf	(___ftadd@f1+1)
	incf	fsr0,f
	movf	indf,w
	movwf	(___ftadd@f1+2)
	bsf	status, 5	;RP0=1, select bank1
	bcf	status, 6	;RP1=0, select bank1
	movf	(ISR@total_area)^080h,w
	bcf	status, 5	;RP0=0, select bank0
	bcf	status, 6	;RP1=0, select bank0
	movwf	(___ftadd@f2)
	bsf	status, 5	;RP0=1, select bank1
	bcf	status, 6	;RP1=0, select bank1
	movf	(ISR@total_area+1)^080h,w
	bcf	status, 5	;RP0=0, select bank0
	bcf	status, 6	;RP1=0, select bank0
	movwf	(___ftadd@f2+1)
	bsf	status, 5	;RP0=1, select bank1
	bcf	status, 6	;RP1=0, select bank1
	movf	(ISR@total_area+2)^080h,w
	bcf	status, 5	;RP0=0, select bank0
	bcf	status, 6	;RP1=0, select bank0
	movwf	(___ftadd@f2+2)
	fcall	___ftadd
	bcf	status, 5	;RP0=0, select bank0
	bcf	status, 6	;RP1=0, select bank0
	movf	(0+(?___ftadd)),w
	bsf	status, 5	;RP0=1, select bank1
	bcf	status, 6	;RP1=0, select bank1
	movwf	(ISR@total_area)^080h
	bcf	status, 5	;RP0=0, select bank0
	bcf	status, 6	;RP1=0, select bank0
	movf	(1+(?___ftadd)),w
	bsf	status, 5	;RP0=1, select bank1
	bcf	status, 6	;RP1=0, select bank1
	movwf	(ISR@total_area+1)^080h
	bcf	status, 5	;RP0=0, select bank0
	bcf	status, 6	;RP1=0, select bank0
	movf	(2+(?___ftadd)),w
	bsf	status, 5	;RP0=1, select bank1
	bcf	status, 6	;RP1=0, select bank1
	movwf	(ISR@total_area+2)^080h
	line	342
;main.c: 342: soma += (x * rMedio[a]);
	movlw	(03h)
	bcf	status, 5	;RP0=0, select bank0
	bcf	status, 6	;RP1=0, select bank0
	movwf	(??_ISR+0)+0
	movf	(??_ISR+0)+0,w
	movwf	(___bmul@multiplicand)
	bsf	status, 5	;RP0=1, select bank1
	bcf	status, 6	;RP1=0, select bank1
	movf	(ISR@a_252)^080h,w
	fcall	___bmul
	addlw	_rMedio&0ffh
	movwf	fsr0
	bsf	status, 7	;select IRP bank2
	movf	indf,w
	bcf	status, 5	;RP0=0, select bank0
	bcf	status, 6	;RP1=0, select bank0
	movwf	(___ftmul@f2)
	incf	fsr0,f
	movf	indf,w
	movwf	(___ftmul@f2+1)
	incf	fsr0,f
	movf	indf,w
	movwf	(___ftmul@f2+2)
	bsf	status, 5	;RP0=1, select bank1
	bcf	status, 6	;RP1=0, select bank1
	movf	(ISR@x)^080h,w
	bcf	status, 5	;RP0=0, select bank0
	bcf	status, 6	;RP1=0, select bank0
	movwf	(___ftmul@f1)
	bsf	status, 5	;RP0=1, select bank1
	bcf	status, 6	;RP1=0, select bank1
	movf	(ISR@x+1)^080h,w
	bcf	status, 5	;RP0=0, select bank0
	bcf	status, 6	;RP1=0, select bank0
	movwf	(___ftmul@f1+1)
	bsf	status, 5	;RP0=1, select bank1
	bcf	status, 6	;RP1=0, select bank1
	movf	(ISR@x+2)^080h,w
	bcf	status, 5	;RP0=0, select bank0
	bcf	status, 6	;RP1=0, select bank0
	movwf	(___ftmul@f1+2)
	fcall	___ftmul
	bcf	status, 5	;RP0=0, select bank0
	bcf	status, 6	;RP1=0, select bank0
	movf	(0+(?___ftmul)),w
	movwf	(___ftadd@f1)
	movf	(1+(?___ftmul)),w
	movwf	(___ftadd@f1+1)
	movf	(2+(?___ftmul)),w
	movwf	(___ftadd@f1+2)
	bsf	status, 5	;RP0=1, select bank1
	bcf	status, 6	;RP1=0, select bank1
	movf	(ISR@soma)^080h,w
	bcf	status, 5	;RP0=0, select bank0
	bcf	status, 6	;RP1=0, select bank0
	movwf	(___ftadd@f2)
	bsf	status, 5	;RP0=1, select bank1
	bcf	status, 6	;RP1=0, select bank1
	movf	(ISR@soma+1)^080h,w
	bcf	status, 5	;RP0=0, select bank0
	bcf	status, 6	;RP1=0, select bank0
	movwf	(___ftadd@f2+1)
	bsf	status, 5	;RP0=1, select bank1
	bcf	status, 6	;RP1=0, select bank1
	movf	(ISR@soma+2)^080h,w
	bcf	status, 5	;RP0=0, select bank0
	bcf	status, 6	;RP1=0, select bank0
	movwf	(___ftadd@f2+2)
	fcall	___ftadd
	bcf	status, 5	;RP0=0, select bank0
	bcf	status, 6	;RP1=0, select bank0
	movf	(0+(?___ftadd)),w
	bsf	status, 5	;RP0=1, select bank1
	bcf	status, 6	;RP1=0, select bank1
	movwf	(ISR@soma)^080h
	bcf	status, 5	;RP0=0, select bank0
	bcf	status, 6	;RP1=0, select bank0
	movf	(1+(?___ftadd)),w
	bsf	status, 5	;RP0=1, select bank1
	bcf	status, 6	;RP1=0, select bank1
	movwf	(ISR@soma+1)^080h
	bcf	status, 5	;RP0=0, select bank0
	bcf	status, 6	;RP1=0, select bank0
	movf	(2+(?___ftadd)),w
	bsf	status, 5	;RP0=1, select bank1
	bcf	status, 6	;RP1=0, select bank1
	movwf	(ISR@soma+2)^080h
	goto	i1l3976
	line	343
	
i1l177:	
	line	345
	
i1l3976:	
;main.c: 343: }
;main.c: 345: if (a >= 10 && a <= 15) {
	bsf	status, 5	;RP0=1, select bank1
	bcf	status, 6	;RP1=0, select bank1
	movf	(ISR@a_252+1)^080h,w
	xorlw	80h
	movwf	btemp+1
	movlw	(high(0Ah))^80h
	subwf	btemp+1,w
	skipz
	goto	u579_25
	movlw	low(0Ah)
	subwf	(ISR@a_252)^080h,w
u579_25:

	skipc
	goto	u579_21
	goto	u579_20
u579_21:
	goto	i1l3982
u579_20:
	
i1l3978:	
	bsf	status, 5	;RP0=1, select bank1
	bcf	status, 6	;RP1=0, select bank1
	movf	(ISR@a_252+1)^080h,w
	xorlw	80h
	movwf	btemp+1
	movlw	(high(010h))^80h
	subwf	btemp+1,w
	skipz
	goto	u580_25
	movlw	low(010h)
	subwf	(ISR@a_252)^080h,w
u580_25:

	skipnc
	goto	u580_21
	goto	u580_20
u580_21:
	goto	i1l3982
u580_20:
	line	346
	
i1l3980:	
;main.c: 346: total_area += rGrande[a];
	movlw	(03h)
	bcf	status, 5	;RP0=0, select bank0
	bcf	status, 6	;RP1=0, select bank0
	movwf	(??_ISR+0)+0
	movf	(??_ISR+0)+0,w
	movwf	(___bmul@multiplicand)
	bsf	status, 5	;RP0=1, select bank1
	bcf	status, 6	;RP1=0, select bank1
	movf	(ISR@a_252)^080h,w
	fcall	___bmul
	addlw	_rGrande&0ffh
	movwf	fsr0
	bsf	status, 7	;select IRP bank2
	movf	indf,w
	bcf	status, 5	;RP0=0, select bank0
	bcf	status, 6	;RP1=0, select bank0
	movwf	(___ftadd@f1)
	incf	fsr0,f
	movf	indf,w
	movwf	(___ftadd@f1+1)
	incf	fsr0,f
	movf	indf,w
	movwf	(___ftadd@f1+2)
	bsf	status, 5	;RP0=1, select bank1
	bcf	status, 6	;RP1=0, select bank1
	movf	(ISR@total_area)^080h,w
	bcf	status, 5	;RP0=0, select bank0
	bcf	status, 6	;RP1=0, select bank0
	movwf	(___ftadd@f2)
	bsf	status, 5	;RP0=1, select bank1
	bcf	status, 6	;RP1=0, select bank1
	movf	(ISR@total_area+1)^080h,w
	bcf	status, 5	;RP0=0, select bank0
	bcf	status, 6	;RP1=0, select bank0
	movwf	(___ftadd@f2+1)
	bsf	status, 5	;RP0=1, select bank1
	bcf	status, 6	;RP1=0, select bank1
	movf	(ISR@total_area+2)^080h,w
	bcf	status, 5	;RP0=0, select bank0
	bcf	status, 6	;RP1=0, select bank0
	movwf	(___ftadd@f2+2)
	fcall	___ftadd
	bcf	status, 5	;RP0=0, select bank0
	bcf	status, 6	;RP1=0, select bank0
	movf	(0+(?___ftadd)),w
	bsf	status, 5	;RP0=1, select bank1
	bcf	status, 6	;RP1=0, select bank1
	movwf	(ISR@total_area)^080h
	bcf	status, 5	;RP0=0, select bank0
	bcf	status, 6	;RP1=0, select bank0
	movf	(1+(?___ftadd)),w
	bsf	status, 5	;RP0=1, select bank1
	bcf	status, 6	;RP1=0, select bank1
	movwf	(ISR@total_area+1)^080h
	bcf	status, 5	;RP0=0, select bank0
	bcf	status, 6	;RP1=0, select bank0
	movf	(2+(?___ftadd)),w
	bsf	status, 5	;RP0=1, select bank1
	bcf	status, 6	;RP1=0, select bank1
	movwf	(ISR@total_area+2)^080h
	line	347
;main.c: 347: soma += (x * rGrande[a]);
	movlw	(03h)
	bcf	status, 5	;RP0=0, select bank0
	bcf	status, 6	;RP1=0, select bank0
	movwf	(??_ISR+0)+0
	movf	(??_ISR+0)+0,w
	movwf	(___bmul@multiplicand)
	bsf	status, 5	;RP0=1, select bank1
	bcf	status, 6	;RP1=0, select bank1
	movf	(ISR@a_252)^080h,w
	fcall	___bmul
	addlw	_rGrande&0ffh
	movwf	fsr0
	bsf	status, 7	;select IRP bank2
	movf	indf,w
	bcf	status, 5	;RP0=0, select bank0
	bcf	status, 6	;RP1=0, select bank0
	movwf	(___ftmul@f2)
	incf	fsr0,f
	movf	indf,w
	movwf	(___ftmul@f2+1)
	incf	fsr0,f
	movf	indf,w
	movwf	(___ftmul@f2+2)
	bsf	status, 5	;RP0=1, select bank1
	bcf	status, 6	;RP1=0, select bank1
	movf	(ISR@x)^080h,w
	bcf	status, 5	;RP0=0, select bank0
	bcf	status, 6	;RP1=0, select bank0
	movwf	(___ftmul@f1)
	bsf	status, 5	;RP0=1, select bank1
	bcf	status, 6	;RP1=0, select bank1
	movf	(ISR@x+1)^080h,w
	bcf	status, 5	;RP0=0, select bank0
	bcf	status, 6	;RP1=0, select bank0
	movwf	(___ftmul@f1+1)
	bsf	status, 5	;RP0=1, select bank1
	bcf	status, 6	;RP1=0, select bank1
	movf	(ISR@x+2)^080h,w
	bcf	status, 5	;RP0=0, select bank0
	bcf	status, 6	;RP1=0, select bank0
	movwf	(___ftmul@f1+2)
	fcall	___ftmul
	bcf	status, 5	;RP0=0, select bank0
	bcf	status, 6	;RP1=0, select bank0
	movf	(0+(?___ftmul)),w
	movwf	(___ftadd@f1)
	movf	(1+(?___ftmul)),w
	movwf	(___ftadd@f1+1)
	movf	(2+(?___ftmul)),w
	movwf	(___ftadd@f1+2)
	bsf	status, 5	;RP0=1, select bank1
	bcf	status, 6	;RP1=0, select bank1
	movf	(ISR@soma)^080h,w
	bcf	status, 5	;RP0=0, select bank0
	bcf	status, 6	;RP1=0, select bank0
	movwf	(___ftadd@f2)
	bsf	status, 5	;RP0=1, select bank1
	bcf	status, 6	;RP1=0, select bank1
	movf	(ISR@soma+1)^080h,w
	bcf	status, 5	;RP0=0, select bank0
	bcf	status, 6	;RP1=0, select bank0
	movwf	(___ftadd@f2+1)
	bsf	status, 5	;RP0=1, select bank1
	bcf	status, 6	;RP1=0, select bank1
	movf	(ISR@soma+2)^080h,w
	bcf	status, 5	;RP0=0, select bank0
	bcf	status, 6	;RP1=0, select bank0
	movwf	(___ftadd@f2+2)
	fcall	___ftadd
	bcf	status, 5	;RP0=0, select bank0
	bcf	status, 6	;RP1=0, select bank0
	movf	(0+(?___ftadd)),w
	bsf	status, 5	;RP0=1, select bank1
	bcf	status, 6	;RP1=0, select bank1
	movwf	(ISR@soma)^080h
	bcf	status, 5	;RP0=0, select bank0
	bcf	status, 6	;RP1=0, select bank0
	movf	(1+(?___ftadd)),w
	bsf	status, 5	;RP0=1, select bank1
	bcf	status, 6	;RP1=0, select bank1
	movwf	(ISR@soma+1)^080h
	bcf	status, 5	;RP0=0, select bank0
	bcf	status, 6	;RP1=0, select bank0
	movf	(2+(?___ftadd)),w
	bsf	status, 5	;RP0=1, select bank1
	bcf	status, 6	;RP1=0, select bank1
	movwf	(ISR@soma+2)^080h
	goto	i1l3982
	line	348
	
i1l178:	
	line	349
	
i1l3982:	
;main.c: 348: }
;main.c: 349: x += 1;
	movlw	0x0
	bcf	status, 5	;RP0=0, select bank0
	bcf	status, 6	;RP1=0, select bank0
	movwf	(___ftadd@f1)
	movlw	0x80
	movwf	(___ftadd@f1+1)
	movlw	0x3f
	movwf	(___ftadd@f1+2)
	bsf	status, 5	;RP0=1, select bank1
	bcf	status, 6	;RP1=0, select bank1
	movf	(ISR@x)^080h,w
	bcf	status, 5	;RP0=0, select bank0
	bcf	status, 6	;RP1=0, select bank0
	movwf	(___ftadd@f2)
	bsf	status, 5	;RP0=1, select bank1
	bcf	status, 6	;RP1=0, select bank1
	movf	(ISR@x+1)^080h,w
	bcf	status, 5	;RP0=0, select bank0
	bcf	status, 6	;RP1=0, select bank0
	movwf	(___ftadd@f2+1)
	bsf	status, 5	;RP0=1, select bank1
	bcf	status, 6	;RP1=0, select bank1
	movf	(ISR@x+2)^080h,w
	bcf	status, 5	;RP0=0, select bank0
	bcf	status, 6	;RP1=0, select bank0
	movwf	(___ftadd@f2+2)
	fcall	___ftadd
	bcf	status, 5	;RP0=0, select bank0
	bcf	status, 6	;RP1=0, select bank0
	movf	(0+(?___ftadd)),w
	bsf	status, 5	;RP0=1, select bank1
	bcf	status, 6	;RP1=0, select bank1
	movwf	(ISR@x)^080h
	bcf	status, 5	;RP0=0, select bank0
	bcf	status, 6	;RP1=0, select bank0
	movf	(1+(?___ftadd)),w
	bsf	status, 5	;RP0=1, select bank1
	bcf	status, 6	;RP1=0, select bank1
	movwf	(ISR@x+1)^080h
	bcf	status, 5	;RP0=0, select bank0
	bcf	status, 6	;RP1=0, select bank0
	movf	(2+(?___ftadd)),w
	bsf	status, 5	;RP0=1, select bank1
	bcf	status, 6	;RP1=0, select bank1
	movwf	(ISR@x+2)^080h
	line	334
	
i1l3984:	
	movlw	low(01h)
	addwf	(ISR@a_252)^080h,f
	skipnc
	incf	(ISR@a_252+1)^080h,f
	movlw	high(01h)
	addwf	(ISR@a_252+1)^080h,f
	
i1l3986:	
	movf	(ISR@a_252+1)^080h,w
	xorlw	80h
	movwf	btemp+1
	movlw	(high(010h))^80h
	subwf	btemp+1,w
	skipz
	goto	u581_25
	movlw	low(010h)
	subwf	(ISR@a_252)^080h,w
u581_25:

	skipc
	goto	u581_21
	goto	u581_20
u581_21:
	goto	i1l174
u581_20:
	goto	i1l3988
	
i1l175:	
	line	353
	
i1l3988:	
;main.c: 350: }
;main.c: 353: float reajuste = 0;
	movlw	0x0
	bsf	status, 5	;RP0=1, select bank1
	bcf	status, 6	;RP1=0, select bank1
	movwf	(ISR@reajuste)^080h
	movlw	0x0
	movwf	(ISR@reajuste+1)^080h
	movlw	0x0
	movwf	(ISR@reajuste+2)^080h
	line	354
;main.c: 354: if (total_area != 0) {
	movf	(ISR@total_area+2)^080h,w
	iorwf	(ISR@total_area+1)^080h,w
	iorwf	(ISR@total_area)^080h,w
	skipnz
	goto	u582_21
	goto	u582_20
u582_21:
	goto	i1l3992
u582_20:
	line	355
	
i1l3990:	
;main.c: 355: reajuste = soma / total_area;
	movf	(ISR@total_area)^080h,w
	bcf	status, 5	;RP0=0, select bank0
	bcf	status, 6	;RP1=0, select bank0
	movwf	(___ftdiv@f2)
	bsf	status, 5	;RP0=1, select bank1
	bcf	status, 6	;RP1=0, select bank1
	movf	(ISR@total_area+1)^080h,w
	bcf	status, 5	;RP0=0, select bank0
	bcf	status, 6	;RP1=0, select bank0
	movwf	(___ftdiv@f2+1)
	bsf	status, 5	;RP0=1, select bank1
	bcf	status, 6	;RP1=0, select bank1
	movf	(ISR@total_area+2)^080h,w
	bcf	status, 5	;RP0=0, select bank0
	bcf	status, 6	;RP1=0, select bank0
	movwf	(___ftdiv@f2+2)
	bsf	status, 5	;RP0=1, select bank1
	bcf	status, 6	;RP1=0, select bank1
	movf	(ISR@soma)^080h,w
	bcf	status, 5	;RP0=0, select bank0
	bcf	status, 6	;RP1=0, select bank0
	movwf	(___ftdiv@f1)
	bsf	status, 5	;RP0=1, select bank1
	bcf	status, 6	;RP1=0, select bank1
	movf	(ISR@soma+1)^080h,w
	bcf	status, 5	;RP0=0, select bank0
	bcf	status, 6	;RP1=0, select bank0
	movwf	(___ftdiv@f1+1)
	bsf	status, 5	;RP0=1, select bank1
	bcf	status, 6	;RP1=0, select bank1
	movf	(ISR@soma+2)^080h,w
	bcf	status, 5	;RP0=0, select bank0
	bcf	status, 6	;RP1=0, select bank0
	movwf	(___ftdiv@f1+2)
	fcall	___ftdiv
	bcf	status, 5	;RP0=0, select bank0
	bcf	status, 6	;RP1=0, select bank0
	movf	(0+(?___ftdiv)),w
	bsf	status, 5	;RP0=1, select bank1
	bcf	status, 6	;RP1=0, select bank1
	movwf	(ISR@reajuste)^080h
	bcf	status, 5	;RP0=0, select bank0
	bcf	status, 6	;RP1=0, select bank0
	movf	(1+(?___ftdiv)),w
	bsf	status, 5	;RP0=1, select bank1
	bcf	status, 6	;RP1=0, select bank1
	movwf	(ISR@reajuste+1)^080h
	bcf	status, 5	;RP0=0, select bank0
	bcf	status, 6	;RP1=0, select bank0
	movf	(2+(?___ftdiv)),w
	bsf	status, 5	;RP0=1, select bank1
	bcf	status, 6	;RP1=0, select bank1
	movwf	(ISR@reajuste+2)^080h
	goto	i1l3992
	line	356
	
i1l179:	
	line	360
	
i1l3992:	
;main.c: 356: }
;main.c: 360: pwm = maximo(minimo(pwm + ((int)minimo(reajuste, erro_atual)) * (setpoint > rpm ? 1 : -1), 1023), 0);
	movf	(_setpoint+1)^080h,w
	subwf	(_rpm+1)^080h,w
	skipz
	goto	u583_25
	movf	(_setpoint)^080h,w
	subwf	(_rpm)^080h,w
u583_25:
	skipc
	goto	u583_21
	goto	u583_20
u583_21:
	goto	i1l3996
u583_20:
	
i1l3994:	
	movlw	low(-1)
	movwf	(_ISR$254)^080h
	movlw	high(-1)
	movwf	((_ISR$254)^080h)+1
	goto	i1l3998
	
i1l181:	
	
i1l3996:	
	movlw	low(01h)
	movwf	(_ISR$254)^080h
	movlw	high(01h)
	movwf	((_ISR$254)^080h)+1
	goto	i1l3998
	
i1l183:	
	
i1l3998:	
	movf	(_ISR$254+1)^080h,w
	bcf	status, 5	;RP0=0, select bank0
	bcf	status, 6	;RP1=0, select bank0
	clrf	(___wmul@multiplicand+1)
	addwf	(___wmul@multiplicand+1)
	bsf	status, 5	;RP0=1, select bank1
	bcf	status, 6	;RP1=0, select bank1
	movf	(_ISR$254)^080h,w
	bcf	status, 5	;RP0=0, select bank0
	bcf	status, 6	;RP1=0, select bank0
	clrf	(___wmul@multiplicand)
	addwf	(___wmul@multiplicand)

	bsf	status, 5	;RP0=1, select bank1
	bcf	status, 6	;RP1=0, select bank1
	movf	(_erro_atual+1)^080h,w
	clrf	(___awtoft@c+1)
	addwf	(___awtoft@c+1)
	movf	(_erro_atual)^080h,w
	clrf	(___awtoft@c)
	addwf	(___awtoft@c)

	fcall	___awtoft
	movf	(0+(?___awtoft)),w
	bcf	status, 5	;RP0=0, select bank0
	bcf	status, 6	;RP1=0, select bank0
	movwf	(minimo@b)
	movf	(1+(?___awtoft)),w
	movwf	(minimo@b+1)
	movf	(2+(?___awtoft)),w
	movwf	(minimo@b+2)
	bsf	status, 5	;RP0=1, select bank1
	bcf	status, 6	;RP1=0, select bank1
	movf	(ISR@reajuste)^080h,w
	bcf	status, 5	;RP0=0, select bank0
	bcf	status, 6	;RP1=0, select bank0
	movwf	(minimo@a)
	bsf	status, 5	;RP0=1, select bank1
	bcf	status, 6	;RP1=0, select bank1
	movf	(ISR@reajuste+1)^080h,w
	bcf	status, 5	;RP0=0, select bank0
	bcf	status, 6	;RP1=0, select bank0
	movwf	(minimo@a+1)
	bsf	status, 5	;RP0=1, select bank1
	bcf	status, 6	;RP1=0, select bank1
	movf	(ISR@reajuste+2)^080h,w
	bcf	status, 5	;RP0=0, select bank0
	bcf	status, 6	;RP1=0, select bank0
	movwf	(minimo@a+2)
	fcall	_minimo
	bcf	status, 5	;RP0=0, select bank0
	bcf	status, 6	;RP1=0, select bank0
	movf	(0+(?_minimo)),w
	movwf	(___fttol@f1)
	movf	(1+(?_minimo)),w
	movwf	(___fttol@f1+1)
	movf	(2+(?_minimo)),w
	movwf	(___fttol@f1+2)
	fcall	___fttol
	bcf	status, 5	;RP0=0, select bank0
	bcf	status, 6	;RP1=0, select bank0
	movf	1+(((0+(?___fttol)))),w
	clrf	(___wmul@multiplier+1)
	addwf	(___wmul@multiplier+1)
	movf	0+(((0+(?___fttol)))),w
	clrf	(___wmul@multiplier)
	addwf	(___wmul@multiplier)

	fcall	___wmul
	bsf	status, 5	;RP0=1, select bank1
	bcf	status, 6	;RP1=0, select bank1
	movf	(_pwm)^080h,w
	bcf	status, 5	;RP0=0, select bank0
	bcf	status, 6	;RP1=0, select bank0
	addwf	(0+(?___wmul)),w
	movwf	(___lwtoft@c)
	bsf	status, 5	;RP0=1, select bank1
	bcf	status, 6	;RP1=0, select bank1
	movf	(_pwm+1)^080h,w
	skipnc
	incf	(_pwm+1)^080h,w
	bcf	status, 5	;RP0=0, select bank0
	bcf	status, 6	;RP1=0, select bank0
	addwf	(1+(?___wmul)),w
	movwf	1+(___lwtoft@c)
	fcall	___lwtoft
	bcf	status, 5	;RP0=0, select bank0
	bcf	status, 6	;RP1=0, select bank0
	movf	(0+(?___lwtoft)),w
	bsf	status, 5	;RP0=1, select bank1
	bcf	status, 6	;RP1=0, select bank1
	movwf	(_ISR$1672)^080h
	bcf	status, 5	;RP0=0, select bank0
	bcf	status, 6	;RP1=0, select bank0
	movf	(1+(?___lwtoft)),w
	bsf	status, 5	;RP0=1, select bank1
	bcf	status, 6	;RP1=0, select bank1
	movwf	(_ISR$1672+1)^080h
	bcf	status, 5	;RP0=0, select bank0
	bcf	status, 6	;RP1=0, select bank0
	movf	(2+(?___lwtoft)),w
	bsf	status, 5	;RP0=1, select bank1
	bcf	status, 6	;RP1=0, select bank1
	movwf	(_ISR$1672+2)^080h
	
i1l4000:	
	movlw	0x0
	bcf	status, 5	;RP0=0, select bank0
	bcf	status, 6	;RP1=0, select bank0
	movwf	(maximo@b)
	movlw	0x0
	movwf	(maximo@b+1)
	movlw	0x0
	movwf	(maximo@b+2)
	movlw	0xc0
	movwf	(minimo@b)
	movlw	0x7f
	movwf	(minimo@b+1)
	movlw	0x44
	movwf	(minimo@b+2)
	bsf	status, 5	;RP0=1, select bank1
	bcf	status, 6	;RP1=0, select bank1
	movf	(_ISR$1672)^080h,w
	bcf	status, 5	;RP0=0, select bank0
	bcf	status, 6	;RP1=0, select bank0
	movwf	(minimo@a)
	bsf	status, 5	;RP0=1, select bank1
	bcf	status, 6	;RP1=0, select bank1
	movf	(_ISR$1672+1)^080h,w
	bcf	status, 5	;RP0=0, select bank0
	bcf	status, 6	;RP1=0, select bank0
	movwf	(minimo@a+1)
	bsf	status, 5	;RP0=1, select bank1
	bcf	status, 6	;RP1=0, select bank1
	movf	(_ISR$1672+2)^080h,w
	bcf	status, 5	;RP0=0, select bank0
	bcf	status, 6	;RP1=0, select bank0
	movwf	(minimo@a+2)
	fcall	_minimo
	bcf	status, 5	;RP0=0, select bank0
	bcf	status, 6	;RP1=0, select bank0
	movf	(0+(?_minimo)),w
	movwf	(maximo@a)
	movf	(1+(?_minimo)),w
	movwf	(maximo@a+1)
	movf	(2+(?_minimo)),w
	movwf	(maximo@a+2)
	fcall	_maximo
	bcf	status, 5	;RP0=0, select bank0
	bcf	status, 6	;RP1=0, select bank0
	movf	(0+(?_maximo)),w
	movwf	(___fttol@f1)
	movf	(1+(?_maximo)),w
	movwf	(___fttol@f1+1)
	movf	(2+(?_maximo)),w
	movwf	(___fttol@f1+2)
	fcall	___fttol
	bcf	status, 5	;RP0=0, select bank0
	bcf	status, 6	;RP1=0, select bank0
	movf	1+(((0+(?___fttol)))),w
	bsf	status, 5	;RP0=1, select bank1
	bcf	status, 6	;RP1=0, select bank1
	clrf	(_pwm+1)^080h
	addwf	(_pwm+1)^080h
	bcf	status, 5	;RP0=0, select bank0
	bcf	status, 6	;RP1=0, select bank0
	movf	0+(((0+(?___fttol)))),w
	bsf	status, 5	;RP0=1, select bank1
	bcf	status, 6	;RP1=0, select bank1
	clrf	(_pwm)^080h
	addwf	(_pwm)^080h

	line	362
	
i1l4002:	
;main.c: 362: PWM_DutyCycle2(pwm);
	movf	(_pwm+1)^080h,w
	clrf	(i1PWM_DutyCycle2@valor+1)
	addwf	(i1PWM_DutyCycle2@valor+1)
	movf	(_pwm)^080h,w
	clrf	(i1PWM_DutyCycle2@valor)
	addwf	(i1PWM_DutyCycle2@valor)

	fcall	i1_PWM_DutyCycle2
	line	365
	
i1l4004:	
;main.c: 365: PORTBbits.RB6 = 0;
	bcf	status, 5	;RP0=0, select bank0
	bcf	status, 6	;RP1=0, select bank0
	bcf	(6),6	;volatile
	goto	i1l4006
	line	366
	
i1l157:	
	line	369
	
i1l4006:	
;main.c: 366: }
;main.c: 369: INTCONbits.T0IF = 0;
	bcf	(11),2	;volatile
	goto	i1l4008
	line	370
	
i1l155:	
	line	373
	
i1l4008:	
;main.c: 370: }
;main.c: 373: if (PIR1bits.TMR1IF) {
	btfss	(12),0	;volatile
	goto	u584_21
	goto	u584_20
u584_21:
	goto	i1l185
u584_20:
	line	378
	
i1l4010:	
;main.c: 378: PIR1bits.TMR1IF = 0;
	bcf	(12),0	;volatile
	goto	i1l185
	line	379
	
i1l184:	
	line	390
	
i1l185:	
	movf	(??_ISR+5),w
	movwf	btemp+1
	movf	(??_ISR+4),w
	movwf	pclath
	movf	(??_ISR+3),w
	movwf	fsr0
	swapf	(??_ISR+2)^00h,w
	movwf	status
	swapf	saved_w,f
	swapf	saved_w,w
	retfie
	opt stack 0
GLOBAL	__end_of_ISR
	__end_of_ISR:
	signat	_ISR,88
	global	i1_set

;; *************** function i1_set *****************
;; Defined at:
;;		line 99 in file "C:\Users\filip\programs\FuzzySI\firmware - Copia\main.c"
;; Parameters:    Size  Location     Type
;;		None
;; Auto vars:     Size  Location     Type
;;		None
;; Return value:  Size  Location     Type
;;		None               void
;; Registers used:
;;		wreg, status,2, status,0
;; Tracked objects:
;;		On entry : 0/0
;;		On exit  : 0/0
;;		Unchanged: 0/0
;; Data sizes:     COMMON   BANK0   BANK1   BANK3   BANK2
;;      Params:         0       0       0       0       0
;;      Locals:         0       0       0       0       0
;;      Temps:          1       0       0       0       0
;;      Totals:         1       0       0       0       0
;;Total ram usage:        1 bytes
;; Hardware stack levels used:    1
;; This function calls:
;;		Nothing
;; This function is called by:
;;		_ISR
;; This function uses a non-reentrant model
;;
psect	text18,local,class=CODE,delta=2,merge=1
	line	99
global __ptext18
__ptext18:	;psect for function i1_set
psect	text18
	file	"C:\Users\filip\programs\FuzzySI\firmware - Copia\main.c"
	line	99
	global	__size_ofi1_set
	__size_ofi1_set	equ	__end_ofi1_set-i1_set
	
i1_set:	
;incstack = 0
	opt	stack 4
; Regs used in i1_set: [wreg+status,2+status,0]
	line	100
	
i1l2840:	
;main.c: 100: if(kmph > 40){
	movlw	high(029h)
	bcf	status, 5	;RP0=0, select bank0
	bcf	status, 6	;RP1=0, select bank0
	subwf	(_kmph+1),w
	movlw	low(029h)
	skipnz
	subwf	(_kmph),w
	skipc
	goto	u341_21
	goto	u341_20
u341_21:
	goto	i1l114
u341_20:
	line	102
	
i1l2842:	
;main.c: 102: if(pilotoAtivo == 3 && setpoint > 1640){
	bsf	status, 5	;RP0=1, select bank1
	bcf	status, 6	;RP1=0, select bank1
	movf	(_pilotoAtivo)^080h,w
	xorlw	03h
	skipz
	goto	u342_21
	goto	u342_20
u342_21:
	goto	i1l2848
u342_20:
	
i1l2844:	
	movlw	high(0669h)
	subwf	(_setpoint+1)^080h,w
	movlw	low(0669h)
	skipnz
	subwf	(_setpoint)^080h,w
	skipc
	goto	u343_21
	goto	u343_20
u343_21:
	goto	i1l2848
u343_20:
	line	104
	
i1l2846:	
;main.c: 104: setpoint = setpoint - 41;
	movf	(_setpoint)^080h,w
	addlw	low(0FFD7h)
	movwf	(_setpoint)^080h
	movf	(_setpoint+1)^080h,w
	skipnc
	addlw	1
	addlw	high(0FFD7h)
	movwf	1+(_setpoint)^080h
	line	105
;main.c: 105: velocidadeSetada = setpoint;
	movf	(_setpoint+1)^080h,w
	bcf	status, 5	;RP0=0, select bank0
	bcf	status, 6	;RP1=0, select bank0
	clrf	(_velocidadeSetada+1)
	addwf	(_velocidadeSetada+1)
	bsf	status, 5	;RP0=1, select bank1
	bcf	status, 6	;RP1=0, select bank1
	movf	(_setpoint)^080h,w
	bcf	status, 5	;RP0=0, select bank0
	bcf	status, 6	;RP1=0, select bank0
	clrf	(_velocidadeSetada)
	addwf	(_velocidadeSetada)

	goto	i1l2848
	line	106
	
i1l112:	
	line	107
	
i1l2848:	
;main.c: 106: }
;main.c: 107: if(pilotoAtivo == 1){
	bsf	status, 5	;RP0=1, select bank1
	bcf	status, 6	;RP1=0, select bank1
	movf	(_pilotoAtivo)^080h,w
	xorlw	01h
	skipz
	goto	u344_21
	goto	u344_20
u344_21:
	goto	i1l114
u344_20:
	line	109
	
i1l2850:	
;main.c: 109: pilotoAtivo = 3;
	movlw	(03h)
	movwf	(??i1_set+0)+0
	movf	(??i1_set+0)+0,w
	movwf	(_pilotoAtivo)^080h
	line	110
	
i1l2852:	
;main.c: 110: setpoint = velocidadeSetada;
	bcf	status, 5	;RP0=0, select bank0
	bcf	status, 6	;RP1=0, select bank0
	movf	(_velocidadeSetada+1),w
	bsf	status, 5	;RP0=1, select bank1
	bcf	status, 6	;RP1=0, select bank1
	clrf	(_setpoint+1)^080h
	addwf	(_setpoint+1)^080h
	bcf	status, 5	;RP0=0, select bank0
	bcf	status, 6	;RP1=0, select bank0
	movf	(_velocidadeSetada),w
	bsf	status, 5	;RP0=1, select bank1
	bcf	status, 6	;RP1=0, select bank1
	clrf	(_setpoint)^080h
	addwf	(_setpoint)^080h

	goto	i1l114
	line	111
	
i1l113:	
	goto	i1l114
	line	112
	
i1l111:	
	line	113
	
i1l114:	
	return
	opt stack 0
GLOBAL	__end_ofi1_set
	__end_ofi1_set:
	signat	i1_set,88
	global	i1_res

;; *************** function i1_res *****************
;; Defined at:
;;		line 86 in file "C:\Users\filip\programs\FuzzySI\firmware - Copia\main.c"
;; Parameters:    Size  Location     Type
;;		None
;; Auto vars:     Size  Location     Type
;;		None
;; Return value:  Size  Location     Type
;;		None               void
;; Registers used:
;;		wreg, status,2, status,0
;; Tracked objects:
;;		On entry : 0/0
;;		On exit  : 0/0
;;		Unchanged: 0/0
;; Data sizes:     COMMON   BANK0   BANK1   BANK3   BANK2
;;      Params:         0       0       0       0       0
;;      Locals:         0       0       0       0       0
;;      Temps:          1       0       0       0       0
;;      Totals:         1       0       0       0       0
;;Total ram usage:        1 bytes
;; Hardware stack levels used:    1
;; This function calls:
;;		Nothing
;; This function is called by:
;;		_ISR
;; This function uses a non-reentrant model
;;
psect	text19,local,class=CODE,delta=2,merge=1
	line	86
global __ptext19
__ptext19:	;psect for function i1_res
psect	text19
	file	"C:\Users\filip\programs\FuzzySI\firmware - Copia\main.c"
	line	86
	global	__size_ofi1_res
	__size_ofi1_res	equ	__end_ofi1_res-i1_res
	
i1_res:	
;incstack = 0
	opt	stack 4
; Regs used in i1_res: [wreg+status,2+status,0]
	line	87
	
i1l2828:	
;main.c: 87: if(pilotoAtivo == 3 && setpoint < 9000){
	bsf	status, 5	;RP0=1, select bank1
	bcf	status, 6	;RP1=0, select bank1
	movf	(_pilotoAtivo)^080h,w
	xorlw	03h
	skipz
	goto	u338_21
	goto	u338_20
u338_21:
	goto	i1l2834
u338_20:
	
i1l2830:	
	movlw	high(02328h)
	subwf	(_setpoint+1)^080h,w
	movlw	low(02328h)
	skipnz
	subwf	(_setpoint)^080h,w
	skipnc
	goto	u339_21
	goto	u339_20
u339_21:
	goto	i1l2834
u339_20:
	line	89
	
i1l2832:	
;main.c: 89: setpoint = setpoint + 41;
	movf	(_setpoint)^080h,w
	addlw	low(029h)
	movwf	(_setpoint)^080h
	movf	(_setpoint+1)^080h,w
	skipnc
	addlw	1
	addlw	high(029h)
	movwf	1+(_setpoint)^080h
	line	90
;main.c: 90: velocidadeSetada = setpoint;
	movf	(_setpoint+1)^080h,w
	bcf	status, 5	;RP0=0, select bank0
	bcf	status, 6	;RP1=0, select bank0
	clrf	(_velocidadeSetada+1)
	addwf	(_velocidadeSetada+1)
	bsf	status, 5	;RP0=1, select bank1
	bcf	status, 6	;RP1=0, select bank1
	movf	(_setpoint)^080h,w
	bcf	status, 5	;RP0=0, select bank0
	bcf	status, 6	;RP1=0, select bank0
	clrf	(_velocidadeSetada)
	addwf	(_velocidadeSetada)

	goto	i1l2834
	line	91
	
i1l106:	
	line	92
	
i1l2834:	
;main.c: 91: }
;main.c: 92: if(pilotoAtivo == 1){
	bsf	status, 5	;RP0=1, select bank1
	bcf	status, 6	;RP1=0, select bank1
	movf	(_pilotoAtivo)^080h,w
	xorlw	01h
	skipz
	goto	u340_21
	goto	u340_20
u340_21:
	goto	i1l108
u340_20:
	line	94
	
i1l2836:	
;main.c: 94: pilotoAtivo = 3;
	movlw	(03h)
	movwf	(??i1_res+0)+0
	movf	(??i1_res+0)+0,w
	movwf	(_pilotoAtivo)^080h
	line	95
	
i1l2838:	
;main.c: 95: setpoint = velocidadeSetada;
	bcf	status, 5	;RP0=0, select bank0
	bcf	status, 6	;RP1=0, select bank0
	movf	(_velocidadeSetada+1),w
	bsf	status, 5	;RP0=1, select bank1
	bcf	status, 6	;RP1=0, select bank1
	clrf	(_setpoint+1)^080h
	addwf	(_setpoint+1)^080h
	bcf	status, 5	;RP0=0, select bank0
	bcf	status, 6	;RP1=0, select bank0
	movf	(_velocidadeSetada),w
	bsf	status, 5	;RP0=1, select bank1
	bcf	status, 6	;RP1=0, select bank1
	clrf	(_setpoint)^080h
	addwf	(_setpoint)^080h

	goto	i1l108
	line	96
	
i1l107:	
	line	97
	
i1l108:	
	return
	opt stack 0
GLOBAL	__end_ofi1_res
	__end_ofi1_res:
	signat	i1_res,88
	global	i1_inicia

;; *************** function i1_inicia *****************
;; Defined at:
;;		line 79 in file "C:\Users\filip\programs\FuzzySI\firmware - Copia\main.c"
;; Parameters:    Size  Location     Type
;;		None
;; Auto vars:     Size  Location     Type
;;		None
;; Return value:  Size  Location     Type
;;		None               void
;; Registers used:
;;		status,2
;; Tracked objects:
;;		On entry : 0/0
;;		On exit  : 0/0
;;		Unchanged: 0/0
;; Data sizes:     COMMON   BANK0   BANK1   BANK3   BANK2
;;      Params:         0       0       0       0       0
;;      Locals:         0       0       0       0       0
;;      Temps:          0       0       0       0       0
;;      Totals:         0       0       0       0       0
;;Total ram usage:        0 bytes
;; Hardware stack levels used:    1
;; This function calls:
;;		Nothing
;; This function is called by:
;;		_ISR
;; This function uses a non-reentrant model
;;
psect	text20,local,class=CODE,delta=2,merge=1
	line	79
global __ptext20
__ptext20:	;psect for function i1_inicia
psect	text20
	file	"C:\Users\filip\programs\FuzzySI\firmware - Copia\main.c"
	line	79
	global	__size_ofi1_inicia
	__size_ofi1_inicia	equ	__end_ofi1_inicia-i1_inicia
	
i1_inicia:	
;incstack = 0
	opt	stack 4
; Regs used in i1_inicia: [status,2]
	line	80
	
i1l2824:	
;main.c: 80: if(pilotoAtivo & 1){
	bsf	status, 5	;RP0=1, select bank1
	bcf	status, 6	;RP1=0, select bank1
	btfss	(_pilotoAtivo)^080h,(0)&7
	goto	u337_21
	goto	u337_20
u337_21:
	goto	i1l101
u337_20:
	line	81
	
i1l2826:	
;main.c: 81: pilotoAtivo = 0;
	clrf	(_pilotoAtivo)^080h
	line	82
;main.c: 82: }else{
	goto	i1l103
	
i1l101:	
	line	83
;main.c: 83: pilotoAtivo = 1;
	clrf	(_pilotoAtivo)^080h
	incf	(_pilotoAtivo)^080h,f
	goto	i1l103
	line	84
	
i1l102:	
	line	85
	
i1l103:	
	return
	opt stack 0
GLOBAL	__end_ofi1_inicia
	__end_ofi1_inicia:
	signat	i1_inicia,88
	global	i1_TIMER0_Set

;; *************** function i1_TIMER0_Set *****************
;; Defined at:
;;		line 20 in file "C:\Users\filip\programs\FuzzySI\firmware - Copia\timers.c"
;; Parameters:    Size  Location     Type
;;  contagens       1    wreg     unsigned char 
;; Auto vars:     Size  Location     Type
;;  contagens       1    0[COMMON] unsigned char 
;; Return value:  Size  Location     Type
;;		None               void
;; Registers used:
;;		wreg
;; Tracked objects:
;;		On entry : 0/0
;;		On exit  : 0/0
;;		Unchanged: 0/0
;; Data sizes:     COMMON   BANK0   BANK1   BANK3   BANK2
;;      Params:         0       0       0       0       0
;;      Locals:         1       0       0       0       0
;;      Temps:          0       0       0       0       0
;;      Totals:         1       0       0       0       0
;;Total ram usage:        1 bytes
;; Hardware stack levels used:    1
;; This function calls:
;;		Nothing
;; This function is called by:
;;		_ISR
;; This function uses a non-reentrant model
;;
psect	text21,local,class=CODE,delta=2,merge=1
	file	"C:\Users\filip\programs\FuzzySI\firmware - Copia\timers.c"
	line	20
global __ptext21
__ptext21:	;psect for function i1_TIMER0_Set
psect	text21
	file	"C:\Users\filip\programs\FuzzySI\firmware - Copia\timers.c"
	line	20
	global	__size_ofi1_TIMER0_Set
	__size_ofi1_TIMER0_Set	equ	__end_ofi1_TIMER0_Set-i1_TIMER0_Set
	
i1_TIMER0_Set:	
;incstack = 0
	opt	stack 4
; Regs used in i1_TIMER0_Set: [wreg]
;i1TIMER0_Set@contagens stored from wreg
	movwf	(i1TIMER0_Set@contagens)
	line	22
	
i1l2854:	
;timers.c: 22: TMR0 = contagens;
	movf	(i1TIMER0_Set@contagens),w
	bcf	status, 5	;RP0=0, select bank0
	bcf	status, 6	;RP1=0, select bank0
	movwf	(1)	;volatile
	line	23
	
i1l296:	
	return
	opt stack 0
GLOBAL	__end_ofi1_TIMER0_Set
	__end_ofi1_TIMER0_Set:
	signat	i1_TIMER0_Set,88
	global	i1_PWM_DutyCycle2

;; *************** function i1_PWM_DutyCycle2 *****************
;; Defined at:
;;		line 96 in file "C:\Users\filip\programs\FuzzySI\firmware - Copia\pwm.c"
;; Parameters:    Size  Location     Type
;;  valor           2    0[COMMON] int 
;; Auto vars:     Size  Location     Type
;;		None
;; Return value:  Size  Location     Type
;;		None               void
;; Registers used:
;;		wreg, status,2, status,0
;; Tracked objects:
;;		On entry : 0/0
;;		On exit  : 0/0
;;		Unchanged: 0/0
;; Data sizes:     COMMON   BANK0   BANK1   BANK3   BANK2
;;      Params:         2       0       0       0       0
;;      Locals:         0       0       0       0       0
;;      Temps:          2       0       0       0       0
;;      Totals:         4       0       0       0       0
;;Total ram usage:        4 bytes
;; Hardware stack levels used:    1
;; This function calls:
;;		Nothing
;; This function is called by:
;;		_ISR
;; This function uses a non-reentrant model
;;
psect	text22,local,class=CODE,delta=2,merge=1
	file	"C:\Users\filip\programs\FuzzySI\firmware - Copia\pwm.c"
	line	96
global __ptext22
__ptext22:	;psect for function i1_PWM_DutyCycle2
psect	text22
	file	"C:\Users\filip\programs\FuzzySI\firmware - Copia\pwm.c"
	line	96
	global	__size_ofi1_PWM_DutyCycle2
	__size_ofi1_PWM_DutyCycle2	equ	__end_ofi1_PWM_DutyCycle2-i1_PWM_DutyCycle2
	
i1_PWM_DutyCycle2:	
;incstack = 0
	opt	stack 4
; Regs used in i1_PWM_DutyCycle2: [wreg+status,2+status,0]
	line	98
	
i1l2856:	
;pwm.c: 98: CCPR2L = valor >> 2;
	movf	(i1PWM_DutyCycle2@valor+1),w
	movwf	(??i1_PWM_DutyCycle2+0)+0+1
	movf	(i1PWM_DutyCycle2@valor),w
	movwf	(??i1_PWM_DutyCycle2+0)+0
	rlf	(??i1_PWM_DutyCycle2+0)+1,w
	rrf	(??i1_PWM_DutyCycle2+0)+1,f
	rrf	(??i1_PWM_DutyCycle2+0)+0,f
	rlf	(??i1_PWM_DutyCycle2+0)+1,w
	rrf	(??i1_PWM_DutyCycle2+0)+1,f
	rrf	(??i1_PWM_DutyCycle2+0)+0,f
	movf	0+(??i1_PWM_DutyCycle2+0)+0,w
	bcf	status, 5	;RP0=0, select bank0
	bcf	status, 6	;RP1=0, select bank0
	movwf	(27)	;volatile
	line	99
	
i1l2858:	
;pwm.c: 99: CCP2CON = (valor << 4)|0X0C;
	movf	(i1PWM_DutyCycle2@valor),w
	movwf	(??i1_PWM_DutyCycle2+0)+0
	movlw	(04h)-1
u345_25:
	clrc
	rlf	(??i1_PWM_DutyCycle2+0)+0,f
	addlw	-1
	skipz
	goto	u345_25
	clrc
	rlf	(??i1_PWM_DutyCycle2+0)+0,w
	iorlw	0Ch
	movwf	(29)	;volatile
	line	100
	
i1l450:	
	return
	opt stack 0
GLOBAL	__end_ofi1_PWM_DutyCycle2
	__end_ofi1_PWM_DutyCycle2:
	signat	i1_PWM_DutyCycle2,88
	global	_trapmf

;; *************** function _trapmf *****************
;; Defined at:
;;		line 116 in file "C:\Users\filip\programs\FuzzySI\firmware - Copia\main.c"
;; Parameters:    Size  Location     Type
;;  x               3   32[BANK0 ] float 
;;  a               3   35[BANK0 ] float 
;;  b               3   38[BANK0 ] float 
;;  c               3   41[BANK0 ] float 
;;  d               3   44[BANK0 ] float 
;; Auto vars:     Size  Location     Type
;;  ua              3   47[BANK0 ] float 
;; Return value:  Size  Location     Type
;;                  3   32[BANK0 ] float 
;; Registers used:
;;		wreg, status,2, status,0, pclath, cstack
;; Tracked objects:
;;		On entry : 0/0
;;		On exit  : 0/0
;;		Unchanged: 0/0
;; Data sizes:     COMMON   BANK0   BANK1   BANK3   BANK2
;;      Params:         0      15       0       0       0
;;      Locals:         0       3       0       0       0
;;      Temps:          0       0       0       0       0
;;      Totals:         0      18       0       0       0
;;Total ram usage:       18 bytes
;; Hardware stack levels used:    1
;; Hardware stack levels required when called:    2
;; This function calls:
;;		___ftadd
;;		___ftdiv
;;		___ftge
;;		___ftneg
;; This function is called by:
;;		_ISR
;; This function uses a non-reentrant model
;;
psect	text23,local,class=CODE,delta=2,merge=1
	file	"C:\Users\filip\programs\FuzzySI\firmware - Copia\main.c"
	line	116
global __ptext23
__ptext23:	;psect for function _trapmf
psect	text23
	file	"C:\Users\filip\programs\FuzzySI\firmware - Copia\main.c"
	line	116
	global	__size_of_trapmf
	__size_of_trapmf	equ	__end_of_trapmf-_trapmf
	
_trapmf:	
;incstack = 0
	opt	stack 2
; Regs used in _trapmf: [wreg+status,2+status,0+pclath+cstack]
	line	117
	
i1l3734:	
;main.c: 117: float ua = 0;
	movlw	0x0
	bcf	status, 5	;RP0=0, select bank0
	bcf	status, 6	;RP1=0, select bank0
	movwf	(trapmf@ua)
	movlw	0x0
	movwf	(trapmf@ua+1)
	movlw	0x0
	movwf	(trapmf@ua+2)
	line	119
	
i1l3736:	
;main.c: 119: if (x <= a)
	movf	(trapmf@a),w
	movwf	(___ftge@ff1)
	movf	(trapmf@a+1),w
	movwf	(___ftge@ff1+1)
	movf	(trapmf@a+2),w
	movwf	(___ftge@ff1+2)
	movf	(trapmf@x),w
	movwf	(___ftge@ff2)
	movf	(trapmf@x+1),w
	movwf	(___ftge@ff2+1)
	movf	(trapmf@x+2),w
	movwf	(___ftge@ff2+2)
	fcall	___ftge
	btfss	status,0
	goto	u527_21
	goto	u527_20
u527_21:
	goto	i1l3740
u527_20:
	line	120
	
i1l3738:	
;main.c: 120: ua = 0;
	movlw	0x0
	bcf	status, 5	;RP0=0, select bank0
	bcf	status, 6	;RP1=0, select bank0
	movwf	(trapmf@ua)
	movlw	0x0
	movwf	(trapmf@ua+1)
	movlw	0x0
	movwf	(trapmf@ua+2)
	goto	i1l118
	line	121
	
i1l117:	
	
i1l3740:	
;main.c: 121: else if ((a < x) && (x <= b))
	bcf	status, 5	;RP0=0, select bank0
	bcf	status, 6	;RP1=0, select bank0
	movf	(trapmf@a),w
	movwf	(___ftge@ff1)
	movf	(trapmf@a+1),w
	movwf	(___ftge@ff1+1)
	movf	(trapmf@a+2),w
	movwf	(___ftge@ff1+2)
	movf	(trapmf@x),w
	movwf	(___ftge@ff2)
	movf	(trapmf@x+1),w
	movwf	(___ftge@ff2+1)
	movf	(trapmf@x+2),w
	movwf	(___ftge@ff2+2)
	fcall	___ftge
	btfsc	status,0
	goto	u528_21
	goto	u528_20
u528_21:
	goto	i1l3746
u528_20:
	
i1l3742:	
	bcf	status, 5	;RP0=0, select bank0
	bcf	status, 6	;RP1=0, select bank0
	movf	(trapmf@b),w
	movwf	(___ftge@ff1)
	movf	(trapmf@b+1),w
	movwf	(___ftge@ff1+1)
	movf	(trapmf@b+2),w
	movwf	(___ftge@ff1+2)
	movf	(trapmf@x),w
	movwf	(___ftge@ff2)
	movf	(trapmf@x+1),w
	movwf	(___ftge@ff2+1)
	movf	(trapmf@x+2),w
	movwf	(___ftge@ff2+2)
	fcall	___ftge
	btfss	status,0
	goto	u529_21
	goto	u529_20
u529_21:
	goto	i1l3746
u529_20:
	line	122
	
i1l3744:	
;main.c: 122: ua = ((x - a) / (b - a));
	bcf	status, 5	;RP0=0, select bank0
	bcf	status, 6	;RP1=0, select bank0
	movf	(trapmf@b),w
	movwf	(___ftadd@f1)
	movf	(trapmf@b+1),w
	movwf	(___ftadd@f1+1)
	movf	(trapmf@b+2),w
	movwf	(___ftadd@f1+2)
	movf	(trapmf@a),w
	movwf	(___ftneg@f1)
	movf	(trapmf@a+1),w
	movwf	(___ftneg@f1+1)
	movf	(trapmf@a+2),w
	movwf	(___ftneg@f1+2)
	fcall	___ftneg
	bcf	status, 5	;RP0=0, select bank0
	bcf	status, 6	;RP1=0, select bank0
	movf	(0+(?___ftneg)),w
	movwf	(___ftadd@f2)
	movf	(1+(?___ftneg)),w
	movwf	(___ftadd@f2+1)
	movf	(2+(?___ftneg)),w
	movwf	(___ftadd@f2+2)
	fcall	___ftadd
	bcf	status, 5	;RP0=0, select bank0
	bcf	status, 6	;RP1=0, select bank0
	movf	(0+(?___ftadd)),w
	movwf	(___ftdiv@f2)
	movf	(1+(?___ftadd)),w
	movwf	(___ftdiv@f2+1)
	movf	(2+(?___ftadd)),w
	movwf	(___ftdiv@f2+2)
	movf	(trapmf@x),w
	movwf	(___ftadd@f1)
	movf	(trapmf@x+1),w
	movwf	(___ftadd@f1+1)
	movf	(trapmf@x+2),w
	movwf	(___ftadd@f1+2)
	movf	(trapmf@a),w
	movwf	(___ftneg@f1)
	movf	(trapmf@a+1),w
	movwf	(___ftneg@f1+1)
	movf	(trapmf@a+2),w
	movwf	(___ftneg@f1+2)
	fcall	___ftneg
	bcf	status, 5	;RP0=0, select bank0
	bcf	status, 6	;RP1=0, select bank0
	movf	(0+(?___ftneg)),w
	movwf	(___ftadd@f2)
	movf	(1+(?___ftneg)),w
	movwf	(___ftadd@f2+1)
	movf	(2+(?___ftneg)),w
	movwf	(___ftadd@f2+2)
	fcall	___ftadd
	bcf	status, 5	;RP0=0, select bank0
	bcf	status, 6	;RP1=0, select bank0
	movf	(0+(?___ftadd)),w
	movwf	(___ftdiv@f1)
	movf	(1+(?___ftadd)),w
	movwf	(___ftdiv@f1+1)
	movf	(2+(?___ftadd)),w
	movwf	(___ftdiv@f1+2)
	fcall	___ftdiv
	bcf	status, 5	;RP0=0, select bank0
	bcf	status, 6	;RP1=0, select bank0
	movf	(0+(?___ftdiv)),w
	movwf	(trapmf@ua)
	movf	(1+(?___ftdiv)),w
	movwf	(trapmf@ua+1)
	movf	(2+(?___ftdiv)),w
	movwf	(trapmf@ua+2)
	goto	i1l118
	line	123
	
i1l119:	
	
i1l3746:	
;main.c: 123: else if ((b <= x) && (x <= c))
	bcf	status, 5	;RP0=0, select bank0
	bcf	status, 6	;RP1=0, select bank0
	movf	(trapmf@x),w
	movwf	(___ftge@ff1)
	movf	(trapmf@x+1),w
	movwf	(___ftge@ff1+1)
	movf	(trapmf@x+2),w
	movwf	(___ftge@ff1+2)
	movf	(trapmf@b),w
	movwf	(___ftge@ff2)
	movf	(trapmf@b+1),w
	movwf	(___ftge@ff2+1)
	movf	(trapmf@b+2),w
	movwf	(___ftge@ff2+2)
	fcall	___ftge
	btfss	status,0
	goto	u530_21
	goto	u530_20
u530_21:
	goto	i1l3752
u530_20:
	
i1l3748:	
	bcf	status, 5	;RP0=0, select bank0
	bcf	status, 6	;RP1=0, select bank0
	movf	(trapmf@c),w
	movwf	(___ftge@ff1)
	movf	(trapmf@c+1),w
	movwf	(___ftge@ff1+1)
	movf	(trapmf@c+2),w
	movwf	(___ftge@ff1+2)
	movf	(trapmf@x),w
	movwf	(___ftge@ff2)
	movf	(trapmf@x+1),w
	movwf	(___ftge@ff2+1)
	movf	(trapmf@x+2),w
	movwf	(___ftge@ff2+2)
	fcall	___ftge
	btfss	status,0
	goto	u531_21
	goto	u531_20
u531_21:
	goto	i1l3752
u531_20:
	line	124
	
i1l3750:	
;main.c: 124: ua = 1;
	movlw	0x0
	bcf	status, 5	;RP0=0, select bank0
	bcf	status, 6	;RP1=0, select bank0
	movwf	(trapmf@ua)
	movlw	0x80
	movwf	(trapmf@ua+1)
	movlw	0x3f
	movwf	(trapmf@ua+2)
	goto	i1l118
	line	125
	
i1l121:	
	
i1l3752:	
;main.c: 125: else if ((c < x) && (x <= d))
	bcf	status, 5	;RP0=0, select bank0
	bcf	status, 6	;RP1=0, select bank0
	movf	(trapmf@c),w
	movwf	(___ftge@ff1)
	movf	(trapmf@c+1),w
	movwf	(___ftge@ff1+1)
	movf	(trapmf@c+2),w
	movwf	(___ftge@ff1+2)
	movf	(trapmf@x),w
	movwf	(___ftge@ff2)
	movf	(trapmf@x+1),w
	movwf	(___ftge@ff2+1)
	movf	(trapmf@x+2),w
	movwf	(___ftge@ff2+2)
	fcall	___ftge
	btfsc	status,0
	goto	u532_21
	goto	u532_20
u532_21:
	goto	i1l3758
u532_20:
	
i1l3754:	
	bcf	status, 5	;RP0=0, select bank0
	bcf	status, 6	;RP1=0, select bank0
	movf	(trapmf@d),w
	movwf	(___ftge@ff1)
	movf	(trapmf@d+1),w
	movwf	(___ftge@ff1+1)
	movf	(trapmf@d+2),w
	movwf	(___ftge@ff1+2)
	movf	(trapmf@x),w
	movwf	(___ftge@ff2)
	movf	(trapmf@x+1),w
	movwf	(___ftge@ff2+1)
	movf	(trapmf@x+2),w
	movwf	(___ftge@ff2+2)
	fcall	___ftge
	btfss	status,0
	goto	u533_21
	goto	u533_20
u533_21:
	goto	i1l3758
u533_20:
	line	126
	
i1l3756:	
;main.c: 126: ua = ((d - x) / (d - c));
	bcf	status, 5	;RP0=0, select bank0
	bcf	status, 6	;RP1=0, select bank0
	movf	(trapmf@d),w
	movwf	(___ftadd@f1)
	movf	(trapmf@d+1),w
	movwf	(___ftadd@f1+1)
	movf	(trapmf@d+2),w
	movwf	(___ftadd@f1+2)
	movf	(trapmf@c),w
	movwf	(___ftneg@f1)
	movf	(trapmf@c+1),w
	movwf	(___ftneg@f1+1)
	movf	(trapmf@c+2),w
	movwf	(___ftneg@f1+2)
	fcall	___ftneg
	bcf	status, 5	;RP0=0, select bank0
	bcf	status, 6	;RP1=0, select bank0
	movf	(0+(?___ftneg)),w
	movwf	(___ftadd@f2)
	movf	(1+(?___ftneg)),w
	movwf	(___ftadd@f2+1)
	movf	(2+(?___ftneg)),w
	movwf	(___ftadd@f2+2)
	fcall	___ftadd
	bcf	status, 5	;RP0=0, select bank0
	bcf	status, 6	;RP1=0, select bank0
	movf	(0+(?___ftadd)),w
	movwf	(___ftdiv@f2)
	movf	(1+(?___ftadd)),w
	movwf	(___ftdiv@f2+1)
	movf	(2+(?___ftadd)),w
	movwf	(___ftdiv@f2+2)
	movf	(trapmf@d),w
	movwf	(___ftadd@f1)
	movf	(trapmf@d+1),w
	movwf	(___ftadd@f1+1)
	movf	(trapmf@d+2),w
	movwf	(___ftadd@f1+2)
	movf	(trapmf@x),w
	movwf	(___ftneg@f1)
	movf	(trapmf@x+1),w
	movwf	(___ftneg@f1+1)
	movf	(trapmf@x+2),w
	movwf	(___ftneg@f1+2)
	fcall	___ftneg
	bcf	status, 5	;RP0=0, select bank0
	bcf	status, 6	;RP1=0, select bank0
	movf	(0+(?___ftneg)),w
	movwf	(___ftadd@f2)
	movf	(1+(?___ftneg)),w
	movwf	(___ftadd@f2+1)
	movf	(2+(?___ftneg)),w
	movwf	(___ftadd@f2+2)
	fcall	___ftadd
	bcf	status, 5	;RP0=0, select bank0
	bcf	status, 6	;RP1=0, select bank0
	movf	(0+(?___ftadd)),w
	movwf	(___ftdiv@f1)
	movf	(1+(?___ftadd)),w
	movwf	(___ftdiv@f1+1)
	movf	(2+(?___ftadd)),w
	movwf	(___ftdiv@f1+2)
	fcall	___ftdiv
	bcf	status, 5	;RP0=0, select bank0
	bcf	status, 6	;RP1=0, select bank0
	movf	(0+(?___ftdiv)),w
	movwf	(trapmf@ua)
	movf	(1+(?___ftdiv)),w
	movwf	(trapmf@ua+1)
	movf	(2+(?___ftdiv)),w
	movwf	(trapmf@ua+2)
	goto	i1l118
	line	127
	
i1l123:	
	
i1l3758:	
;main.c: 127: else if (x > d)
	bcf	status, 5	;RP0=0, select bank0
	bcf	status, 6	;RP1=0, select bank0
	movf	(trapmf@d),w
	movwf	(___ftge@ff1)
	movf	(trapmf@d+1),w
	movwf	(___ftge@ff1+1)
	movf	(trapmf@d+2),w
	movwf	(___ftge@ff1+2)
	movf	(trapmf@x),w
	movwf	(___ftge@ff2)
	movf	(trapmf@x+1),w
	movwf	(___ftge@ff2+1)
	movf	(trapmf@x+2),w
	movwf	(___ftge@ff2+2)
	fcall	___ftge
	btfsc	status,0
	goto	u534_21
	goto	u534_20
u534_21:
	goto	i1l118
u534_20:
	line	128
	
i1l3760:	
;main.c: 128: ua = 0;
	movlw	0x0
	bcf	status, 5	;RP0=0, select bank0
	bcf	status, 6	;RP1=0, select bank0
	movwf	(trapmf@ua)
	movlw	0x0
	movwf	(trapmf@ua+1)
	movlw	0x0
	movwf	(trapmf@ua+2)
	goto	i1l118
	
i1l125:	
	goto	i1l118
	line	130
	
i1l124:	
	goto	i1l118
	
i1l122:	
	goto	i1l118
	
i1l120:	
	
i1l118:	
;main.c: 130: return (ua);
	bcf	status, 5	;RP0=0, select bank0
	bcf	status, 6	;RP1=0, select bank0
	movf	(trapmf@ua),w
	movwf	(?_trapmf)
	movf	(trapmf@ua+1),w
	movwf	(?_trapmf+1)
	movf	(trapmf@ua+2),w
	movwf	(?_trapmf+2)
	goto	i1l126
	
i1l3762:	
	line	131
	
i1l126:	
	return
	opt stack 0
GLOBAL	__end_of_trapmf
	__end_of_trapmf:
	signat	_trapmf,20603
	global	___ftneg

;; *************** function ___ftneg *****************
;; Defined at:
;;		line 15 in file "C:\Program Files (x86)\Microchip\xc8\v1.33\sources\common\ftneg.c"
;; Parameters:    Size  Location     Type
;;  f1              3    0[BANK0 ] float 
;; Auto vars:     Size  Location     Type
;;		None
;; Return value:  Size  Location     Type
;;                  3    0[BANK0 ] float 
;; Registers used:
;;		wreg
;; Tracked objects:
;;		On entry : 0/0
;;		On exit  : 0/0
;;		Unchanged: 0/0
;; Data sizes:     COMMON   BANK0   BANK1   BANK3   BANK2
;;      Params:         0       3       0       0       0
;;      Locals:         0       0       0       0       0
;;      Temps:          0       0       0       0       0
;;      Totals:         0       3       0       0       0
;;Total ram usage:        3 bytes
;; Hardware stack levels used:    1
;; This function calls:
;;		Nothing
;; This function is called by:
;;		_trapmf
;;		_ISR
;; This function uses a non-reentrant model
;;
psect	text24,local,class=CODE,delta=2,merge=1
	file	"C:\Program Files (x86)\Microchip\xc8\v1.33\sources\common\ftneg.c"
	line	15
global __ptext24
__ptext24:	;psect for function ___ftneg
psect	text24
	file	"C:\Program Files (x86)\Microchip\xc8\v1.33\sources\common\ftneg.c"
	line	15
	global	__size_of___ftneg
	__size_of___ftneg	equ	__end_of___ftneg-___ftneg
	
___ftneg:	
;incstack = 0
	opt	stack 3
; Regs used in ___ftneg: [wreg]
	line	17
	
i1l2380:	
	bcf	status, 5	;RP0=0, select bank0
	bcf	status, 6	;RP1=0, select bank0
	movf	(___ftneg@f1+2),w
	iorwf	(___ftneg@f1+1),w
	iorwf	(___ftneg@f1),w
	skipnz
	goto	u271_21
	goto	u271_20
u271_21:
	goto	i1l2384
u271_20:
	line	18
	
i1l2382:	
	movlw	080h
	xorwf	(___ftneg@f1+2),f
	goto	i1l2384
	
i1l795:	
	line	19
	
i1l2384:	
	goto	i1l796
	
i1l2386:	
	line	20
	
i1l796:	
	return
	opt stack 0
GLOBAL	__end_of___ftneg
	__end_of___ftneg:
	signat	___ftneg,4219
	global	___ftdiv

;; *************** function ___ftdiv *****************
;; Defined at:
;;		line 49 in file "C:\Program Files (x86)\Microchip\xc8\v1.33\sources\pic\ftdiv.c"
;; Parameters:    Size  Location     Type
;;  f2              3   16[BANK0 ] float 
;;  f1              3   19[BANK0 ] float 
;; Auto vars:     Size  Location     Type
;;  f3              3   27[BANK0 ] float 
;;  sign            1   31[BANK0 ] unsigned char 
;;  exp             1   30[BANK0 ] unsigned char 
;;  cntr            1   26[BANK0 ] unsigned char 
;; Return value:  Size  Location     Type
;;                  3   16[BANK0 ] float 
;; Registers used:
;;		wreg, status,2, status,0, pclath, cstack
;; Tracked objects:
;;		On entry : 0/0
;;		On exit  : 0/0
;;		Unchanged: 0/0
;; Data sizes:     COMMON   BANK0   BANK1   BANK3   BANK2
;;      Params:         0       6       0       0       0
;;      Locals:         0       6       0       0       0
;;      Temps:          0       4       0       0       0
;;      Totals:         0      16       0       0       0
;;Total ram usage:       16 bytes
;; Hardware stack levels used:    1
;; Hardware stack levels required when called:    1
;; This function calls:
;;		___ftpack
;; This function is called by:
;;		_trapmf
;;		_ISR
;; This function uses a non-reentrant model
;;
psect	text25,local,class=CODE,delta=2,merge=1
	file	"C:\Program Files (x86)\Microchip\xc8\v1.33\sources\pic\ftdiv.c"
	line	49
global __ptext25
__ptext25:	;psect for function ___ftdiv
psect	text25
	file	"C:\Program Files (x86)\Microchip\xc8\v1.33\sources\pic\ftdiv.c"
	line	49
	global	__size_of___ftdiv
	__size_of___ftdiv	equ	__end_of___ftdiv-___ftdiv
	
___ftdiv:	
;incstack = 0
	opt	stack 2
; Regs used in ___ftdiv: [wreg+status,2+status,0+pclath+cstack]
	line	55
	
i1l2318:	
	bcf	status, 5	;RP0=0, select bank0
	bcf	status, 6	;RP1=0, select bank0
	movf	(___ftdiv@f1),w
	movwf	((??___ftdiv+0)+0)
	movf	(___ftdiv@f1+1),w
	movwf	((??___ftdiv+0)+0+1)
	movf	(___ftdiv@f1+2),w
	movwf	((??___ftdiv+0)+0+2)
	clrc
	rlf	(??___ftdiv+0)+1,w
	rlf	(??___ftdiv+0)+2,w
	movwf	(??___ftdiv+3)+0
	movf	(??___ftdiv+3)+0,w
	movwf	(___ftdiv@exp)
	movf	((___ftdiv@exp)),f
	skipz
	goto	u258_21
	goto	u258_20
u258_21:
	goto	i1l2324
u258_20:
	line	56
	
i1l2320:	
	movlw	0x0
	movwf	(?___ftdiv)
	movlw	0x0
	movwf	(?___ftdiv+1)
	movlw	0x0
	movwf	(?___ftdiv+2)
	goto	i1l770
	
i1l2322:	
	goto	i1l770
	
i1l769:	
	line	57
	
i1l2324:	
	movf	(___ftdiv@f2),w
	movwf	((??___ftdiv+0)+0)
	movf	(___ftdiv@f2+1),w
	movwf	((??___ftdiv+0)+0+1)
	movf	(___ftdiv@f2+2),w
	movwf	((??___ftdiv+0)+0+2)
	clrc
	rlf	(??___ftdiv+0)+1,w
	rlf	(??___ftdiv+0)+2,w
	movwf	(??___ftdiv+3)+0
	movf	(??___ftdiv+3)+0,w
	movwf	(___ftdiv@sign)
	movf	((___ftdiv@sign)),f
	skipz
	goto	u259_21
	goto	u259_20
u259_21:
	goto	i1l2330
u259_20:
	line	58
	
i1l2326:	
	movlw	0x0
	movwf	(?___ftdiv)
	movlw	0x0
	movwf	(?___ftdiv+1)
	movlw	0x0
	movwf	(?___ftdiv+2)
	goto	i1l770
	
i1l2328:	
	goto	i1l770
	
i1l771:	
	line	59
	
i1l2330:	
	movlw	0
	movwf	(___ftdiv@f3)
	movlw	0
	movwf	(___ftdiv@f3+1)
	movlw	0
	movwf	(___ftdiv@f3+2)
	line	60
	
i1l2332:	
	movlw	(089h)
	addwf	(___ftdiv@sign),w
	movwf	(??___ftdiv+0)+0
	movf	0+(??___ftdiv+0)+0,w
	subwf	(___ftdiv@exp),f
	line	61
	
i1l2334:	
	movf	(___ftdiv@f1),w
	movwf	((??___ftdiv+0)+0)
	movf	(___ftdiv@f1+1),w
	movwf	((??___ftdiv+0)+0+1)
	movf	(___ftdiv@f1+2),w
	movwf	((??___ftdiv+0)+0+2)
	movlw	010h
u260_25:
	clrc
	rrf	(??___ftdiv+0)+2,f
	rrf	(??___ftdiv+0)+1,f
	rrf	(??___ftdiv+0)+0,f
u260_20:
	addlw	-1
	skipz
	goto	u260_25
	movf	0+(??___ftdiv+0)+0,w
	movwf	(??___ftdiv+3)+0
	movf	(??___ftdiv+3)+0,w
	movwf	(___ftdiv@sign)
	line	62
	
i1l2336:	
	movf	(___ftdiv@f2),w
	movwf	((??___ftdiv+0)+0)
	movf	(___ftdiv@f2+1),w
	movwf	((??___ftdiv+0)+0+1)
	movf	(___ftdiv@f2+2),w
	movwf	((??___ftdiv+0)+0+2)
	movlw	010h
u261_25:
	clrc
	rrf	(??___ftdiv+0)+2,f
	rrf	(??___ftdiv+0)+1,f
	rrf	(??___ftdiv+0)+0,f
u261_20:
	addlw	-1
	skipz
	goto	u261_25
	movf	0+(??___ftdiv+0)+0,w
	movwf	(??___ftdiv+3)+0
	movf	(??___ftdiv+3)+0,w
	xorwf	(___ftdiv@sign),f
	line	63
	
i1l2338:	
	movlw	(080h)
	movwf	(??___ftdiv+0)+0
	movf	(??___ftdiv+0)+0,w
	andwf	(___ftdiv@sign),f
	line	64
	
i1l2340:	
	bsf	(___ftdiv@f1)+(15/8),(15)&7
	line	65
	movlw	0FFh
	andwf	(___ftdiv@f1),f
	movlw	0FFh
	andwf	(___ftdiv@f1+1),f
	movlw	0
	andwf	(___ftdiv@f1+2),f
	line	66
	
i1l2342:	
	bsf	(___ftdiv@f2)+(15/8),(15)&7
	line	67
	movlw	0FFh
	andwf	(___ftdiv@f2),f
	movlw	0FFh
	andwf	(___ftdiv@f2+1),f
	movlw	0
	andwf	(___ftdiv@f2+2),f
	line	68
	movlw	(018h)
	movwf	(??___ftdiv+0)+0
	movf	(??___ftdiv+0)+0,w
	movwf	(___ftdiv@cntr)
	goto	i1l2344
	line	69
	
i1l772:	
	line	70
	
i1l2344:	
	movlw	01h
u262_25:
	clrc
	rlf	(___ftdiv@f3),f
	rlf	(___ftdiv@f3+1),f
	rlf	(___ftdiv@f3+2),f
	addlw	-1
	skipz
	goto	u262_25
	line	71
	
i1l2346:	
	movf	(___ftdiv@f2+2),w
	subwf	(___ftdiv@f1+2),w
	skipz
	goto	u263_25
	movf	(___ftdiv@f2+1),w
	subwf	(___ftdiv@f1+1),w
	skipz
	goto	u263_25
	movf	(___ftdiv@f2),w
	subwf	(___ftdiv@f1),w
u263_25:
	skipc
	goto	u263_21
	goto	u263_20
u263_21:
	goto	i1l2352
u263_20:
	line	72
	
i1l2348:	
	movf	(___ftdiv@f2),w
	subwf	(___ftdiv@f1),f
	movf	(___ftdiv@f2+1),w
	skipc
	incfsz	(___ftdiv@f2+1),w
	subwf	(___ftdiv@f1+1),f
	movf	(___ftdiv@f2+2),w
	skipc
	incf	(___ftdiv@f2+2),w
	subwf	(___ftdiv@f1+2),f
	line	73
	
i1l2350:	
	bsf	(___ftdiv@f3)+(0/8),(0)&7
	goto	i1l2352
	line	74
	
i1l773:	
	line	75
	
i1l2352:	
	movlw	01h
u264_25:
	clrc
	rlf	(___ftdiv@f1),f
	rlf	(___ftdiv@f1+1),f
	rlf	(___ftdiv@f1+2),f
	addlw	-1
	skipz
	goto	u264_25
	line	76
	
i1l2354:	
	movlw	low(01h)
	subwf	(___ftdiv@cntr),f
	btfss	status,2
	goto	u265_21
	goto	u265_20
u265_21:
	goto	i1l2344
u265_20:
	goto	i1l2356
	
i1l774:	
	line	77
	
i1l2356:	
	movf	(___ftdiv@f3),w
	movwf	(___ftpack@arg)
	movf	(___ftdiv@f3+1),w
	movwf	(___ftpack@arg+1)
	movf	(___ftdiv@f3+2),w
	movwf	(___ftpack@arg+2)
	movf	(___ftdiv@exp),w
	movwf	(??___ftdiv+0)+0
	movf	(??___ftdiv+0)+0,w
	movwf	(___ftpack@exp)
	movf	(___ftdiv@sign),w
	movwf	(??___ftdiv+1)+0
	movf	(??___ftdiv+1)+0,w
	movwf	(___ftpack@sign)
	fcall	___ftpack
	movf	(0+(?___ftpack)),w
	bcf	status, 5	;RP0=0, select bank0
	bcf	status, 6	;RP1=0, select bank0
	movwf	(?___ftdiv)
	movf	(1+(?___ftpack)),w
	movwf	(?___ftdiv+1)
	movf	(2+(?___ftpack)),w
	movwf	(?___ftdiv+2)
	goto	i1l770
	
i1l2358:	
	line	78
	
i1l770:	
	return
	opt stack 0
GLOBAL	__end_of___ftdiv
	__end_of___ftdiv:
	signat	___ftdiv,8315
	global	___ftadd

;; *************** function ___ftadd *****************
;; Defined at:
;;		line 86 in file "C:\Program Files (x86)\Microchip\xc8\v1.33\sources\common\ftadd.c"
;; Parameters:    Size  Location     Type
;;  f1              3    3[BANK0 ] float 
;;  f2              3    6[BANK0 ] float 
;; Auto vars:     Size  Location     Type
;;  exp1            1   15[BANK0 ] unsigned char 
;;  exp2            1   14[BANK0 ] unsigned char 
;;  sign            1   13[BANK0 ] unsigned char 
;; Return value:  Size  Location     Type
;;                  3    3[BANK0 ] float 
;; Registers used:
;;		wreg, status,2, status,0, pclath, cstack
;; Tracked objects:
;;		On entry : 0/0
;;		On exit  : 0/0
;;		Unchanged: 0/0
;; Data sizes:     COMMON   BANK0   BANK1   BANK3   BANK2
;;      Params:         0       6       0       0       0
;;      Locals:         0       3       0       0       0
;;      Temps:          0       4       0       0       0
;;      Totals:         0      13       0       0       0
;;Total ram usage:       13 bytes
;; Hardware stack levels used:    1
;; Hardware stack levels required when called:    1
;; This function calls:
;;		___ftpack
;; This function is called by:
;;		_trapmf
;;		_ISR
;; This function uses a non-reentrant model
;;
psect	text26,local,class=CODE,delta=2,merge=1
	file	"C:\Program Files (x86)\Microchip\xc8\v1.33\sources\common\ftadd.c"
	line	86
global __ptext26
__ptext26:	;psect for function ___ftadd
psect	text26
	file	"C:\Program Files (x86)\Microchip\xc8\v1.33\sources\common\ftadd.c"
	line	86
	global	__size_of___ftadd
	__size_of___ftadd	equ	__end_of___ftadd-___ftadd
	
___ftadd:	
;incstack = 0
	opt	stack 2
; Regs used in ___ftadd: [wreg+status,2+status,0+pclath+cstack]
	line	90
	
i1l3662:	
	bcf	status, 5	;RP0=0, select bank0
	bcf	status, 6	;RP1=0, select bank0
	movf	(___ftadd@f1),w
	movwf	((??___ftadd+0)+0)
	movf	(___ftadd@f1+1),w
	movwf	((??___ftadd+0)+0+1)
	movf	(___ftadd@f1+2),w
	movwf	((??___ftadd+0)+0+2)
	clrc
	rlf	(??___ftadd+0)+1,w
	rlf	(??___ftadd+0)+2,w
	movwf	(??___ftadd+3)+0
	movf	(??___ftadd+3)+0,w
	movwf	(___ftadd@exp1)
	line	91
	movf	(___ftadd@f2),w
	movwf	((??___ftadd+0)+0)
	movf	(___ftadd@f2+1),w
	movwf	((??___ftadd+0)+0+1)
	movf	(___ftadd@f2+2),w
	movwf	((??___ftadd+0)+0+2)
	clrc
	rlf	(??___ftadd+0)+1,w
	rlf	(??___ftadd+0)+2,w
	movwf	(??___ftadd+3)+0
	movf	(??___ftadd+3)+0,w
	movwf	(___ftadd@exp2)
	line	92
	
i1l3664:	
	movf	(___ftadd@exp1),w
	skipz
	goto	u503_20
	goto	i1l3670
u503_20:
	
i1l3666:	
	movf	(___ftadd@exp2),w
	subwf	(___ftadd@exp1),w
	skipnc
	goto	u504_21
	goto	u504_20
u504_21:
	goto	i1l3674
u504_20:
	
i1l3668:	
	decf	(___ftadd@exp1),w
	xorlw	0ffh
	addwf	(___ftadd@exp2),w
	movwf	(??___ftadd+0)+0
	movlw	(019h)
	subwf	0+(??___ftadd+0)+0,w
	skipc
	goto	u505_21
	goto	u505_20
u505_21:
	goto	i1l3674
u505_20:
	goto	i1l3670
	
i1l738:	
	line	93
	
i1l3670:	
	movf	(___ftadd@f2),w
	movwf	(?___ftadd)
	movf	(___ftadd@f2+1),w
	movwf	(?___ftadd+1)
	movf	(___ftadd@f2+2),w
	movwf	(?___ftadd+2)
	goto	i1l739
	
i1l3672:	
	goto	i1l739
	
i1l736:	
	line	94
	
i1l3674:	
	movf	(___ftadd@exp2),w
	skipz
	goto	u506_20
	goto	i1l742
u506_20:
	
i1l3676:	
	movf	(___ftadd@exp1),w
	subwf	(___ftadd@exp2),w
	skipnc
	goto	u507_21
	goto	u507_20
u507_21:
	goto	i1l3680
u507_20:
	
i1l3678:	
	decf	(___ftadd@exp2),w
	xorlw	0ffh
	addwf	(___ftadd@exp1),w
	movwf	(??___ftadd+0)+0
	movlw	(019h)
	subwf	0+(??___ftadd+0)+0,w
	skipc
	goto	u508_21
	goto	u508_20
u508_21:
	goto	i1l3680
u508_20:
	
i1l742:	
	line	95
	goto	i1l739
	
i1l740:	
	line	96
	
i1l3680:	
	movlw	(06h)
	movwf	(??___ftadd+0)+0
	movf	(??___ftadd+0)+0,w
	movwf	(___ftadd@sign)
	line	97
	
i1l3682:	
	btfss	(___ftadd@f1+2),(23)&7
	goto	u509_21
	goto	u509_20
u509_21:
	goto	i1l743
u509_20:
	line	98
	
i1l3684:	
	bsf	(___ftadd@sign)+(7/8),(7)&7
	
i1l743:	
	line	99
	btfss	(___ftadd@f2+2),(23)&7
	goto	u510_21
	goto	u510_20
u510_21:
	goto	i1l744
u510_20:
	line	100
	
i1l3686:	
	bsf	(___ftadd@sign)+(6/8),(6)&7
	
i1l744:	
	line	101
	bsf	(___ftadd@f1)+(15/8),(15)&7
	line	102
	
i1l3688:	
	movlw	0FFh
	andwf	(___ftadd@f1),f
	movlw	0FFh
	andwf	(___ftadd@f1+1),f
	movlw	0
	andwf	(___ftadd@f1+2),f
	line	103
	
i1l3690:	
	bsf	(___ftadd@f2)+(15/8),(15)&7
	line	104
	movlw	0FFh
	andwf	(___ftadd@f2),f
	movlw	0FFh
	andwf	(___ftadd@f2+1),f
	movlw	0
	andwf	(___ftadd@f2+2),f
	line	106
	movf	(___ftadd@exp2),w
	subwf	(___ftadd@exp1),w
	skipnc
	goto	u511_21
	goto	u511_20
u511_21:
	goto	i1l3702
u511_20:
	goto	i1l3692
	line	109
	
i1l746:	
	line	110
	
i1l3692:	
	movlw	01h
u512_25:
	clrc
	rlf	(___ftadd@f2),f
	rlf	(___ftadd@f2+1),f
	rlf	(___ftadd@f2+2),f
	addlw	-1
	skipz
	goto	u512_25
	line	111
	movlw	low(01h)
	subwf	(___ftadd@exp2),f
	line	112
	
i1l3694:	
	movf	(___ftadd@exp2),w
	xorwf	(___ftadd@exp1),w
	skipnz
	goto	u513_21
	goto	u513_20
u513_21:
	goto	i1l3700
u513_20:
	
i1l3696:	
	movlw	low(01h)
	subwf	(___ftadd@sign),f
	movf	((___ftadd@sign)),w
	andlw	07h
	btfss	status,2
	goto	u514_21
	goto	u514_20
u514_21:
	goto	i1l3692
u514_20:
	goto	i1l3700
	
i1l748:	
	goto	i1l3700
	
i1l749:	
	line	113
	goto	i1l3700
	
i1l751:	
	line	114
	
i1l3698:	
	movlw	01h
u515_25:
	clrc
	rrf	(___ftadd@f1+2),f
	rrf	(___ftadd@f1+1),f
	rrf	(___ftadd@f1),f
	addlw	-1
	skipz
	goto	u515_25

	line	115
	movlw	(01h)
	movwf	(??___ftadd+0)+0
	movf	(??___ftadd+0)+0,w
	addwf	(___ftadd@exp1),f
	goto	i1l3700
	line	116
	
i1l750:	
	line	113
	
i1l3700:	
	movf	(___ftadd@exp1),w
	xorwf	(___ftadd@exp2),w
	skipz
	goto	u516_21
	goto	u516_20
u516_21:
	goto	i1l3698
u516_20:
	goto	i1l753
	
i1l752:	
	line	117
	goto	i1l753
	
i1l745:	
	
i1l3702:	
	movf	(___ftadd@exp1),w
	subwf	(___ftadd@exp2),w
	skipnc
	goto	u517_21
	goto	u517_20
u517_21:
	goto	i1l753
u517_20:
	goto	i1l3704
	line	120
	
i1l755:	
	line	121
	
i1l3704:	
	movlw	01h
u518_25:
	clrc
	rlf	(___ftadd@f1),f
	rlf	(___ftadd@f1+1),f
	rlf	(___ftadd@f1+2),f
	addlw	-1
	skipz
	goto	u518_25
	line	122
	movlw	low(01h)
	subwf	(___ftadd@exp1),f
	line	123
	
i1l3706:	
	movf	(___ftadd@exp2),w
	xorwf	(___ftadd@exp1),w
	skipnz
	goto	u519_21
	goto	u519_20
u519_21:
	goto	i1l3712
u519_20:
	
i1l3708:	
	movlw	low(01h)
	subwf	(___ftadd@sign),f
	movf	((___ftadd@sign)),w
	andlw	07h
	btfss	status,2
	goto	u520_21
	goto	u520_20
u520_21:
	goto	i1l3704
u520_20:
	goto	i1l3712
	
i1l757:	
	goto	i1l3712
	
i1l758:	
	line	124
	goto	i1l3712
	
i1l760:	
	line	125
	
i1l3710:	
	movlw	01h
u521_25:
	clrc
	rrf	(___ftadd@f2+2),f
	rrf	(___ftadd@f2+1),f
	rrf	(___ftadd@f2),f
	addlw	-1
	skipz
	goto	u521_25

	line	126
	movlw	(01h)
	movwf	(??___ftadd+0)+0
	movf	(??___ftadd+0)+0,w
	addwf	(___ftadd@exp2),f
	goto	i1l3712
	line	127
	
i1l759:	
	line	124
	
i1l3712:	
	movf	(___ftadd@exp1),w
	xorwf	(___ftadd@exp2),w
	skipz
	goto	u522_21
	goto	u522_20
u522_21:
	goto	i1l3710
u522_20:
	goto	i1l753
	
i1l761:	
	goto	i1l753
	line	128
	
i1l754:	
	line	129
	
i1l753:	
	btfss	(___ftadd@sign),(7)&7
	goto	u523_21
	goto	u523_20
u523_21:
	goto	i1l3716
u523_20:
	line	131
	
i1l3714:	
	movlw	0FFh
	xorwf	(___ftadd@f1),f
	movlw	0FFh
	xorwf	(___ftadd@f1+1),f
	movlw	0FFh
	xorwf	(___ftadd@f1+2),f
	line	132
	movlw	01h
	addwf	(___ftadd@f1),f
	movlw	0
	skipnc
movlw 1
	addwf	(___ftadd@f1+1),f
	movlw	0
	skipnc
movlw 1
	addwf	(___ftadd@f1+2),f
	goto	i1l3716
	line	133
	
i1l762:	
	line	134
	
i1l3716:	
	btfss	(___ftadd@sign),(6)&7
	goto	u524_21
	goto	u524_20
u524_21:
	goto	i1l3720
u524_20:
	line	136
	
i1l3718:	
	movlw	0FFh
	xorwf	(___ftadd@f2),f
	movlw	0FFh
	xorwf	(___ftadd@f2+1),f
	movlw	0FFh
	xorwf	(___ftadd@f2+2),f
	line	137
	movlw	01h
	addwf	(___ftadd@f2),f
	movlw	0
	skipnc
movlw 1
	addwf	(___ftadd@f2+1),f
	movlw	0
	skipnc
movlw 1
	addwf	(___ftadd@f2+2),f
	goto	i1l3720
	line	138
	
i1l763:	
	line	139
	
i1l3720:	
	clrf	(___ftadd@sign)
	line	140
	
i1l3722:	
	movf	(___ftadd@f1),w
	addwf	(___ftadd@f2),f
	movf	(___ftadd@f1+1),w
	clrz
	skipnc
	incf	(___ftadd@f1+1),w
	skipnz
	goto	u525_21
	addwf	(___ftadd@f2+1),f
u525_21:
	movf	(___ftadd@f1+2),w
	clrz
	skipnc
	incf	(___ftadd@f1+2),w
	skipnz
	goto	u525_22
	addwf	(___ftadd@f2+2),f
u525_22:

	line	141
	
i1l3724:	
	btfss	(___ftadd@f2+2),(23)&7
	goto	u526_21
	goto	u526_20
u526_21:
	goto	i1l3730
u526_20:
	line	142
	
i1l3726:	
	movlw	0FFh
	xorwf	(___ftadd@f2),f
	movlw	0FFh
	xorwf	(___ftadd@f2+1),f
	movlw	0FFh
	xorwf	(___ftadd@f2+2),f
	line	143
	movlw	01h
	addwf	(___ftadd@f2),f
	movlw	0
	skipnc
movlw 1
	addwf	(___ftadd@f2+1),f
	movlw	0
	skipnc
movlw 1
	addwf	(___ftadd@f2+2),f
	line	144
	
i1l3728:	
	clrf	(___ftadd@sign)
	incf	(___ftadd@sign),f
	goto	i1l3730
	line	145
	
i1l764:	
	line	146
	
i1l3730:	
	movf	(___ftadd@f2),w
	movwf	(___ftpack@arg)
	movf	(___ftadd@f2+1),w
	movwf	(___ftpack@arg+1)
	movf	(___ftadd@f2+2),w
	movwf	(___ftpack@arg+2)
	movf	(___ftadd@exp1),w
	movwf	(??___ftadd+0)+0
	movf	(??___ftadd+0)+0,w
	movwf	(___ftpack@exp)
	movf	(___ftadd@sign),w
	movwf	(??___ftadd+1)+0
	movf	(??___ftadd+1)+0,w
	movwf	(___ftpack@sign)
	fcall	___ftpack
	movf	(0+(?___ftpack)),w
	bcf	status, 5	;RP0=0, select bank0
	bcf	status, 6	;RP1=0, select bank0
	movwf	(?___ftadd)
	movf	(1+(?___ftpack)),w
	movwf	(?___ftadd+1)
	movf	(2+(?___ftpack)),w
	movwf	(?___ftadd+2)
	goto	i1l739
	
i1l3732:	
	line	148
	
i1l739:	
	return
	opt stack 0
GLOBAL	__end_of___ftadd
	__end_of___ftadd:
	signat	___ftadd,8315
	global	_send

;; *************** function _send *****************
;; Defined at:
;;		line 134 in file "C:\Users\filip\programs\FuzzySI\firmware - Copia\main.c"
;; Parameters:    Size  Location     Type
;;		None
;; Auto vars:     Size  Location     Type
;;  index           1   10[COMMON] unsigned char 
;;  checksum        1    9[COMMON] unsigned char 
;; Return value:  Size  Location     Type
;;		None               void
;; Registers used:
;;		wreg, fsr0l, fsr0h, status,2, status,0, pclath, cstack
;; Tracked objects:
;;		On entry : 0/0
;;		On exit  : 0/0
;;		Unchanged: 0/0
;; Data sizes:     COMMON   BANK0   BANK1   BANK3   BANK2
;;      Params:         0       0       0       0       0
;;      Locals:         2       0       0       0       0
;;      Temps:          1       0       0       0       0
;;      Totals:         3       0       0       0       0
;;Total ram usage:        3 bytes
;; Hardware stack levels used:    1
;; Hardware stack levels required when called:    1
;; This function calls:
;;		_USART_WriteChar
;;		___lwdiv
;; This function is called by:
;;		_ISR
;; This function uses a non-reentrant model
;;
psect	text27,local,class=CODE,delta=2,merge=1
	file	"C:\Users\filip\programs\FuzzySI\firmware - Copia\main.c"
	line	134
global __ptext27
__ptext27:	;psect for function _send
psect	text27
	file	"C:\Users\filip\programs\FuzzySI\firmware - Copia\main.c"
	line	134
	global	__size_of_send
	__size_of_send	equ	__end_of_send-_send
	
_send:	
;incstack = 0
	opt	stack 3
; Regs used in _send: [wreg-fsr0h+status,2+status,0+pclath+cstack]
	line	138
	
i1l2490:	
;main.c: 138: buffer[0] = '#';
	movlw	(023h)
	movwf	(??_send+0)+0
	movf	(??_send+0)+0,w
	bsf	status, 5	;RP0=1, select bank1
	bcf	status, 6	;RP1=0, select bank1
	movwf	(_buffer)^080h
	line	139
;main.c: 139: buffer[1] = '$';
	movlw	(024h)
	movwf	(??_send+0)+0
	movf	(??_send+0)+0,w
	movwf	0+(_buffer)^080h+01h
	line	140
;main.c: 140: buffer[2] = ':';
	movlw	(03Ah)
	movwf	(??_send+0)+0
	movf	(??_send+0)+0,w
	movwf	0+(_buffer)^080h+02h
	line	142
	
i1l2492:	
;main.c: 142: kmph = rpm/41;
	movlw	low(029h)
	movwf	(___lwdiv@divisor)
	movlw	high(029h)
	movwf	((___lwdiv@divisor))+1
	movf	(_rpm+1)^080h,w
	clrf	(___lwdiv@dividend+1)
	addwf	(___lwdiv@dividend+1)
	movf	(_rpm)^080h,w
	clrf	(___lwdiv@dividend)
	addwf	(___lwdiv@dividend)

	fcall	___lwdiv
	movf	(1+(?___lwdiv)),w
	bcf	status, 5	;RP0=0, select bank0
	bcf	status, 6	;RP1=0, select bank0
	clrf	(_kmph+1)
	addwf	(_kmph+1)
	movf	(0+(?___lwdiv)),w
	clrf	(_kmph)
	addwf	(_kmph)

	line	144
	
i1l2494:	
;main.c: 144: buffer[3] = (kmph >> 8);
	movf	(_kmph+1),w
	movwf	(??_send+0)+0
	movf	(??_send+0)+0,w
	bsf	status, 5	;RP0=1, select bank1
	bcf	status, 6	;RP1=0, select bank1
	movwf	0+(_buffer)^080h+03h
	line	145
	
i1l2496:	
;main.c: 145: buffer[4] = kmph;
	bcf	status, 5	;RP0=0, select bank0
	bcf	status, 6	;RP1=0, select bank0
	movf	(_kmph),w
	movwf	(??_send+0)+0
	movf	(??_send+0)+0,w
	bsf	status, 5	;RP0=1, select bank1
	bcf	status, 6	;RP1=0, select bank1
	movwf	0+(_buffer)^080h+04h
	line	146
	
i1l2498:	
;main.c: 146: kmph = setpoint/41;
	movlw	low(029h)
	movwf	(___lwdiv@divisor)
	movlw	high(029h)
	movwf	((___lwdiv@divisor))+1
	movf	(_setpoint+1)^080h,w
	clrf	(___lwdiv@dividend+1)
	addwf	(___lwdiv@dividend+1)
	movf	(_setpoint)^080h,w
	clrf	(___lwdiv@dividend)
	addwf	(___lwdiv@dividend)

	fcall	___lwdiv
	movf	(1+(?___lwdiv)),w
	bcf	status, 5	;RP0=0, select bank0
	bcf	status, 6	;RP1=0, select bank0
	clrf	(_kmph+1)
	addwf	(_kmph+1)
	movf	(0+(?___lwdiv)),w
	clrf	(_kmph)
	addwf	(_kmph)

	line	147
;main.c: 147: buffer[5] = (kmph >> 8);
	movf	(_kmph+1),w
	movwf	(??_send+0)+0
	movf	(??_send+0)+0,w
	bsf	status, 5	;RP0=1, select bank1
	bcf	status, 6	;RP1=0, select bank1
	movwf	0+(_buffer)^080h+05h
	line	148
	
i1l2500:	
;main.c: 148: buffer[6] = kmph;
	bcf	status, 5	;RP0=0, select bank0
	bcf	status, 6	;RP1=0, select bank0
	movf	(_kmph),w
	movwf	(??_send+0)+0
	movf	(??_send+0)+0,w
	bsf	status, 5	;RP0=1, select bank1
	bcf	status, 6	;RP1=0, select bank1
	movwf	0+(_buffer)^080h+06h
	line	149
	
i1l2502:	
;main.c: 149: buffer[7] = pilotoAtivo;
	movf	(_pilotoAtivo)^080h,w
	movwf	(??_send+0)+0
	movf	(??_send+0)+0,w
	movwf	0+(_buffer)^080h+07h
	line	152
	
i1l2504:	
;main.c: 152: unsigned char checksum = 0x00;
	clrf	(send@checksum)
	line	153
	
i1l2506:	
;main.c: 153: for (unsigned char index = 0; index < 8; index++)
	clrf	(send@index)
	
i1l2508:	
	movlw	(08h)
	subwf	(send@index),w
	skipc
	goto	u297_21
	goto	u297_20
u297_21:
	goto	i1l2512
u297_20:
	goto	i1l2520
	
i1l2510:	
	goto	i1l2520
	line	154
	
i1l131:	
	line	155
	
i1l2512:	
;main.c: 154: {
;main.c: 155: USART_WriteChar(buffer[index]);
	movf	(send@index),w
	addlw	_buffer&0ffh
	movwf	fsr0
	bcf	status, 7	;select IRP bank1
	movf	indf,w
	fcall	_USART_WriteChar
	line	156
	
i1l2514:	
;main.c: 156: checksum ^= buffer[index];
	movf	(send@index),w
	addlw	_buffer&0ffh
	movwf	fsr0
	bcf	status, 7	;select IRP bank1
	movf	indf,w
	movwf	(??_send+0)+0
	movf	(??_send+0)+0,w
	xorwf	(send@checksum),f
	line	153
	
i1l2516:	
	movlw	(01h)
	movwf	(??_send+0)+0
	movf	(??_send+0)+0,w
	addwf	(send@index),f
	
i1l2518:	
	movlw	(08h)
	subwf	(send@index),w
	skipc
	goto	u298_21
	goto	u298_20
u298_21:
	goto	i1l2512
u298_20:
	goto	i1l2520
	
i1l132:	
	line	158
	
i1l2520:	
;main.c: 157: }
;main.c: 158: buffer[8] = checksum;
	movf	(send@checksum),w
	movwf	(??_send+0)+0
	movf	(??_send+0)+0,w
	bsf	status, 5	;RP0=1, select bank1
	bcf	status, 6	;RP1=0, select bank1
	movwf	0+(_buffer)^080h+08h
	line	159
	
i1l2522:	
;main.c: 159: USART_WriteChar(buffer[8]);
	movf	0+(_buffer)^080h+08h,w
	fcall	_USART_WriteChar
	line	160
	
i1l133:	
	return
	opt stack 0
GLOBAL	__end_of_send
	__end_of_send:
	signat	_send,88
	global	___lwdiv

;; *************** function ___lwdiv *****************
;; Defined at:
;;		line 6 in file "C:\Program Files (x86)\Microchip\xc8\v1.33\sources\common\lwdiv.c"
;; Parameters:    Size  Location     Type
;;  divisor         2    0[COMMON] unsigned int 
;;  dividend        2    2[COMMON] unsigned int 
;; Auto vars:     Size  Location     Type
;;  quotient        2    5[COMMON] unsigned int 
;;  counter         1    7[COMMON] unsigned char 
;; Return value:  Size  Location     Type
;;                  2    0[COMMON] unsigned int 
;; Registers used:
;;		wreg, status,2, status,0
;; Tracked objects:
;;		On entry : 0/0
;;		On exit  : 0/0
;;		Unchanged: 0/0
;; Data sizes:     COMMON   BANK0   BANK1   BANK3   BANK2
;;      Params:         4       0       0       0       0
;;      Locals:         3       0       0       0       0
;;      Temps:          1       0       0       0       0
;;      Totals:         8       0       0       0       0
;;Total ram usage:        8 bytes
;; Hardware stack levels used:    1
;; This function calls:
;;		Nothing
;; This function is called by:
;;		_send
;;		_ISR
;; This function uses a non-reentrant model
;;
psect	text28,local,class=CODE,delta=2,merge=1
	file	"C:\Program Files (x86)\Microchip\xc8\v1.33\sources\common\lwdiv.c"
	line	6
global __ptext28
__ptext28:	;psect for function ___lwdiv
psect	text28
	file	"C:\Program Files (x86)\Microchip\xc8\v1.33\sources\common\lwdiv.c"
	line	6
	global	__size_of___lwdiv
	__size_of___lwdiv	equ	__end_of___lwdiv-___lwdiv
	
___lwdiv:	
;incstack = 0
	opt	stack 3
; Regs used in ___lwdiv: [wreg+status,2+status,0]
	line	14
	
i1l2388:	
	clrf	(___lwdiv@quotient)
	clrf	(___lwdiv@quotient+1)
	line	15
	
i1l2390:	
	movf	(___lwdiv@divisor+1),w
	iorwf	(___lwdiv@divisor),w
	skipnz
	goto	u272_21
	goto	u272_20
u272_21:
	goto	i1l2410
u272_20:
	line	16
	
i1l2392:	
	clrf	(___lwdiv@counter)
	incf	(___lwdiv@counter),f
	line	17
	goto	i1l2398
	
i1l894:	
	line	18
	
i1l2394:	
	movlw	01h
	
u273_25:
	clrc
	rlf	(___lwdiv@divisor),f
	rlf	(___lwdiv@divisor+1),f
	addlw	-1
	skipz
	goto	u273_25
	line	19
	
i1l2396:	
	movlw	(01h)
	movwf	(??___lwdiv+0)+0
	movf	(??___lwdiv+0)+0,w
	addwf	(___lwdiv@counter),f
	goto	i1l2398
	line	20
	
i1l893:	
	line	17
	
i1l2398:	
	btfss	(___lwdiv@divisor+1),(15)&7
	goto	u274_21
	goto	u274_20
u274_21:
	goto	i1l2394
u274_20:
	goto	i1l2400
	
i1l895:	
	goto	i1l2400
	line	21
	
i1l896:	
	line	22
	
i1l2400:	
	movlw	01h
	
u275_25:
	clrc
	rlf	(___lwdiv@quotient),f
	rlf	(___lwdiv@quotient+1),f
	addlw	-1
	skipz
	goto	u275_25
	line	23
	movf	(___lwdiv@divisor+1),w
	subwf	(___lwdiv@dividend+1),w
	skipz
	goto	u276_25
	movf	(___lwdiv@divisor),w
	subwf	(___lwdiv@dividend),w
u276_25:
	skipc
	goto	u276_21
	goto	u276_20
u276_21:
	goto	i1l2406
u276_20:
	line	24
	
i1l2402:	
	movf	(___lwdiv@divisor),w
	subwf	(___lwdiv@dividend),f
	movf	(___lwdiv@divisor+1),w
	skipc
	decf	(___lwdiv@dividend+1),f
	subwf	(___lwdiv@dividend+1),f
	line	25
	
i1l2404:	
	bsf	(___lwdiv@quotient)+(0/8),(0)&7
	goto	i1l2406
	line	26
	
i1l897:	
	line	27
	
i1l2406:	
	movlw	01h
	
u277_25:
	clrc
	rrf	(___lwdiv@divisor+1),f
	rrf	(___lwdiv@divisor),f
	addlw	-1
	skipz
	goto	u277_25
	line	28
	
i1l2408:	
	movlw	low(01h)
	subwf	(___lwdiv@counter),f
	btfss	status,2
	goto	u278_21
	goto	u278_20
u278_21:
	goto	i1l2400
u278_20:
	goto	i1l2410
	
i1l898:	
	goto	i1l2410
	line	29
	
i1l892:	
	line	30
	
i1l2410:	
	movf	(___lwdiv@quotient+1),w
	clrf	(?___lwdiv+1)
	addwf	(?___lwdiv+1)
	movf	(___lwdiv@quotient),w
	clrf	(?___lwdiv)
	addwf	(?___lwdiv)

	goto	i1l899
	
i1l2412:	
	line	31
	
i1l899:	
	return
	opt stack 0
GLOBAL	__end_of___lwdiv
	__end_of___lwdiv:
	signat	___lwdiv,8314
	global	_minimo

;; *************** function _minimo *****************
;; Defined at:
;;		line 25 in file "C:\Users\filip\programs\FuzzySI\firmware - Copia\main.c"
;; Parameters:    Size  Location     Type
;;  a               3    6[BANK0 ] float 
;;  b               3    9[BANK0 ] float 
;; Auto vars:     Size  Location     Type
;;		None
;; Return value:  Size  Location     Type
;;                  3    6[BANK0 ] float 
;; Registers used:
;;		wreg, status,2, status,0, pclath, cstack
;; Tracked objects:
;;		On entry : 0/0
;;		On exit  : 0/0
;;		Unchanged: 0/0
;; Data sizes:     COMMON   BANK0   BANK1   BANK3   BANK2
;;      Params:         0       6       0       0       0
;;      Locals:         0       0       0       0       0
;;      Temps:          0       0       0       0       0
;;      Totals:         0       6       0       0       0
;;Total ram usage:        6 bytes
;; Hardware stack levels used:    1
;; Hardware stack levels required when called:    1
;; This function calls:
;;		___ftge
;; This function is called by:
;;		_ISR
;; This function uses a non-reentrant model
;;
psect	text29,local,class=CODE,delta=2,merge=1
	file	"C:\Users\filip\programs\FuzzySI\firmware - Copia\main.c"
	line	25
global __ptext29
__ptext29:	;psect for function _minimo
psect	text29
	file	"C:\Users\filip\programs\FuzzySI\firmware - Copia\main.c"
	line	25
	global	__size_of_minimo
	__size_of_minimo	equ	__end_of_minimo-_minimo
	
_minimo:	
;incstack = 0
	opt	stack 3
; Regs used in _minimo: [wreg+status,2+status,0+pclath+cstack]
	line	26
	
i1l2422:	
;main.c: 26: if (a < b) {
	bcf	status, 5	;RP0=0, select bank0
	bcf	status, 6	;RP1=0, select bank0
	movf	(minimo@a),w
	movwf	(___ftge@ff1)
	movf	(minimo@a+1),w
	movwf	(___ftge@ff1+1)
	movf	(minimo@a+2),w
	movwf	(___ftge@ff1+2)
	movf	(minimo@b),w
	movwf	(___ftge@ff2)
	movf	(minimo@b+1),w
	movwf	(___ftge@ff2+1)
	movf	(minimo@b+2),w
	movwf	(___ftge@ff2+2)
	fcall	___ftge
	btfsc	status,0
	goto	u280_21
	goto	u280_20
u280_21:
	goto	i1l2426
u280_20:
	line	27
	
i1l2424:	
;main.c: 27: return a;
	goto	i1l68
	line	28
	
i1l67:	
	line	29
	
i1l2426:	
;main.c: 28: }
;main.c: 29: return b;
	bcf	status, 5	;RP0=0, select bank0
	bcf	status, 6	;RP1=0, select bank0
	movf	(minimo@b),w
	movwf	(?_minimo)
	movf	(minimo@b+1),w
	movwf	(?_minimo+1)
	movf	(minimo@b+2),w
	movwf	(?_minimo+2)
	goto	i1l68
	
i1l2428:	
	line	30
	
i1l68:	
	return
	opt stack 0
GLOBAL	__end_of_minimo
	__end_of_minimo:
	signat	_minimo,8315
	global	_maximo

;; *************** function _maximo *****************
;; Defined at:
;;		line 18 in file "C:\Users\filip\programs\FuzzySI\firmware - Copia\main.c"
;; Parameters:    Size  Location     Type
;;  a               3   12[BANK0 ] float 
;;  b               3   15[BANK0 ] float 
;; Auto vars:     Size  Location     Type
;;		None
;; Return value:  Size  Location     Type
;;                  3   12[BANK0 ] float 
;; Registers used:
;;		wreg, status,2, status,0, pclath, cstack
;; Tracked objects:
;;		On entry : 0/0
;;		On exit  : 0/0
;;		Unchanged: 0/0
;; Data sizes:     COMMON   BANK0   BANK1   BANK3   BANK2
;;      Params:         0       6       0       0       0
;;      Locals:         0       0       0       0       0
;;      Temps:          0       0       0       0       0
;;      Totals:         0       6       0       0       0
;;Total ram usage:        6 bytes
;; Hardware stack levels used:    1
;; Hardware stack levels required when called:    1
;; This function calls:
;;		___ftge
;; This function is called by:
;;		_ISR
;; This function uses a non-reentrant model
;;
psect	text30,local,class=CODE,delta=2,merge=1
	line	18
global __ptext30
__ptext30:	;psect for function _maximo
psect	text30
	file	"C:\Users\filip\programs\FuzzySI\firmware - Copia\main.c"
	line	18
	global	__size_of_maximo
	__size_of_maximo	equ	__end_of_maximo-_maximo
	
_maximo:	
;incstack = 0
	opt	stack 3
; Regs used in _maximo: [wreg+status,2+status,0+pclath+cstack]
	line	19
	
i1l2414:	
;main.c: 19: if (a > b) {
	bcf	status, 5	;RP0=0, select bank0
	bcf	status, 6	;RP1=0, select bank0
	movf	(maximo@b),w
	movwf	(___ftge@ff1)
	movf	(maximo@b+1),w
	movwf	(___ftge@ff1+1)
	movf	(maximo@b+2),w
	movwf	(___ftge@ff1+2)
	movf	(maximo@a),w
	movwf	(___ftge@ff2)
	movf	(maximo@a+1),w
	movwf	(___ftge@ff2+1)
	movf	(maximo@a+2),w
	movwf	(___ftge@ff2+2)
	fcall	___ftge
	btfsc	status,0
	goto	u279_21
	goto	u279_20
u279_21:
	goto	i1l2418
u279_20:
	line	20
	
i1l2416:	
;main.c: 20: return a;
	goto	i1l64
	line	21
	
i1l63:	
	line	22
	
i1l2418:	
;main.c: 21: }
;main.c: 22: return b;
	bcf	status, 5	;RP0=0, select bank0
	bcf	status, 6	;RP1=0, select bank0
	movf	(maximo@b),w
	movwf	(?_maximo)
	movf	(maximo@b+1),w
	movwf	(?_maximo+1)
	movf	(maximo@b+2),w
	movwf	(?_maximo+2)
	goto	i1l64
	
i1l2420:	
	line	23
	
i1l64:	
	return
	opt stack 0
GLOBAL	__end_of_maximo
	__end_of_maximo:
	signat	_maximo,8315
	global	___ftge

;; *************** function ___ftge *****************
;; Defined at:
;;		line 4 in file "C:\Program Files (x86)\Microchip\xc8\v1.33\sources\common\ftge.c"
;; Parameters:    Size  Location     Type
;;  ff1             3    4[COMMON] float 
;;  ff2             3    7[COMMON] float 
;; Auto vars:     Size  Location     Type
;;		None
;; Return value:  Size  Location     Type
;;		None               void
;; Registers used:
;;		wreg, status,2, status,0
;; Tracked objects:
;;		On entry : 0/0
;;		On exit  : 0/0
;;		Unchanged: 0/0
;; Data sizes:     COMMON   BANK0   BANK1   BANK3   BANK2
;;      Params:         6       0       0       0       0
;;      Locals:         0       0       0       0       0
;;      Temps:          0       6       0       0       0
;;      Totals:         6       6       0       0       0
;;Total ram usage:       12 bytes
;; Hardware stack levels used:    1
;; This function calls:
;;		Nothing
;; This function is called by:
;;		_maximo
;;		_minimo
;;		_trapmf
;;		_ISR
;; This function uses a non-reentrant model
;;
psect	text31,local,class=CODE,delta=2,merge=1
	file	"C:\Program Files (x86)\Microchip\xc8\v1.33\sources\common\ftge.c"
	line	4
global __ptext31
__ptext31:	;psect for function ___ftge
psect	text31
	file	"C:\Program Files (x86)\Microchip\xc8\v1.33\sources\common\ftge.c"
	line	4
	global	__size_of___ftge
	__size_of___ftge	equ	__end_of___ftge-___ftge
	
___ftge:	
;incstack = 0
	opt	stack 3
; Regs used in ___ftge: [wreg+status,2+status,0]
	line	6
	
i1l2360:	
	btfss	(___ftge@ff1+2),(23)&7
	goto	u266_21
	goto	u266_20
u266_21:
	goto	i1l2364
u266_20:
	line	7
	
i1l2362:	
	movlw	low(0800000h)
	bcf	status, 5	;RP0=0, select bank0
	bcf	status, 6	;RP1=0, select bank0
	movwf	((??___ftge+0)+0)
	movlw	high(0800000h)
	movwf	((??___ftge+0)+0+1)
	movlw	low highword(0800000h)
	movwf	((??___ftge+0)+0+2)
	comf	(___ftge@ff1),w
	movwf	(??___ftge+3)+0
	comf	(___ftge@ff1+1),w
	movwf	((??___ftge+3)+0+1)
	comf	(___ftge@ff1+2),w
	movwf	((??___ftge+3)+0+2)
	incf	(??___ftge+3)+0,f
	skipnz
	incf	((??___ftge+3)+0+1),f
	skipnz
	incf	((??___ftge+3)+0+2),f
	movf	0+(??___ftge+3)+0,w
	addwf	(??___ftge+0)+0,f
	movf	1+(??___ftge+3)+0,w
	skipnc
	incfsz	1+(??___ftge+3)+0,w
	goto	u267_21
	goto	u267_22
u267_21:
	addwf	(??___ftge+0)+1,f
	
u267_22:
	movf	2+(??___ftge+3)+0,w
	skipnc
	incfsz	2+(??___ftge+3)+0,w
	goto	u267_23
	goto	u267_24
u267_23:
	addwf	(??___ftge+0)+2,f
	
u267_24:
	movf	0+(??___ftge+0)+0,w
	movwf	(___ftge@ff1)
	movf	1+(??___ftge+0)+0,w
	movwf	(___ftge@ff1+1)
	movf	2+(??___ftge+0)+0,w
	movwf	(___ftge@ff1+2)
	goto	i1l2364
	
i1l777:	
	line	8
	
i1l2364:	
	btfss	(___ftge@ff2+2),(23)&7
	goto	u268_21
	goto	u268_20
u268_21:
	goto	i1l2368
u268_20:
	line	9
	
i1l2366:	
	movlw	low(0800000h)
	bcf	status, 5	;RP0=0, select bank0
	bcf	status, 6	;RP1=0, select bank0
	movwf	((??___ftge+0)+0)
	movlw	high(0800000h)
	movwf	((??___ftge+0)+0+1)
	movlw	low highword(0800000h)
	movwf	((??___ftge+0)+0+2)
	comf	(___ftge@ff2),w
	movwf	(??___ftge+3)+0
	comf	(___ftge@ff2+1),w
	movwf	((??___ftge+3)+0+1)
	comf	(___ftge@ff2+2),w
	movwf	((??___ftge+3)+0+2)
	incf	(??___ftge+3)+0,f
	skipnz
	incf	((??___ftge+3)+0+1),f
	skipnz
	incf	((??___ftge+3)+0+2),f
	movf	0+(??___ftge+3)+0,w
	addwf	(??___ftge+0)+0,f
	movf	1+(??___ftge+3)+0,w
	skipnc
	incfsz	1+(??___ftge+3)+0,w
	goto	u269_21
	goto	u269_22
u269_21:
	addwf	(??___ftge+0)+1,f
	
u269_22:
	movf	2+(??___ftge+3)+0,w
	skipnc
	incfsz	2+(??___ftge+3)+0,w
	goto	u269_23
	goto	u269_24
u269_23:
	addwf	(??___ftge+0)+2,f
	
u269_24:
	movf	0+(??___ftge+0)+0,w
	movwf	(___ftge@ff2)
	movf	1+(??___ftge+0)+0,w
	movwf	(___ftge@ff2+1)
	movf	2+(??___ftge+0)+0,w
	movwf	(___ftge@ff2+2)
	goto	i1l2368
	
i1l778:	
	line	10
	
i1l2368:	
	movlw	080h
	xorwf	(___ftge@ff1+2),f
	line	11
	
i1l2370:	
	movlw	080h
	xorwf	(___ftge@ff2+2),f
	line	12
	
i1l2372:	
	movf	(___ftge@ff2+2),w
	subwf	(___ftge@ff1+2),w
	skipz
	goto	u270_25
	movf	(___ftge@ff2+1),w
	subwf	(___ftge@ff1+1),w
	skipz
	goto	u270_25
	movf	(___ftge@ff2),w
	subwf	(___ftge@ff1),w
u270_25:
	skipnc
	goto	u270_21
	goto	u270_20
u270_21:
	goto	i1l2376
u270_20:
	
i1l2374:	
	clrc
	
	goto	i1l779
	
i1l2144:	
	
i1l2376:	
	setc
	
	goto	i1l779
	
i1l2146:	
	goto	i1l779
	
i1l2378:	
	line	13
	
i1l779:	
	return
	opt stack 0
GLOBAL	__end_of___ftge
	__end_of___ftge:
	signat	___ftge,8312
	global	_abs

;; *************** function _abs *****************
;; Defined at:
;;		line 4 in file "C:\Program Files (x86)\Microchip\xc8\v1.33\sources\common\abs.c"
;; Parameters:    Size  Location     Type
;;  a               2    0[COMMON] int 
;; Auto vars:     Size  Location     Type
;;		None
;; Return value:  Size  Location     Type
;;                  2    0[COMMON] int 
;; Registers used:
;;		wreg, status,2, status,0
;; Tracked objects:
;;		On entry : 0/0
;;		On exit  : 0/0
;;		Unchanged: 0/0
;; Data sizes:     COMMON   BANK0   BANK1   BANK3   BANK2
;;      Params:         2       0       0       0       0
;;      Locals:         0       0       0       0       0
;;      Temps:          2       0       0       0       0
;;      Totals:         4       0       0       0       0
;;Total ram usage:        4 bytes
;; Hardware stack levels used:    1
;; This function calls:
;;		Nothing
;; This function is called by:
;;		_ISR
;; This function uses a non-reentrant model
;;
psect	text32,local,class=CODE,delta=2,merge=1
	file	"C:\Program Files (x86)\Microchip\xc8\v1.33\sources\common\abs.c"
	line	4
global __ptext32
__ptext32:	;psect for function _abs
psect	text32
	file	"C:\Program Files (x86)\Microchip\xc8\v1.33\sources\common\abs.c"
	line	4
	global	__size_of_abs
	__size_of_abs	equ	__end_of_abs-_abs
	
_abs:	
;incstack = 0
	opt	stack 4
; Regs used in _abs: [wreg+status,2+status,0]
	line	6
	
i1l2546:	
	btfss	(abs@a+1),7
	goto	u300_21
	goto	u300_20
u300_21:
	goto	i1l608
u300_20:
	line	7
	
i1l2548:	
	comf	(abs@a),w
	movwf	(??_abs+0)+0
	comf	(abs@a+1),w
	movwf	((??_abs+0)+0+1)
	incf	(??_abs+0)+0,f
	skipnz
	incf	((??_abs+0)+0+1),f
	movf	0+(??_abs+0)+0,w
	movwf	(?_abs)
	movf	1+(??_abs+0)+0,w
	movwf	(?_abs+1)
	goto	i1l609
	
i1l2550:	
	goto	i1l609
	
i1l608:	
	line	8
	line	9
	
i1l609:	
	return
	opt stack 0
GLOBAL	__end_of_abs
	__end_of_abs:
	signat	_abs,4218
	global	___wmul

;; *************** function ___wmul *****************
;; Defined at:
;;		line 15 in file "C:\Program Files (x86)\Microchip\xc8\v1.33\sources\common\Umul16.c"
;; Parameters:    Size  Location     Type
;;  multiplier      2   32[BANK0 ] unsigned int 
;;  multiplicand    2   34[BANK0 ] unsigned int 
;; Auto vars:     Size  Location     Type
;;  product         2   36[BANK0 ] unsigned int 
;; Return value:  Size  Location     Type
;;                  2   32[BANK0 ] unsigned int 
;; Registers used:
;;		wreg, status,2, status,0
;; Tracked objects:
;;		On entry : 0/0
;;		On exit  : 0/0
;;		Unchanged: 0/0
;; Data sizes:     COMMON   BANK0   BANK1   BANK3   BANK2
;;      Params:         0       4       0       0       0
;;      Locals:         0       2       0       0       0
;;      Temps:          0       0       0       0       0
;;      Totals:         0       6       0       0       0
;;Total ram usage:        6 bytes
;; Hardware stack levels used:    1
;; This function calls:
;;		Nothing
;; This function is called by:
;;		_ISR
;; This function uses a non-reentrant model
;;
psect	text33,local,class=CODE,delta=2,merge=1
	file	"C:\Program Files (x86)\Microchip\xc8\v1.33\sources\common\Umul16.c"
	line	15
global __ptext33
__ptext33:	;psect for function ___wmul
psect	text33
	file	"C:\Program Files (x86)\Microchip\xc8\v1.33\sources\common\Umul16.c"
	line	15
	global	__size_of___wmul
	__size_of___wmul	equ	__end_of___wmul-___wmul
	
___wmul:	
;incstack = 0
	opt	stack 4
; Regs used in ___wmul: [wreg+status,2+status,0]
	line	43
	
i1l2686:	
	bcf	status, 5	;RP0=0, select bank0
	bcf	status, 6	;RP1=0, select bank0
	clrf	(___wmul@product)
	clrf	(___wmul@product+1)
	goto	i1l2688
	line	44
	
i1l558:	
	line	45
	
i1l2688:	
	btfss	(___wmul@multiplier),(0)&7
	goto	u306_21
	goto	u306_20
u306_21:
	goto	i1l559
u306_20:
	line	46
	
i1l2690:	
	movf	(___wmul@multiplicand),w
	addwf	(___wmul@product),f
	skipnc
	incf	(___wmul@product+1),f
	movf	(___wmul@multiplicand+1),w
	addwf	(___wmul@product+1),f
	
i1l559:	
	line	47
	movlw	01h
	
u307_25:
	clrc
	rlf	(___wmul@multiplicand),f
	rlf	(___wmul@multiplicand+1),f
	addlw	-1
	skipz
	goto	u307_25
	line	48
	
i1l2692:	
	movlw	01h
	
u308_25:
	clrc
	rrf	(___wmul@multiplier+1),f
	rrf	(___wmul@multiplier),f
	addlw	-1
	skipz
	goto	u308_25
	line	49
	movf	((___wmul@multiplier+1)),w
	iorwf	((___wmul@multiplier)),w
	skipz
	goto	u309_21
	goto	u309_20
u309_21:
	goto	i1l2688
u309_20:
	goto	i1l2694
	
i1l560:	
	line	52
	
i1l2694:	
	movf	(___wmul@product+1),w
	clrf	(?___wmul+1)
	addwf	(?___wmul+1)
	movf	(___wmul@product),w
	clrf	(?___wmul)
	addwf	(?___wmul)

	goto	i1l561
	
i1l2696:	
	line	53
	
i1l561:	
	return
	opt stack 0
GLOBAL	__end_of___wmul
	__end_of___wmul:
	signat	___wmul,8314
	global	___lwtoft

;; *************** function ___lwtoft *****************
;; Defined at:
;;		line 28 in file "C:\Program Files (x86)\Microchip\xc8\v1.33\sources\common\lwtoft.c"
;; Parameters:    Size  Location     Type
;;  c               2   38[BANK0 ] unsigned int 
;; Auto vars:     Size  Location     Type
;;		None
;; Return value:  Size  Location     Type
;;                  3   38[BANK0 ] float 
;; Registers used:
;;		wreg, status,2, status,0, pclath, cstack
;; Tracked objects:
;;		On entry : 0/0
;;		On exit  : 0/0
;;		Unchanged: 0/0
;; Data sizes:     COMMON   BANK0   BANK1   BANK3   BANK2
;;      Params:         0       3       0       0       0
;;      Locals:         0       0       0       0       0
;;      Temps:          0       1       0       0       0
;;      Totals:         0       4       0       0       0
;;Total ram usage:        4 bytes
;; Hardware stack levels used:    1
;; Hardware stack levels required when called:    1
;; This function calls:
;;		___ftpack
;; This function is called by:
;;		_ISR
;; This function uses a non-reentrant model
;;
psect	text34,local,class=CODE,delta=2,merge=1
	file	"C:\Program Files (x86)\Microchip\xc8\v1.33\sources\common\lwtoft.c"
	line	28
global __ptext34
__ptext34:	;psect for function ___lwtoft
psect	text34
	file	"C:\Program Files (x86)\Microchip\xc8\v1.33\sources\common\lwtoft.c"
	line	28
	global	__size_of___lwtoft
	__size_of___lwtoft	equ	__end_of___lwtoft-___lwtoft
	
___lwtoft:	
;incstack = 0
	opt	stack 3
; Regs used in ___lwtoft: [wreg+status,2+status,0+pclath+cstack]
	line	30
	
i1l2820:	
	bcf	status, 5	;RP0=0, select bank0
	bcf	status, 6	;RP1=0, select bank0
	movf	(___lwtoft@c),w
	movwf	(___ftpack@arg)
	movf	(___lwtoft@c+1),w
	movwf	(___ftpack@arg+1)
	clrf	(___ftpack@arg+2)
	movlw	(08Eh)
	movwf	(??___lwtoft+0)+0
	movf	(??___lwtoft+0)+0,w
	movwf	(___ftpack@exp)
	clrf	(___ftpack@sign)
	fcall	___ftpack
	movf	(0+(?___ftpack)),w
	bcf	status, 5	;RP0=0, select bank0
	bcf	status, 6	;RP1=0, select bank0
	movwf	(?___lwtoft)
	movf	(1+(?___ftpack)),w
	movwf	(?___lwtoft+1)
	movf	(2+(?___ftpack)),w
	movwf	(?___lwtoft+2)
	goto	i1l914
	
i1l2822:	
	line	31
	
i1l914:	
	return
	opt stack 0
GLOBAL	__end_of___lwtoft
	__end_of___lwtoft:
	signat	___lwtoft,4219
	global	___fttol

;; *************** function ___fttol *****************
;; Defined at:
;;		line 44 in file "C:\Program Files (x86)\Microchip\xc8\v1.33\sources\common\fttol.c"
;; Parameters:    Size  Location     Type
;;  f1              3   18[BANK0 ] float 
;; Auto vars:     Size  Location     Type
;;  lval            4   27[BANK0 ] unsigned long 
;;  exp1            1   31[BANK0 ] unsigned char 
;;  sign1           1   26[BANK0 ] unsigned char 
;; Return value:  Size  Location     Type
;;                  4   18[BANK0 ] long 
;; Registers used:
;;		wreg, status,2, status,0
;; Tracked objects:
;;		On entry : 0/0
;;		On exit  : 0/0
;;		Unchanged: 0/0
;; Data sizes:     COMMON   BANK0   BANK1   BANK3   BANK2
;;      Params:         0       4       0       0       0
;;      Locals:         0       6       0       0       0
;;      Temps:          0       4       0       0       0
;;      Totals:         0      14       0       0       0
;;Total ram usage:       14 bytes
;; Hardware stack levels used:    1
;; This function calls:
;;		Nothing
;; This function is called by:
;;		_ISR
;; This function uses a non-reentrant model
;;
psect	text35,local,class=CODE,delta=2,merge=1
	file	"C:\Program Files (x86)\Microchip\xc8\v1.33\sources\common\fttol.c"
	line	44
global __ptext35
__ptext35:	;psect for function ___fttol
psect	text35
	file	"C:\Program Files (x86)\Microchip\xc8\v1.33\sources\common\fttol.c"
	line	44
	global	__size_of___fttol
	__size_of___fttol	equ	__end_of___fttol-___fttol
	
___fttol:	
;incstack = 0
	opt	stack 4
; Regs used in ___fttol: [wreg+status,2+status,0]
	line	49
	
i1l2776:	
	bcf	status, 5	;RP0=0, select bank0
	bcf	status, 6	;RP1=0, select bank0
	movf	(___fttol@f1),w
	movwf	((??___fttol+0)+0)
	movf	(___fttol@f1+1),w
	movwf	((??___fttol+0)+0+1)
	movf	(___fttol@f1+2),w
	movwf	((??___fttol+0)+0+2)
	clrc
	rlf	(??___fttol+0)+1,w
	rlf	(??___fttol+0)+2,w
	movwf	(??___fttol+3)+0
	movf	(??___fttol+3)+0,w
	movwf	(___fttol@exp1)
	movf	((___fttol@exp1)),f
	skipz
	goto	u327_21
	goto	u327_20
u327_21:
	goto	i1l2782
u327_20:
	line	50
	
i1l2778:	
	movlw	0
	movwf	(?___fttol+3)
	movlw	0
	movwf	(?___fttol+2)
	movlw	0
	movwf	(?___fttol+1)
	movlw	0
	movwf	(?___fttol)

	goto	i1l805
	
i1l2780:	
	goto	i1l805
	
i1l804:	
	line	51
	
i1l2782:	
	movf	(___fttol@f1),w
	movwf	((??___fttol+0)+0)
	movf	(___fttol@f1+1),w
	movwf	((??___fttol+0)+0+1)
	movf	(___fttol@f1+2),w
	movwf	((??___fttol+0)+0+2)
	movlw	017h
u328_25:
	clrc
	rrf	(??___fttol+0)+2,f
	rrf	(??___fttol+0)+1,f
	rrf	(??___fttol+0)+0,f
u328_20:
	addlw	-1
	skipz
	goto	u328_25
	movf	0+(??___fttol+0)+0,w
	movwf	(??___fttol+3)+0
	movf	(??___fttol+3)+0,w
	movwf	(___fttol@sign1)
	line	52
	
i1l2784:	
	bsf	(___fttol@f1)+(15/8),(15)&7
	line	53
	
i1l2786:	
	movlw	0FFh
	andwf	(___fttol@f1),f
	movlw	0FFh
	andwf	(___fttol@f1+1),f
	movlw	0
	andwf	(___fttol@f1+2),f
	line	54
	
i1l2788:	
	movf	(___fttol@f1),w
	movwf	(___fttol@lval)
	movf	(___fttol@f1+1),w
	movwf	((___fttol@lval))+1
	movf	(___fttol@f1+2),w
	movwf	((___fttol@lval))+2
	clrf	((___fttol@lval))+3
	line	55
	
i1l2790:	
	movlw	low(08Eh)
	subwf	(___fttol@exp1),f
	line	56
	
i1l2792:	
	btfss	(___fttol@exp1),7
	goto	u329_21
	goto	u329_20
u329_21:
	goto	i1l2802
u329_20:
	line	57
	
i1l2794:	
	movf	(___fttol@exp1),w
	xorlw	80h
	addlw	-((-15)^80h)
	skipnc
	goto	u330_21
	goto	u330_20
u330_21:
	goto	i1l2800
u330_20:
	line	58
	
i1l2796:	
	movlw	0
	movwf	(?___fttol+3)
	movlw	0
	movwf	(?___fttol+2)
	movlw	0
	movwf	(?___fttol+1)
	movlw	0
	movwf	(?___fttol)

	goto	i1l805
	
i1l2798:	
	goto	i1l805
	
i1l807:	
	goto	i1l2800
	line	59
	
i1l808:	
	line	60
	
i1l2800:	
	movlw	01h
u331_25:
	clrc
	rrf	(___fttol@lval+3),f
	rrf	(___fttol@lval+2),f
	rrf	(___fttol@lval+1),f
	rrf	(___fttol@lval),f
	addlw	-1
	skipz
	goto	u331_25

	line	61
	movlw	(01h)
	movwf	(??___fttol+0)+0
	movf	(??___fttol+0)+0,w
	addwf	(___fttol@exp1),f
	btfss	status,2
	goto	u332_21
	goto	u332_20
u332_21:
	goto	i1l2800
u332_20:
	goto	i1l2812
	
i1l809:	
	line	62
	goto	i1l2812
	
i1l806:	
	line	63
	
i1l2802:	
	movlw	(018h)
	subwf	(___fttol@exp1),w
	skipc
	goto	u333_21
	goto	u333_20
u333_21:
	goto	i1l2810
u333_20:
	line	64
	
i1l2804:	
	movlw	0
	movwf	(?___fttol+3)
	movlw	0
	movwf	(?___fttol+2)
	movlw	0
	movwf	(?___fttol+1)
	movlw	0
	movwf	(?___fttol)

	goto	i1l805
	
i1l2806:	
	goto	i1l805
	
i1l811:	
	line	65
	goto	i1l2810
	
i1l813:	
	line	66
	
i1l2808:	
	movlw	01h
	movwf	(??___fttol+0)+0
u334_25:
	clrc
	rlf	(___fttol@lval),f
	rlf	(___fttol@lval+1),f
	rlf	(___fttol@lval+2),f
	rlf	(___fttol@lval+3),f
	decfsz	(??___fttol+0)+0
	goto	u334_25
	line	67
	movlw	low(01h)
	subwf	(___fttol@exp1),f
	goto	i1l2810
	line	68
	
i1l812:	
	line	65
	
i1l2810:	
	movf	(___fttol@exp1),f
	skipz
	goto	u335_21
	goto	u335_20
u335_21:
	goto	i1l2808
u335_20:
	goto	i1l2812
	
i1l814:	
	goto	i1l2812
	line	69
	
i1l810:	
	line	70
	
i1l2812:	
	movf	(___fttol@sign1),w
	skipz
	goto	u336_20
	goto	i1l2816
u336_20:
	line	71
	
i1l2814:	
	comf	(___fttol@lval),f
	comf	(___fttol@lval+1),f
	comf	(___fttol@lval+2),f
	comf	(___fttol@lval+3),f
	incf	(___fttol@lval),f
	skipnz
	incf	(___fttol@lval+1),f
	skipnz
	incf	(___fttol@lval+2),f
	skipnz
	incf	(___fttol@lval+3),f
	goto	i1l2816
	
i1l815:	
	line	72
	
i1l2816:	
	movf	(___fttol@lval+3),w
	movwf	(?___fttol+3)
	movf	(___fttol@lval+2),w
	movwf	(?___fttol+2)
	movf	(___fttol@lval+1),w
	movwf	(?___fttol+1)
	movf	(___fttol@lval),w
	movwf	(?___fttol)

	goto	i1l805
	
i1l2818:	
	line	73
	
i1l805:	
	return
	opt stack 0
GLOBAL	__end_of___fttol
	__end_of___fttol:
	signat	___fttol,4220
	global	___ftmul

;; *************** function ___ftmul *****************
;; Defined at:
;;		line 62 in file "C:\Program Files (x86)\Microchip\xc8\v1.33\sources\common\ftmul.c"
;; Parameters:    Size  Location     Type
;;  f1              3   50[BANK0 ] float 
;;  f2              3   53[BANK0 ] float 
;; Auto vars:     Size  Location     Type
;;  f3_as_produc    3   61[BANK0 ] unsigned um
;;  sign            1   65[BANK0 ] unsigned char 
;;  cntr            1   64[BANK0 ] unsigned char 
;;  exp             1   60[BANK0 ] unsigned char 
;; Return value:  Size  Location     Type
;;                  3   50[BANK0 ] float 
;; Registers used:
;;		wreg, status,2, status,0, pclath, cstack
;; Tracked objects:
;;		On entry : 0/0
;;		On exit  : 0/0
;;		Unchanged: 0/0
;; Data sizes:     COMMON   BANK0   BANK1   BANK3   BANK2
;;      Params:         0       6       0       0       0
;;      Locals:         0       6       0       0       0
;;      Temps:          0       4       0       0       0
;;      Totals:         0      16       0       0       0
;;Total ram usage:       16 bytes
;; Hardware stack levels used:    1
;; Hardware stack levels required when called:    1
;; This function calls:
;;		___ftpack
;; This function is called by:
;;		_ISR
;; This function uses a non-reentrant model
;;
psect	text36,local,class=CODE,delta=2,merge=1
	file	"C:\Program Files (x86)\Microchip\xc8\v1.33\sources\common\ftmul.c"
	line	62
global __ptext36
__ptext36:	;psect for function ___ftmul
psect	text36
	file	"C:\Program Files (x86)\Microchip\xc8\v1.33\sources\common\ftmul.c"
	line	62
	global	__size_of___ftmul
	__size_of___ftmul	equ	__end_of___ftmul-___ftmul
	
___ftmul:	
;incstack = 0
	opt	stack 3
; Regs used in ___ftmul: [wreg+status,2+status,0+pclath+cstack]
	line	67
	
i1l2726:	
	bcf	status, 5	;RP0=0, select bank0
	bcf	status, 6	;RP1=0, select bank0
	movf	(___ftmul@f1),w
	movwf	((??___ftmul+0)+0)
	movf	(___ftmul@f1+1),w
	movwf	((??___ftmul+0)+0+1)
	movf	(___ftmul@f1+2),w
	movwf	((??___ftmul+0)+0+2)
	clrc
	rlf	(??___ftmul+0)+1,w
	rlf	(??___ftmul+0)+2,w
	movwf	(??___ftmul+3)+0
	movf	(??___ftmul+3)+0,w
	movwf	(___ftmul@exp)
	movf	((___ftmul@exp)),f
	skipz
	goto	u313_21
	goto	u313_20
u313_21:
	goto	i1l2732
u313_20:
	line	68
	
i1l2728:	
	movlw	0x0
	movwf	(?___ftmul)
	movlw	0x0
	movwf	(?___ftmul+1)
	movlw	0x0
	movwf	(?___ftmul+2)
	goto	i1l785
	
i1l2730:	
	goto	i1l785
	
i1l784:	
	line	69
	
i1l2732:	
	movf	(___ftmul@f2),w
	movwf	((??___ftmul+0)+0)
	movf	(___ftmul@f2+1),w
	movwf	((??___ftmul+0)+0+1)
	movf	(___ftmul@f2+2),w
	movwf	((??___ftmul+0)+0+2)
	clrc
	rlf	(??___ftmul+0)+1,w
	rlf	(??___ftmul+0)+2,w
	movwf	(??___ftmul+3)+0
	movf	(??___ftmul+3)+0,w
	movwf	(___ftmul@sign)
	movf	((___ftmul@sign)),f
	skipz
	goto	u314_21
	goto	u314_20
u314_21:
	goto	i1l2738
u314_20:
	line	70
	
i1l2734:	
	movlw	0x0
	movwf	(?___ftmul)
	movlw	0x0
	movwf	(?___ftmul+1)
	movlw	0x0
	movwf	(?___ftmul+2)
	goto	i1l785
	
i1l2736:	
	goto	i1l785
	
i1l786:	
	line	71
	
i1l2738:	
	movf	(___ftmul@sign),w
	addlw	07Bh
	movwf	(??___ftmul+0)+0
	movf	(??___ftmul+0)+0,w
	addwf	(___ftmul@exp),f
	line	72
	movf	(___ftmul@f1),w
	movwf	((??___ftmul+0)+0)
	movf	(___ftmul@f1+1),w
	movwf	((??___ftmul+0)+0+1)
	movf	(___ftmul@f1+2),w
	movwf	((??___ftmul+0)+0+2)
	movlw	010h
u315_25:
	clrc
	rrf	(??___ftmul+0)+2,f
	rrf	(??___ftmul+0)+1,f
	rrf	(??___ftmul+0)+0,f
u315_20:
	addlw	-1
	skipz
	goto	u315_25
	movf	0+(??___ftmul+0)+0,w
	movwf	(??___ftmul+3)+0
	movf	(??___ftmul+3)+0,w
	movwf	(___ftmul@sign)
	line	73
	movf	(___ftmul@f2),w
	movwf	((??___ftmul+0)+0)
	movf	(___ftmul@f2+1),w
	movwf	((??___ftmul+0)+0+1)
	movf	(___ftmul@f2+2),w
	movwf	((??___ftmul+0)+0+2)
	movlw	010h
u316_25:
	clrc
	rrf	(??___ftmul+0)+2,f
	rrf	(??___ftmul+0)+1,f
	rrf	(??___ftmul+0)+0,f
u316_20:
	addlw	-1
	skipz
	goto	u316_25
	movf	0+(??___ftmul+0)+0,w
	movwf	(??___ftmul+3)+0
	movf	(??___ftmul+3)+0,w
	xorwf	(___ftmul@sign),f
	line	74
	movlw	(080h)
	movwf	(??___ftmul+0)+0
	movf	(??___ftmul+0)+0,w
	andwf	(___ftmul@sign),f
	line	75
	
i1l2740:	
	bsf	(___ftmul@f1)+(15/8),(15)&7
	line	77
	
i1l2742:	
	bsf	(___ftmul@f2)+(15/8),(15)&7
	line	78
	
i1l2744:	
	movlw	0FFh
	andwf	(___ftmul@f2),f
	movlw	0FFh
	andwf	(___ftmul@f2+1),f
	movlw	0
	andwf	(___ftmul@f2+2),f
	line	79
	
i1l2746:	
	movlw	0
	movwf	(___ftmul@f3_as_product)
	movlw	0
	movwf	(___ftmul@f3_as_product+1)
	movlw	0
	movwf	(___ftmul@f3_as_product+2)
	line	134
	
i1l2748:	
	movlw	(07h)
	movwf	(??___ftmul+0)+0
	movf	(??___ftmul+0)+0,w
	movwf	(___ftmul@cntr)
	goto	i1l2750
	line	135
	
i1l787:	
	line	136
	
i1l2750:	
	btfss	(___ftmul@f1),(0)&7
	goto	u317_21
	goto	u317_20
u317_21:
	goto	i1l2754
u317_20:
	line	137
	
i1l2752:	
	movf	(___ftmul@f2),w
	addwf	(___ftmul@f3_as_product),f
	movf	(___ftmul@f2+1),w
	clrz
	skipnc
	incf	(___ftmul@f2+1),w
	skipnz
	goto	u318_21
	addwf	(___ftmul@f3_as_product+1),f
u318_21:
	movf	(___ftmul@f2+2),w
	clrz
	skipnc
	incf	(___ftmul@f2+2),w
	skipnz
	goto	u318_22
	addwf	(___ftmul@f3_as_product+2),f
u318_22:

	goto	i1l2754
	
i1l788:	
	line	138
	
i1l2754:	
	movlw	01h
u319_25:
	clrc
	rrf	(___ftmul@f1+2),f
	rrf	(___ftmul@f1+1),f
	rrf	(___ftmul@f1),f
	addlw	-1
	skipz
	goto	u319_25

	line	139
	
i1l2756:	
	movlw	01h
u320_25:
	clrc
	rlf	(___ftmul@f2),f
	rlf	(___ftmul@f2+1),f
	rlf	(___ftmul@f2+2),f
	addlw	-1
	skipz
	goto	u320_25
	line	140
	
i1l2758:	
	movlw	low(01h)
	subwf	(___ftmul@cntr),f
	btfss	status,2
	goto	u321_21
	goto	u321_20
u321_21:
	goto	i1l2750
u321_20:
	goto	i1l2760
	
i1l789:	
	line	143
	
i1l2760:	
	movlw	(09h)
	movwf	(??___ftmul+0)+0
	movf	(??___ftmul+0)+0,w
	movwf	(___ftmul@cntr)
	goto	i1l2762
	line	144
	
i1l790:	
	line	145
	
i1l2762:	
	btfss	(___ftmul@f1),(0)&7
	goto	u322_21
	goto	u322_20
u322_21:
	goto	i1l2766
u322_20:
	line	146
	
i1l2764:	
	movf	(___ftmul@f2),w
	addwf	(___ftmul@f3_as_product),f
	movf	(___ftmul@f2+1),w
	clrz
	skipnc
	incf	(___ftmul@f2+1),w
	skipnz
	goto	u323_21
	addwf	(___ftmul@f3_as_product+1),f
u323_21:
	movf	(___ftmul@f2+2),w
	clrz
	skipnc
	incf	(___ftmul@f2+2),w
	skipnz
	goto	u323_22
	addwf	(___ftmul@f3_as_product+2),f
u323_22:

	goto	i1l2766
	
i1l791:	
	line	147
	
i1l2766:	
	movlw	01h
u324_25:
	clrc
	rrf	(___ftmul@f1+2),f
	rrf	(___ftmul@f1+1),f
	rrf	(___ftmul@f1),f
	addlw	-1
	skipz
	goto	u324_25

	line	148
	
i1l2768:	
	movlw	01h
u325_25:
	clrc
	rrf	(___ftmul@f3_as_product+2),f
	rrf	(___ftmul@f3_as_product+1),f
	rrf	(___ftmul@f3_as_product),f
	addlw	-1
	skipz
	goto	u325_25

	line	149
	
i1l2770:	
	movlw	low(01h)
	subwf	(___ftmul@cntr),f
	btfss	status,2
	goto	u326_21
	goto	u326_20
u326_21:
	goto	i1l2762
u326_20:
	goto	i1l2772
	
i1l792:	
	line	156
	
i1l2772:	
	movf	(___ftmul@f3_as_product),w
	movwf	(___ftpack@arg)
	movf	(___ftmul@f3_as_product+1),w
	movwf	(___ftpack@arg+1)
	movf	(___ftmul@f3_as_product+2),w
	movwf	(___ftpack@arg+2)
	movf	(___ftmul@exp),w
	movwf	(??___ftmul+0)+0
	movf	(??___ftmul+0)+0,w
	movwf	(___ftpack@exp)
	movf	(___ftmul@sign),w
	movwf	(??___ftmul+1)+0
	movf	(??___ftmul+1)+0,w
	movwf	(___ftpack@sign)
	fcall	___ftpack
	movf	(0+(?___ftpack)),w
	bcf	status, 5	;RP0=0, select bank0
	bcf	status, 6	;RP1=0, select bank0
	movwf	(?___ftmul)
	movf	(1+(?___ftpack)),w
	movwf	(?___ftmul+1)
	movf	(2+(?___ftpack)),w
	movwf	(?___ftmul+2)
	goto	i1l785
	
i1l2774:	
	line	157
	
i1l785:	
	return
	opt stack 0
GLOBAL	__end_of___ftmul
	__end_of___ftmul:
	signat	___ftmul,8315
	global	___bmul

;; *************** function ___bmul *****************
;; Defined at:
;;		line 4 in file "C:\Program Files (x86)\Microchip\xc8\v1.33\sources\common\Umul8.c"
;; Parameters:    Size  Location     Type
;;  multiplier      1    wreg     unsigned char 
;;  multiplicand    1    0[COMMON] unsigned char 
;; Auto vars:     Size  Location     Type
;;  multiplier      1    3[COMMON] unsigned char 
;;  product         1    2[COMMON] unsigned char 
;; Return value:  Size  Location     Type
;;                  1    wreg      unsigned char 
;; Registers used:
;;		wreg, status,2, status,0
;; Tracked objects:
;;		On entry : 0/0
;;		On exit  : 0/0
;;		Unchanged: 0/0
;; Data sizes:     COMMON   BANK0   BANK1   BANK3   BANK2
;;      Params:         1       0       0       0       0
;;      Locals:         2       0       0       0       0
;;      Temps:          1       0       0       0       0
;;      Totals:         4       0       0       0       0
;;Total ram usage:        4 bytes
;; Hardware stack levels used:    1
;; This function calls:
;;		Nothing
;; This function is called by:
;;		_ISR
;; This function uses a non-reentrant model
;;
psect	text37,local,class=CODE,delta=2,merge=1
	file	"C:\Program Files (x86)\Microchip\xc8\v1.33\sources\common\Umul8.c"
	line	4
global __ptext37
__ptext37:	;psect for function ___bmul
psect	text37
	file	"C:\Program Files (x86)\Microchip\xc8\v1.33\sources\common\Umul8.c"
	line	4
	global	__size_of___bmul
	__size_of___bmul	equ	__end_of___bmul-___bmul
	
___bmul:	
;incstack = 0
	opt	stack 4
; Regs used in ___bmul: [wreg+status,2+status,0]
;___bmul@multiplier stored from wreg
	movwf	(___bmul@multiplier)
	line	6
	
i1l2698:	
	clrf	(___bmul@product)
	goto	i1l2700
	line	42
	
i1l576:	
	line	43
	
i1l2700:	
	btfss	(___bmul@multiplier),(0)&7
	goto	u310_21
	goto	u310_20
u310_21:
	goto	i1l2704
u310_20:
	line	44
	
i1l2702:	
	movf	(___bmul@multiplicand),w
	movwf	(??___bmul+0)+0
	movf	(??___bmul+0)+0,w
	addwf	(___bmul@product),f
	goto	i1l2704
	
i1l577:	
	line	45
	
i1l2704:	
	clrc
	rlf	(___bmul@multiplicand),f

	line	46
	
i1l2706:	
	clrc
	rrf	(___bmul@multiplier),f

	line	47
	
i1l2708:	
	movf	(___bmul@multiplier),f
	skipz
	goto	u311_21
	goto	u311_20
u311_21:
	goto	i1l2700
u311_20:
	goto	i1l2710
	
i1l578:	
	line	50
	
i1l2710:	
	movf	(___bmul@product),w
	goto	i1l579
	
i1l2712:	
	line	51
	
i1l579:	
	return
	opt stack 0
GLOBAL	__end_of___bmul
	__end_of___bmul:
	signat	___bmul,8313
	global	___awtoft

;; *************** function ___awtoft *****************
;; Defined at:
;;		line 32 in file "C:\Program Files (x86)\Microchip\xc8\v1.33\sources\common\awtoft.c"
;; Parameters:    Size  Location     Type
;;  c               2    8[COMMON] int 
;; Auto vars:     Size  Location     Type
;;  sign            1   13[COMMON] unsigned char 
;; Return value:  Size  Location     Type
;;                  3    8[COMMON] float 
;; Registers used:
;;		wreg, status,2, status,0, pclath, cstack
;; Tracked objects:
;;		On entry : 0/0
;;		On exit  : 0/0
;;		Unchanged: 0/0
;; Data sizes:     COMMON   BANK0   BANK1   BANK3   BANK2
;;      Params:         3       0       0       0       0
;;      Locals:         1       0       0       0       0
;;      Temps:          2       0       0       0       0
;;      Totals:         6       0       0       0       0
;;Total ram usage:        6 bytes
;; Hardware stack levels used:    1
;; Hardware stack levels required when called:    1
;; This function calls:
;;		___ftpack
;; This function is called by:
;;		_ISR
;; This function uses a non-reentrant model
;;
psect	text38,local,class=CODE,delta=2,merge=1
	file	"C:\Program Files (x86)\Microchip\xc8\v1.33\sources\common\awtoft.c"
	line	32
global __ptext38
__ptext38:	;psect for function ___awtoft
psect	text38
	file	"C:\Program Files (x86)\Microchip\xc8\v1.33\sources\common\awtoft.c"
	line	32
	global	__size_of___awtoft
	__size_of___awtoft	equ	__end_of___awtoft-___awtoft
	
___awtoft:	
;incstack = 0
	opt	stack 3
; Regs used in ___awtoft: [wreg+status,2+status,0+pclath+cstack]
	line	36
	
i1l2714:	
	clrf	(___awtoft@sign)
	line	37
	
i1l2716:	
	btfss	(___awtoft@c+1),7
	goto	u312_21
	goto	u312_20
u312_21:
	goto	i1l2722
u312_20:
	line	38
	
i1l2718:	
	comf	(___awtoft@c),f
	comf	(___awtoft@c+1),f
	incf	(___awtoft@c),f
	skipnz
	incf	(___awtoft@c+1),f
	line	39
	
i1l2720:	
	clrf	(___awtoft@sign)
	incf	(___awtoft@sign),f
	goto	i1l2722
	line	40
	
i1l713:	
	line	41
	
i1l2722:	
	movf	(___awtoft@c),w
	movwf	(___ftpack@arg)
	movf	(___awtoft@c+1),w
	movwf	(___ftpack@arg+1)
	clrf	(___ftpack@arg+2)
	movlw	(08Eh)
	movwf	(??___awtoft+0)+0
	movf	(??___awtoft+0)+0,w
	movwf	(___ftpack@exp)
	movf	(___awtoft@sign),w
	movwf	(??___awtoft+1)+0
	movf	(??___awtoft+1)+0,w
	movwf	(___ftpack@sign)
	fcall	___ftpack
	movf	(0+(?___ftpack)),w
	movwf	(?___awtoft)
	movf	(1+(?___ftpack)),w
	movwf	(?___awtoft+1)
	movf	(2+(?___ftpack)),w
	movwf	(?___awtoft+2)
	goto	i1l714
	
i1l2724:	
	line	42
	
i1l714:	
	return
	opt stack 0
GLOBAL	__end_of___awtoft
	__end_of___awtoft:
	signat	___awtoft,4219
	global	___ftpack

;; *************** function ___ftpack *****************
;; Defined at:
;;		line 62 in file "C:\Program Files (x86)\Microchip\xc8\v1.33\sources\common\float.c"
;; Parameters:    Size  Location     Type
;;  arg             3    0[COMMON] unsigned um
;;  exp             1    3[COMMON] unsigned char 
;;  sign            1    4[COMMON] unsigned char 
;; Auto vars:     Size  Location     Type
;;		None
;; Return value:  Size  Location     Type
;;                  3    0[COMMON] float 
;; Registers used:
;;		wreg, status,2, status,0
;; Tracked objects:
;;		On entry : 0/0
;;		On exit  : 0/0
;;		Unchanged: 0/0
;; Data sizes:     COMMON   BANK0   BANK1   BANK3   BANK2
;;      Params:         5       0       0       0       0
;;      Locals:         0       0       0       0       0
;;      Temps:          3       0       0       0       0
;;      Totals:         8       0       0       0       0
;;Total ram usage:        8 bytes
;; Hardware stack levels used:    1
;; This function calls:
;;		Nothing
;; This function is called by:
;;		___awtoft
;;		___ftadd
;;		___ftdiv
;;		___ftmul
;;		___lwtoft
;; This function uses a non-reentrant model
;;
psect	text39,local,class=CODE,delta=2,merge=1
	file	"C:\Program Files (x86)\Microchip\xc8\v1.33\sources\common\float.c"
	line	62
global __ptext39
__ptext39:	;psect for function ___ftpack
psect	text39
	file	"C:\Program Files (x86)\Microchip\xc8\v1.33\sources\common\float.c"
	line	62
	global	__size_of___ftpack
	__size_of___ftpack	equ	__end_of___ftpack-___ftpack
	
___ftpack:	
;incstack = 0
	opt	stack 2
; Regs used in ___ftpack: [wreg+status,2+status,0]
	line	64
	
i1l2152:	
	movf	(___ftpack@exp),w
	skipz
	goto	u212_20
	goto	i1l2156
u212_20:
	
i1l2154:	
	movf	(___ftpack@arg+2),w
	iorwf	(___ftpack@arg+1),w
	iorwf	(___ftpack@arg),w
	skipz
	goto	u213_21
	goto	u213_20
u213_21:
	goto	i1l2162
u213_20:
	goto	i1l2156
	
i1l719:	
	line	65
	
i1l2156:	
	movlw	0x0
	movwf	(?___ftpack)
	movlw	0x0
	movwf	(?___ftpack+1)
	movlw	0x0
	movwf	(?___ftpack+2)
	goto	i1l720
	
i1l2158:	
	goto	i1l720
	
i1l717:	
	line	66
	goto	i1l2162
	
i1l722:	
	line	67
	
i1l2160:	
	movlw	(01h)
	movwf	(??___ftpack+0)+0
	movf	(??___ftpack+0)+0,w
	addwf	(___ftpack@exp),f
	line	68
	movlw	01h
u214_25:
	clrc
	rrf	(___ftpack@arg+2),f
	rrf	(___ftpack@arg+1),f
	rrf	(___ftpack@arg),f
	addlw	-1
	skipz
	goto	u214_25

	goto	i1l2162
	line	69
	
i1l721:	
	line	66
	
i1l2162:	
	movlw	low highword(0FE0000h)
	andwf	(___ftpack@arg+2),w
	btfss	status,2
	goto	u215_21
	goto	u215_20
u215_21:
	goto	i1l2160
u215_20:
	goto	i1l724
	
i1l723:	
	line	70
	goto	i1l724
	
i1l725:	
	line	71
	
i1l2164:	
	movlw	(01h)
	movwf	(??___ftpack+0)+0
	movf	(??___ftpack+0)+0,w
	addwf	(___ftpack@exp),f
	line	72
	
i1l2166:	
	movlw	01h
	addwf	(___ftpack@arg),f
	movlw	0
	skipnc
movlw 1
	addwf	(___ftpack@arg+1),f
	movlw	0
	skipnc
movlw 1
	addwf	(___ftpack@arg+2),f
	line	73
	
i1l2168:	
	movlw	01h
u216_25:
	clrc
	rrf	(___ftpack@arg+2),f
	rrf	(___ftpack@arg+1),f
	rrf	(___ftpack@arg),f
	addlw	-1
	skipz
	goto	u216_25

	line	74
	
i1l724:	
	line	70
	movlw	low highword(0FF0000h)
	andwf	(___ftpack@arg+2),w
	btfss	status,2
	goto	u217_21
	goto	u217_20
u217_21:
	goto	i1l2164
u217_20:
	goto	i1l2172
	
i1l726:	
	line	75
	goto	i1l2172
	
i1l728:	
	line	76
	
i1l2170:	
	movlw	low(01h)
	subwf	(___ftpack@exp),f
	line	77
	movlw	01h
u218_25:
	clrc
	rlf	(___ftpack@arg),f
	rlf	(___ftpack@arg+1),f
	rlf	(___ftpack@arg+2),f
	addlw	-1
	skipz
	goto	u218_25
	goto	i1l2172
	line	78
	
i1l727:	
	line	75
	
i1l2172:	
	btfss	(___ftpack@arg+1),(15)&7
	goto	u219_21
	goto	u219_20
u219_21:
	goto	i1l2170
u219_20:
	
i1l729:	
	line	79
	btfsc	(___ftpack@exp),(0)&7
	goto	u220_21
	goto	u220_20
u220_21:
	goto	i1l730
u220_20:
	line	80
	
i1l2174:	
	movlw	0FFh
	andwf	(___ftpack@arg),f
	movlw	07Fh
	andwf	(___ftpack@arg+1),f
	movlw	0FFh
	andwf	(___ftpack@arg+2),f
	
i1l730:	
	line	81
	clrc
	rrf	(___ftpack@exp),f

	line	82
	
i1l2176:	
	movf	(___ftpack@exp),w
	movwf	((??___ftpack+0)+0)
	clrf	((??___ftpack+0)+0+1)
	clrf	((??___ftpack+0)+0+2)
	movlw	010h
u221_25:
	clrc
	rlf	(??___ftpack+0)+0,f
	rlf	(??___ftpack+0)+1,f
	rlf	(??___ftpack+0)+2,f
u221_20:
	addlw	-1
	skipz
	goto	u221_25
	movf	0+(??___ftpack+0)+0,w
	iorwf	(___ftpack@arg),f
	movf	1+(??___ftpack+0)+0,w
	iorwf	(___ftpack@arg+1),f
	movf	2+(??___ftpack+0)+0,w
	iorwf	(___ftpack@arg+2),f
	line	83
	
i1l2178:	
	movf	(___ftpack@sign),w
	skipz
	goto	u222_20
	goto	i1l731
u222_20:
	line	84
	
i1l2180:	
	bsf	(___ftpack@arg)+(23/8),(23)&7
	
i1l731:	
	line	85
	line	86
	
i1l720:	
	return
	opt stack 0
GLOBAL	__end_of___ftpack
	__end_of___ftpack:
	signat	___ftpack,12411
	global	_USART_ReceiveChar

;; *************** function _USART_ReceiveChar *****************
;; Defined at:
;;		line 63 in file "C:\Users\filip\programs\FuzzySI\firmware - Copia\usart.c"
;; Parameters:    Size  Location     Type
;;		None
;; Auto vars:     Size  Location     Type
;;  byte            1    4[COMMON] unsigned char 
;; Return value:  Size  Location     Type
;;                  1    wreg      unsigned char 
;; Registers used:
;;		wreg, fsr0l, fsr0h, status,2, status,0, pclath, cstack
;; Tracked objects:
;;		On entry : 0/0
;;		On exit  : 0/0
;;		Unchanged: 0/0
;; Data sizes:     COMMON   BANK0   BANK1   BANK3   BANK2
;;      Params:         0       0       0       0       0
;;      Locals:         1       0       0       0       0
;;      Temps:          1       0       0       0       0
;;      Totals:         2       0       0       0       0
;;Total ram usage:        2 bytes
;; Hardware stack levels used:    1
;; Hardware stack levels required when called:    2
;; This function calls:
;;		_USART_WriteString
;; This function is called by:
;;		_ISR
;; This function uses a non-reentrant model
;;
psect	text40,local,class=CODE,delta=2,merge=1
	file	"C:\Users\filip\programs\FuzzySI\firmware - Copia\usart.c"
	line	63
global __ptext40
__ptext40:	;psect for function _USART_ReceiveChar
psect	text40
	file	"C:\Users\filip\programs\FuzzySI\firmware - Copia\usart.c"
	line	63
	global	__size_of_USART_ReceiveChar
	__size_of_USART_ReceiveChar	equ	__end_of_USART_ReceiveChar-_USART_ReceiveChar
	
_USART_ReceiveChar:	
;incstack = 0
	opt	stack 2
; Regs used in _USART_ReceiveChar: [wreg-fsr0h+status,2+status,0+pclath+cstack]
	line	67
	
i1l2524:	
;usart.c: 65: unsigned char byte;
;usart.c: 67: if (!OERR)
	bcf	status, 5	;RP0=0, select bank0
	bcf	status, 6	;RP1=0, select bank0
	btfsc	(193/8),(193)&7	;volatile
	goto	u299_21
	goto	u299_20
u299_21:
	goto	i1l2530
u299_20:
	line	69
	
i1l2526:	
;usart.c: 68: {
;usart.c: 69: byte = RCREG;
	movf	(26),w	;volatile
	movwf	(??_USART_ReceiveChar+0)+0
	movf	(??_USART_ReceiveChar+0)+0,w
	movwf	(USART_ReceiveChar@byte)
	line	70
	
i1l2528:	
;usart.c: 70: PIR1bits.RCIF = 0;
	bcf	(12),5	;volatile
	line	71
;usart.c: 71: }
	goto	i1l2540
	line	72
	
i1l251:	
	line	74
	
i1l2530:	
;usart.c: 72: else
;usart.c: 73: {
;usart.c: 74: USART_WriteString("\n\r ------- ESTOURO DE PILHA ------- \n\r ");
	movlw	((STR_4)-__stringbase)&0ffh
	fcall	_USART_WriteString
	line	76
	
i1l2532:	
;usart.c: 76: RCSTAbits.CREN = 0;
	bcf	status, 5	;RP0=0, select bank0
	bcf	status, 6	;RP1=0, select bank0
	bcf	(24),4	;volatile
	line	77
	
i1l2534:	
;usart.c: 77: byte = RCREG;
	movf	(26),w	;volatile
	movwf	(??_USART_ReceiveChar+0)+0
	movf	(??_USART_ReceiveChar+0)+0,w
	movwf	(USART_ReceiveChar@byte)
	line	78
	
i1l2536:	
;usart.c: 78: RCSTAbits.CREN = 1;
	bsf	(24),4	;volatile
	line	79
	
i1l2538:	
;usart.c: 79: PIR1bits.RCIF = 0;
	bcf	(12),5	;volatile
	goto	i1l2540
	line	80
	
i1l252:	
	line	82
	
i1l2540:	
;usart.c: 80: }
;usart.c: 82: return(byte);
	movf	(USART_ReceiveChar@byte),w
	goto	i1l253
	
i1l2542:	
	line	83
	
i1l253:	
	return
	opt stack 0
GLOBAL	__end_of_USART_ReceiveChar
	__end_of_USART_ReceiveChar:
	signat	_USART_ReceiveChar,89
	global	_USART_WriteString

;; *************** function _USART_WriteString *****************
;; Defined at:
;;		line 52 in file "C:\Users\filip\programs\FuzzySI\firmware - Copia\usart.c"
;; Parameters:    Size  Location     Type
;;  str             1    wreg     PTR const unsigned char 
;;		 -> STR_4(40), 
;; Auto vars:     Size  Location     Type
;;  str             1    2[COMMON] PTR const unsigned char 
;;		 -> STR_4(40), 
;; Return value:  Size  Location     Type
;;		None               void
;; Registers used:
;;		wreg, fsr0l, fsr0h, status,2, status,0, pclath, cstack
;; Tracked objects:
;;		On entry : 0/0
;;		On exit  : 0/0
;;		Unchanged: 0/0
;; Data sizes:     COMMON   BANK0   BANK1   BANK3   BANK2
;;      Params:         0       0       0       0       0
;;      Locals:         1       0       0       0       0
;;      Temps:          1       0       0       0       0
;;      Totals:         2       0       0       0       0
;;Total ram usage:        2 bytes
;; Hardware stack levels used:    1
;; Hardware stack levels required when called:    1
;; This function calls:
;;		_USART_WriteChar
;; This function is called by:
;;		_USART_ReceiveChar
;; This function uses a non-reentrant model
;;
psect	text41,local,class=CODE,delta=2,merge=1
	line	52
global __ptext41
__ptext41:	;psect for function _USART_WriteString
psect	text41
	file	"C:\Users\filip\programs\FuzzySI\firmware - Copia\usart.c"
	line	52
	global	__size_of_USART_WriteString
	__size_of_USART_WriteString	equ	__end_of_USART_WriteString-_USART_WriteString
	
_USART_WriteString:	
;incstack = 0
	opt	stack 2
; Regs used in _USART_WriteString: [wreg-fsr0h+status,2+status,0+pclath+cstack]
;USART_WriteString@str stored from wreg
	movwf	(USART_WriteString@str)
	line	54
	
i1l2182:	
;usart.c: 54: while(*str != '\0')
	goto	i1l2188
	
i1l246:	
	line	56
	
i1l2184:	
;usart.c: 55: {
;usart.c: 56: USART_WriteChar(*str);
	movf	(USART_WriteString@str),w
	movwf	fsr0
	fcall	stringdir
	fcall	_USART_WriteChar
	line	57
	
i1l2186:	
;usart.c: 57: str++;
	movlw	(01h)
	movwf	(??_USART_WriteString+0)+0
	movf	(??_USART_WriteString+0)+0,w
	addwf	(USART_WriteString@str),f
	goto	i1l2188
	line	58
	
i1l245:	
	line	54
	
i1l2188:	
	movf	(USART_WriteString@str),w
	movwf	fsr0
	fcall	stringdir
	iorlw	0
	skipz
	goto	u223_21
	goto	u223_20
u223_21:
	goto	i1l2184
u223_20:
	goto	i1l248
	
i1l247:	
	line	59
	
i1l248:	
	return
	opt stack 0
GLOBAL	__end_of_USART_WriteString
	__end_of_USART_WriteString:
	signat	_USART_WriteString,4216
	global	_USART_WriteChar

;; *************** function _USART_WriteChar *****************
;; Defined at:
;;		line 44 in file "C:\Users\filip\programs\FuzzySI\firmware - Copia\usart.c"
;; Parameters:    Size  Location     Type
;;  byte            1    wreg     unsigned char 
;; Auto vars:     Size  Location     Type
;;  byte            1    0[COMMON] unsigned char 
;; Return value:  Size  Location     Type
;;		None               void
;; Registers used:
;;		wreg
;; Tracked objects:
;;		On entry : 0/0
;;		On exit  : 0/0
;;		Unchanged: 0/0
;; Data sizes:     COMMON   BANK0   BANK1   BANK3   BANK2
;;      Params:         0       0       0       0       0
;;      Locals:         1       0       0       0       0
;;      Temps:          0       0       0       0       0
;;      Totals:         1       0       0       0       0
;;Total ram usage:        1 bytes
;; Hardware stack levels used:    1
;; This function calls:
;;		Nothing
;; This function is called by:
;;		_send
;;		_USART_WriteString
;; This function uses a non-reentrant model
;;
psect	text42,local,class=CODE,delta=2,merge=1
	line	44
global __ptext42
__ptext42:	;psect for function _USART_WriteChar
psect	text42
	file	"C:\Users\filip\programs\FuzzySI\firmware - Copia\usart.c"
	line	44
	global	__size_of_USART_WriteChar
	__size_of_USART_WriteChar	equ	__end_of_USART_WriteChar-_USART_WriteChar
	
_USART_WriteChar:	
;incstack = 0
	opt	stack 3
; Regs used in _USART_WriteChar: [wreg]
;USART_WriteChar@byte stored from wreg
	movwf	(USART_WriteChar@byte)
	line	46
	
i1l2148:	
;usart.c: 46: while(!PIR1bits.TXIF);
	goto	i1l239
	
i1l240:	
	
i1l239:	
	bcf	status, 5	;RP0=0, select bank0
	bcf	status, 6	;RP1=0, select bank0
	btfss	(12),4	;volatile
	goto	u211_21
	goto	u211_20
u211_21:
	goto	i1l239
u211_20:
	goto	i1l2150
	
i1l241:	
	line	47
	
i1l2150:	
;usart.c: 47: TXREG = byte;
	movf	(USART_WriteChar@byte),w
	movwf	(25)	;volatile
	line	48
	
i1l242:	
	return
	opt stack 0
GLOBAL	__end_of_USART_WriteChar
	__end_of_USART_WriteChar:
	signat	_USART_WriteChar,4216
global	___latbits
___latbits	equ	2
	global	btemp
	btemp set 07Eh

	DABS	1,126,2	;btemp
	global	wtemp
	global	wtemp0
	wtemp set btemp
	wtemp0 set btemp
	global	wtemp1
	wtemp1 set btemp+2
	global	wtemp2
	wtemp2 set btemp+4
	global	wtemp3
	wtemp3 set btemp+6
	global	wtemp4
	wtemp4 set btemp+8
	global	wtemp5
	wtemp5 set btemp+10
	global	wtemp6
	wtemp6 set btemp+1
	global	ttemp
	global	ttemp0
	ttemp set btemp
	ttemp0 set btemp
	global	ttemp1
	ttemp1 set btemp+3
	global	ttemp2
	ttemp2 set btemp+6
	global	ttemp3
	ttemp3 set btemp+9
	global	ttemp4
	ttemp4 set btemp+1
	global	ltemp
	global	ltemp0
	ltemp set btemp
	ltemp0 set btemp
	global	ltemp1
	ltemp1 set btemp+4
	global	ltemp2
	ltemp2 set btemp+8
	global	ltemp3
	ltemp3 set btemp+2
	end
