opt subtitle "Microchip Technology Omniscient Code Generator (Lite mode) build 59893"

opt pagewidth 120

	opt lm

	processor	16F877A
clrc	macro
	bcf	3,0
	endm
clrz	macro
	bcf	3,2
	endm
setc	macro
	bsf	3,0
	endm
setz	macro
	bsf	3,2
	endm
skipc	macro
	btfss	3,0
	endm
skipz	macro
	btfss	3,2
	endm
skipnc	macro
	btfsc	3,0
	endm
skipnz	macro
	btfsc	3,2
	endm
indf	equ	0
indf0	equ	0
pc	equ	2
pcl	equ	2
status	equ	3
fsr	equ	4
fsr0	equ	4
c	equ	1
z	equ	0
pclath	equ	10
# 49 "C:\Program Files (x86)\Microchip\xc8\v1.33\include\pic16f877a.h"
INDF equ 00h ;# 
# 55 "C:\Program Files (x86)\Microchip\xc8\v1.33\include\pic16f877a.h"
TMR0 equ 01h ;# 
# 61 "C:\Program Files (x86)\Microchip\xc8\v1.33\include\pic16f877a.h"
PCL equ 02h ;# 
# 67 "C:\Program Files (x86)\Microchip\xc8\v1.33\include\pic16f877a.h"
STATUS equ 03h ;# 
# 154 "C:\Program Files (x86)\Microchip\xc8\v1.33\include\pic16f877a.h"
FSR equ 04h ;# 
# 160 "C:\Program Files (x86)\Microchip\xc8\v1.33\include\pic16f877a.h"
PORTA equ 05h ;# 
# 209 "C:\Program Files (x86)\Microchip\xc8\v1.33\include\pic16f877a.h"
PORTB equ 06h ;# 
# 270 "C:\Program Files (x86)\Microchip\xc8\v1.33\include\pic16f877a.h"
PORTC equ 07h ;# 
# 331 "C:\Program Files (x86)\Microchip\xc8\v1.33\include\pic16f877a.h"
PORTD equ 08h ;# 
# 392 "C:\Program Files (x86)\Microchip\xc8\v1.33\include\pic16f877a.h"
PORTE equ 09h ;# 
# 423 "C:\Program Files (x86)\Microchip\xc8\v1.33\include\pic16f877a.h"
PCLATH equ 0Ah ;# 
# 442 "C:\Program Files (x86)\Microchip\xc8\v1.33\include\pic16f877a.h"
INTCON equ 0Bh ;# 
# 519 "C:\Program Files (x86)\Microchip\xc8\v1.33\include\pic16f877a.h"
PIR1 equ 0Ch ;# 
# 580 "C:\Program Files (x86)\Microchip\xc8\v1.33\include\pic16f877a.h"
PIR2 equ 0Dh ;# 
# 619 "C:\Program Files (x86)\Microchip\xc8\v1.33\include\pic16f877a.h"
TMR1 equ 0Eh ;# 
# 625 "C:\Program Files (x86)\Microchip\xc8\v1.33\include\pic16f877a.h"
TMR1L equ 0Eh ;# 
# 631 "C:\Program Files (x86)\Microchip\xc8\v1.33\include\pic16f877a.h"
TMR1H equ 0Fh ;# 
# 637 "C:\Program Files (x86)\Microchip\xc8\v1.33\include\pic16f877a.h"
T1CON equ 010h ;# 
# 711 "C:\Program Files (x86)\Microchip\xc8\v1.33\include\pic16f877a.h"
TMR2 equ 011h ;# 
# 717 "C:\Program Files (x86)\Microchip\xc8\v1.33\include\pic16f877a.h"
T2CON equ 012h ;# 
# 787 "C:\Program Files (x86)\Microchip\xc8\v1.33\include\pic16f877a.h"
SSPBUF equ 013h ;# 
# 793 "C:\Program Files (x86)\Microchip\xc8\v1.33\include\pic16f877a.h"
SSPCON equ 014h ;# 
# 862 "C:\Program Files (x86)\Microchip\xc8\v1.33\include\pic16f877a.h"
CCPR1 equ 015h ;# 
# 868 "C:\Program Files (x86)\Microchip\xc8\v1.33\include\pic16f877a.h"
CCPR1L equ 015h ;# 
# 874 "C:\Program Files (x86)\Microchip\xc8\v1.33\include\pic16f877a.h"
CCPR1H equ 016h ;# 
# 880 "C:\Program Files (x86)\Microchip\xc8\v1.33\include\pic16f877a.h"
CCP1CON equ 017h ;# 
# 937 "C:\Program Files (x86)\Microchip\xc8\v1.33\include\pic16f877a.h"
RCSTA equ 018h ;# 
# 1031 "C:\Program Files (x86)\Microchip\xc8\v1.33\include\pic16f877a.h"
TXREG equ 019h ;# 
# 1037 "C:\Program Files (x86)\Microchip\xc8\v1.33\include\pic16f877a.h"
RCREG equ 01Ah ;# 
# 1043 "C:\Program Files (x86)\Microchip\xc8\v1.33\include\pic16f877a.h"
CCPR2 equ 01Bh ;# 
# 1049 "C:\Program Files (x86)\Microchip\xc8\v1.33\include\pic16f877a.h"
CCPR2L equ 01Bh ;# 
# 1055 "C:\Program Files (x86)\Microchip\xc8\v1.33\include\pic16f877a.h"
CCPR2H equ 01Ch ;# 
# 1061 "C:\Program Files (x86)\Microchip\xc8\v1.33\include\pic16f877a.h"
CCP2CON equ 01Dh ;# 
# 1118 "C:\Program Files (x86)\Microchip\xc8\v1.33\include\pic16f877a.h"
ADRESH equ 01Eh ;# 
# 1124 "C:\Program Files (x86)\Microchip\xc8\v1.33\include\pic16f877a.h"
ADCON0 equ 01Fh ;# 
# 1219 "C:\Program Files (x86)\Microchip\xc8\v1.33\include\pic16f877a.h"
OPTION_REG equ 081h ;# 
# 1288 "C:\Program Files (x86)\Microchip\xc8\v1.33\include\pic16f877a.h"
TRISA equ 085h ;# 
# 1337 "C:\Program Files (x86)\Microchip\xc8\v1.33\include\pic16f877a.h"
TRISB equ 086h ;# 
# 1398 "C:\Program Files (x86)\Microchip\xc8\v1.33\include\pic16f877a.h"
TRISC equ 087h ;# 
# 1459 "C:\Program Files (x86)\Microchip\xc8\v1.33\include\pic16f877a.h"
TRISD equ 088h ;# 
# 1520 "C:\Program Files (x86)\Microchip\xc8\v1.33\include\pic16f877a.h"
TRISE equ 089h ;# 
# 1576 "C:\Program Files (x86)\Microchip\xc8\v1.33\include\pic16f877a.h"
PIE1 equ 08Ch ;# 
# 1637 "C:\Program Files (x86)\Microchip\xc8\v1.33\include\pic16f877a.h"
PIE2 equ 08Dh ;# 
# 1676 "C:\Program Files (x86)\Microchip\xc8\v1.33\include\pic16f877a.h"
PCON equ 08Eh ;# 
# 1709 "C:\Program Files (x86)\Microchip\xc8\v1.33\include\pic16f877a.h"
SSPCON2 equ 091h ;# 
# 1770 "C:\Program Files (x86)\Microchip\xc8\v1.33\include\pic16f877a.h"
PR2 equ 092h ;# 
# 1776 "C:\Program Files (x86)\Microchip\xc8\v1.33\include\pic16f877a.h"
SSPADD equ 093h ;# 
# 1782 "C:\Program Files (x86)\Microchip\xc8\v1.33\include\pic16f877a.h"
SSPSTAT equ 094h ;# 
# 1950 "C:\Program Files (x86)\Microchip\xc8\v1.33\include\pic16f877a.h"
TXSTA equ 098h ;# 
# 2030 "C:\Program Files (x86)\Microchip\xc8\v1.33\include\pic16f877a.h"
SPBRG equ 099h ;# 
# 2036 "C:\Program Files (x86)\Microchip\xc8\v1.33\include\pic16f877a.h"
CMCON equ 09Ch ;# 
# 2105 "C:\Program Files (x86)\Microchip\xc8\v1.33\include\pic16f877a.h"
CVRCON equ 09Dh ;# 
# 2169 "C:\Program Files (x86)\Microchip\xc8\v1.33\include\pic16f877a.h"
ADRESL equ 09Eh ;# 
# 2175 "C:\Program Files (x86)\Microchip\xc8\v1.33\include\pic16f877a.h"
ADCON1 equ 09Fh ;# 
# 2233 "C:\Program Files (x86)\Microchip\xc8\v1.33\include\pic16f877a.h"
EEDATA equ 010Ch ;# 
# 2239 "C:\Program Files (x86)\Microchip\xc8\v1.33\include\pic16f877a.h"
EEADR equ 010Dh ;# 
# 2245 "C:\Program Files (x86)\Microchip\xc8\v1.33\include\pic16f877a.h"
EEDATH equ 010Eh ;# 
# 2251 "C:\Program Files (x86)\Microchip\xc8\v1.33\include\pic16f877a.h"
EEADRH equ 010Fh ;# 
# 2257 "C:\Program Files (x86)\Microchip\xc8\v1.33\include\pic16f877a.h"
EECON1 equ 018Ch ;# 
# 2301 "C:\Program Files (x86)\Microchip\xc8\v1.33\include\pic16f877a.h"
EECON2 equ 018Dh ;# 
# 49 "C:\Program Files (x86)\Microchip\xc8\v1.33\include\pic16f877a.h"
INDF equ 00h ;# 
# 55 "C:\Program Files (x86)\Microchip\xc8\v1.33\include\pic16f877a.h"
TMR0 equ 01h ;# 
# 61 "C:\Program Files (x86)\Microchip\xc8\v1.33\include\pic16f877a.h"
PCL equ 02h ;# 
# 67 "C:\Program Files (x86)\Microchip\xc8\v1.33\include\pic16f877a.h"
STATUS equ 03h ;# 
# 154 "C:\Program Files (x86)\Microchip\xc8\v1.33\include\pic16f877a.h"
FSR equ 04h ;# 
# 160 "C:\Program Files (x86)\Microchip\xc8\v1.33\include\pic16f877a.h"
PORTA equ 05h ;# 
# 209 "C:\Program Files (x86)\Microchip\xc8\v1.33\include\pic16f877a.h"
PORTB equ 06h ;# 
# 270 "C:\Program Files (x86)\Microchip\xc8\v1.33\include\pic16f877a.h"
PORTC equ 07h ;# 
# 331 "C:\Program Files (x86)\Microchip\xc8\v1.33\include\pic16f877a.h"
PORTD equ 08h ;# 
# 392 "C:\Program Files (x86)\Microchip\xc8\v1.33\include\pic16f877a.h"
PORTE equ 09h ;# 
# 423 "C:\Program Files (x86)\Microchip\xc8\v1.33\include\pic16f877a.h"
PCLATH equ 0Ah ;# 
# 442 "C:\Program Files (x86)\Microchip\xc8\v1.33\include\pic16f877a.h"
INTCON equ 0Bh ;# 
# 519 "C:\Program Files (x86)\Microchip\xc8\v1.33\include\pic16f877a.h"
PIR1 equ 0Ch ;# 
# 580 "C:\Program Files (x86)\Microchip\xc8\v1.33\include\pic16f877a.h"
PIR2 equ 0Dh ;# 
# 619 "C:\Program Files (x86)\Microchip\xc8\v1.33\include\pic16f877a.h"
TMR1 equ 0Eh ;# 
# 625 "C:\Program Files (x86)\Microchip\xc8\v1.33\include\pic16f877a.h"
TMR1L equ 0Eh ;# 
# 631 "C:\Program Files (x86)\Microchip\xc8\v1.33\include\pic16f877a.h"
TMR1H equ 0Fh ;# 
# 637 "C:\Program Files (x86)\Microchip\xc8\v1.33\include\pic16f877a.h"
T1CON equ 010h ;# 
# 711 "C:\Program Files (x86)\Microchip\xc8\v1.33\include\pic16f877a.h"
TMR2 equ 011h ;# 
# 717 "C:\Program Files (x86)\Microchip\xc8\v1.33\include\pic16f877a.h"
T2CON equ 012h ;# 
# 787 "C:\Program Files (x86)\Microchip\xc8\v1.33\include\pic16f877a.h"
SSPBUF equ 013h ;# 
# 793 "C:\Program Files (x86)\Microchip\xc8\v1.33\include\pic16f877a.h"
SSPCON equ 014h ;# 
# 862 "C:\Program Files (x86)\Microchip\xc8\v1.33\include\pic16f877a.h"
CCPR1 equ 015h ;# 
# 868 "C:\Program Files (x86)\Microchip\xc8\v1.33\include\pic16f877a.h"
CCPR1L equ 015h ;# 
# 874 "C:\Program Files (x86)\Microchip\xc8\v1.33\include\pic16f877a.h"
CCPR1H equ 016h ;# 
# 880 "C:\Program Files (x86)\Microchip\xc8\v1.33\include\pic16f877a.h"
CCP1CON equ 017h ;# 
# 937 "C:\Program Files (x86)\Microchip\xc8\v1.33\include\pic16f877a.h"
RCSTA equ 018h ;# 
# 1031 "C:\Program Files (x86)\Microchip\xc8\v1.33\include\pic16f877a.h"
TXREG equ 019h ;# 
# 1037 "C:\Program Files (x86)\Microchip\xc8\v1.33\include\pic16f877a.h"
RCREG equ 01Ah ;# 
# 1043 "C:\Program Files (x86)\Microchip\xc8\v1.33\include\pic16f877a.h"
CCPR2 equ 01Bh ;# 
# 1049 "C:\Program Files (x86)\Microchip\xc8\v1.33\include\pic16f877a.h"
CCPR2L equ 01Bh ;# 
# 1055 "C:\Program Files (x86)\Microchip\xc8\v1.33\include\pic16f877a.h"
CCPR2H equ 01Ch ;# 
# 1061 "C:\Program Files (x86)\Microchip\xc8\v1.33\include\pic16f877a.h"
CCP2CON equ 01Dh ;# 
# 1118 "C:\Program Files (x86)\Microchip\xc8\v1.33\include\pic16f877a.h"
ADRESH equ 01Eh ;# 
# 1124 "C:\Program Files (x86)\Microchip\xc8\v1.33\include\pic16f877a.h"
ADCON0 equ 01Fh ;# 
# 1219 "C:\Program Files (x86)\Microchip\xc8\v1.33\include\pic16f877a.h"
OPTION_REG equ 081h ;# 
# 1288 "C:\Program Files (x86)\Microchip\xc8\v1.33\include\pic16f877a.h"
TRISA equ 085h ;# 
# 1337 "C:\Program Files (x86)\Microchip\xc8\v1.33\include\pic16f877a.h"
TRISB equ 086h ;# 
# 1398 "C:\Program Files (x86)\Microchip\xc8\v1.33\include\pic16f877a.h"
TRISC equ 087h ;# 
# 1459 "C:\Program Files (x86)\Microchip\xc8\v1.33\include\pic16f877a.h"
TRISD equ 088h ;# 
# 1520 "C:\Program Files (x86)\Microchip\xc8\v1.33\include\pic16f877a.h"
TRISE equ 089h ;# 
# 1576 "C:\Program Files (x86)\Microchip\xc8\v1.33\include\pic16f877a.h"
PIE1 equ 08Ch ;# 
# 1637 "C:\Program Files (x86)\Microchip\xc8\v1.33\include\pic16f877a.h"
PIE2 equ 08Dh ;# 
# 1676 "C:\Program Files (x86)\Microchip\xc8\v1.33\include\pic16f877a.h"
PCON equ 08Eh ;# 
# 1709 "C:\Program Files (x86)\Microchip\xc8\v1.33\include\pic16f877a.h"
SSPCON2 equ 091h ;# 
# 1770 "C:\Program Files (x86)\Microchip\xc8\v1.33\include\pic16f877a.h"
PR2 equ 092h ;# 
# 1776 "C:\Program Files (x86)\Microchip\xc8\v1.33\include\pic16f877a.h"
SSPADD equ 093h ;# 
# 1782 "C:\Program Files (x86)\Microchip\xc8\v1.33\include\pic16f877a.h"
SSPSTAT equ 094h ;# 
# 1950 "C:\Program Files (x86)\Microchip\xc8\v1.33\include\pic16f877a.h"
TXSTA equ 098h ;# 
# 2030 "C:\Program Files (x86)\Microchip\xc8\v1.33\include\pic16f877a.h"
SPBRG equ 099h ;# 
# 2036 "C:\Program Files (x86)\Microchip\xc8\v1.33\include\pic16f877a.h"
CMCON equ 09Ch ;# 
# 2105 "C:\Program Files (x86)\Microchip\xc8\v1.33\include\pic16f877a.h"
CVRCON equ 09Dh ;# 
# 2169 "C:\Program Files (x86)\Microchip\xc8\v1.33\include\pic16f877a.h"
ADRESL equ 09Eh ;# 
# 2175 "C:\Program Files (x86)\Microchip\xc8\v1.33\include\pic16f877a.h"
ADCON1 equ 09Fh ;# 
# 2233 "C:\Program Files (x86)\Microchip\xc8\v1.33\include\pic16f877a.h"
EEDATA equ 010Ch ;# 
# 2239 "C:\Program Files (x86)\Microchip\xc8\v1.33\include\pic16f877a.h"
EEADR equ 010Dh ;# 
# 2245 "C:\Program Files (x86)\Microchip\xc8\v1.33\include\pic16f877a.h"
EEDATH equ 010Eh ;# 
# 2251 "C:\Program Files (x86)\Microchip\xc8\v1.33\include\pic16f877a.h"
EEADRH equ 010Fh ;# 
# 2257 "C:\Program Files (x86)\Microchip\xc8\v1.33\include\pic16f877a.h"
EECON1 equ 018Ch ;# 
# 2301 "C:\Program Files (x86)\Microchip\xc8\v1.33\include\pic16f877a.h"
EECON2 equ 018Dh ;# 
# 49 "C:\Program Files (x86)\Microchip\xc8\v1.33\include\pic16f877a.h"
INDF equ 00h ;# 
# 55 "C:\Program Files (x86)\Microchip\xc8\v1.33\include\pic16f877a.h"
TMR0 equ 01h ;# 
# 61 "C:\Program Files (x86)\Microchip\xc8\v1.33\include\pic16f877a.h"
PCL equ 02h ;# 
# 67 "C:\Program Files (x86)\Microchip\xc8\v1.33\include\pic16f877a.h"
STATUS equ 03h ;# 
# 154 "C:\Program Files (x86)\Microchip\xc8\v1.33\include\pic16f877a.h"
FSR equ 04h ;# 
# 160 "C:\Program Files (x86)\Microchip\xc8\v1.33\include\pic16f877a.h"
PORTA equ 05h ;# 
# 209 "C:\Program Files (x86)\Microchip\xc8\v1.33\include\pic16f877a.h"
PORTB equ 06h ;# 
# 270 "C:\Program Files (x86)\Microchip\xc8\v1.33\include\pic16f877a.h"
PORTC equ 07h ;# 
# 331 "C:\Program Files (x86)\Microchip\xc8\v1.33\include\pic16f877a.h"
PORTD equ 08h ;# 
# 392 "C:\Program Files (x86)\Microchip\xc8\v1.33\include\pic16f877a.h"
PORTE equ 09h ;# 
# 423 "C:\Program Files (x86)\Microchip\xc8\v1.33\include\pic16f877a.h"
PCLATH equ 0Ah ;# 
# 442 "C:\Program Files (x86)\Microchip\xc8\v1.33\include\pic16f877a.h"
INTCON equ 0Bh ;# 
# 519 "C:\Program Files (x86)\Microchip\xc8\v1.33\include\pic16f877a.h"
PIR1 equ 0Ch ;# 
# 580 "C:\Program Files (x86)\Microchip\xc8\v1.33\include\pic16f877a.h"
PIR2 equ 0Dh ;# 
# 619 "C:\Program Files (x86)\Microchip\xc8\v1.33\include\pic16f877a.h"
TMR1 equ 0Eh ;# 
# 625 "C:\Program Files (x86)\Microchip\xc8\v1.33\include\pic16f877a.h"
TMR1L equ 0Eh ;# 
# 631 "C:\Program Files (x86)\Microchip\xc8\v1.33\include\pic16f877a.h"
TMR1H equ 0Fh ;# 
# 637 "C:\Program Files (x86)\Microchip\xc8\v1.33\include\pic16f877a.h"
T1CON equ 010h ;# 
# 711 "C:\Program Files (x86)\Microchip\xc8\v1.33\include\pic16f877a.h"
TMR2 equ 011h ;# 
# 717 "C:\Program Files (x86)\Microchip\xc8\v1.33\include\pic16f877a.h"
T2CON equ 012h ;# 
# 787 "C:\Program Files (x86)\Microchip\xc8\v1.33\include\pic16f877a.h"
SSPBUF equ 013h ;# 
# 793 "C:\Program Files (x86)\Microchip\xc8\v1.33\include\pic16f877a.h"
SSPCON equ 014h ;# 
# 862 "C:\Program Files (x86)\Microchip\xc8\v1.33\include\pic16f877a.h"
CCPR1 equ 015h ;# 
# 868 "C:\Program Files (x86)\Microchip\xc8\v1.33\include\pic16f877a.h"
CCPR1L equ 015h ;# 
# 874 "C:\Program Files (x86)\Microchip\xc8\v1.33\include\pic16f877a.h"
CCPR1H equ 016h ;# 
# 880 "C:\Program Files (x86)\Microchip\xc8\v1.33\include\pic16f877a.h"
CCP1CON equ 017h ;# 
# 937 "C:\Program Files (x86)\Microchip\xc8\v1.33\include\pic16f877a.h"
RCSTA equ 018h ;# 
# 1031 "C:\Program Files (x86)\Microchip\xc8\v1.33\include\pic16f877a.h"
TXREG equ 019h ;# 
# 1037 "C:\Program Files (x86)\Microchip\xc8\v1.33\include\pic16f877a.h"
RCREG equ 01Ah ;# 
# 1043 "C:\Program Files (x86)\Microchip\xc8\v1.33\include\pic16f877a.h"
CCPR2 equ 01Bh ;# 
# 1049 "C:\Program Files (x86)\Microchip\xc8\v1.33\include\pic16f877a.h"
CCPR2L equ 01Bh ;# 
# 1055 "C:\Program Files (x86)\Microchip\xc8\v1.33\include\pic16f877a.h"
CCPR2H equ 01Ch ;# 
# 1061 "C:\Program Files (x86)\Microchip\xc8\v1.33\include\pic16f877a.h"
CCP2CON equ 01Dh ;# 
# 1118 "C:\Program Files (x86)\Microchip\xc8\v1.33\include\pic16f877a.h"
ADRESH equ 01Eh ;# 
# 1124 "C:\Program Files (x86)\Microchip\xc8\v1.33\include\pic16f877a.h"
ADCON0 equ 01Fh ;# 
# 1219 "C:\Program Files (x86)\Microchip\xc8\v1.33\include\pic16f877a.h"
OPTION_REG equ 081h ;# 
# 1288 "C:\Program Files (x86)\Microchip\xc8\v1.33\include\pic16f877a.h"
TRISA equ 085h ;# 
# 1337 "C:\Program Files (x86)\Microchip\xc8\v1.33\include\pic16f877a.h"
TRISB equ 086h ;# 
# 1398 "C:\Program Files (x86)\Microchip\xc8\v1.33\include\pic16f877a.h"
TRISC equ 087h ;# 
# 1459 "C:\Program Files (x86)\Microchip\xc8\v1.33\include\pic16f877a.h"
TRISD equ 088h ;# 
# 1520 "C:\Program Files (x86)\Microchip\xc8\v1.33\include\pic16f877a.h"
TRISE equ 089h ;# 
# 1576 "C:\Program Files (x86)\Microchip\xc8\v1.33\include\pic16f877a.h"
PIE1 equ 08Ch ;# 
# 1637 "C:\Program Files (x86)\Microchip\xc8\v1.33\include\pic16f877a.h"
PIE2 equ 08Dh ;# 
# 1676 "C:\Program Files (x86)\Microchip\xc8\v1.33\include\pic16f877a.h"
PCON equ 08Eh ;# 
# 1709 "C:\Program Files (x86)\Microchip\xc8\v1.33\include\pic16f877a.h"
SSPCON2 equ 091h ;# 
# 1770 "C:\Program Files (x86)\Microchip\xc8\v1.33\include\pic16f877a.h"
PR2 equ 092h ;# 
# 1776 "C:\Program Files (x86)\Microchip\xc8\v1.33\include\pic16f877a.h"
SSPADD equ 093h ;# 
# 1782 "C:\Program Files (x86)\Microchip\xc8\v1.33\include\pic16f877a.h"
SSPSTAT equ 094h ;# 
# 1950 "C:\Program Files (x86)\Microchip\xc8\v1.33\include\pic16f877a.h"
TXSTA equ 098h ;# 
# 2030 "C:\Program Files (x86)\Microchip\xc8\v1.33\include\pic16f877a.h"
SPBRG equ 099h ;# 
# 2036 "C:\Program Files (x86)\Microchip\xc8\v1.33\include\pic16f877a.h"
CMCON equ 09Ch ;# 
# 2105 "C:\Program Files (x86)\Microchip\xc8\v1.33\include\pic16f877a.h"
CVRCON equ 09Dh ;# 
# 2169 "C:\Program Files (x86)\Microchip\xc8\v1.33\include\pic16f877a.h"
ADRESL equ 09Eh ;# 
# 2175 "C:\Program Files (x86)\Microchip\xc8\v1.33\include\pic16f877a.h"
ADCON1 equ 09Fh ;# 
# 2233 "C:\Program Files (x86)\Microchip\xc8\v1.33\include\pic16f877a.h"
EEDATA equ 010Ch ;# 
# 2239 "C:\Program Files (x86)\Microchip\xc8\v1.33\include\pic16f877a.h"
EEADR equ 010Dh ;# 
# 2245 "C:\Program Files (x86)\Microchip\xc8\v1.33\include\pic16f877a.h"
EEDATH equ 010Eh ;# 
# 2251 "C:\Program Files (x86)\Microchip\xc8\v1.33\include\pic16f877a.h"
EEADRH equ 010Fh ;# 
# 2257 "C:\Program Files (x86)\Microchip\xc8\v1.33\include\pic16f877a.h"
EECON1 equ 018Ch ;# 
# 2301 "C:\Program Files (x86)\Microchip\xc8\v1.33\include\pic16f877a.h"
EECON2 equ 018Dh ;# 
# 49 "C:\Program Files (x86)\Microchip\xc8\v1.33\include\pic16f877a.h"
INDF equ 00h ;# 
# 55 "C:\Program Files (x86)\Microchip\xc8\v1.33\include\pic16f877a.h"
TMR0 equ 01h ;# 
# 61 "C:\Program Files (x86)\Microchip\xc8\v1.33\include\pic16f877a.h"
PCL equ 02h ;# 
# 67 "C:\Program Files (x86)\Microchip\xc8\v1.33\include\pic16f877a.h"
STATUS equ 03h ;# 
# 154 "C:\Program Files (x86)\Microchip\xc8\v1.33\include\pic16f877a.h"
FSR equ 04h ;# 
# 160 "C:\Program Files (x86)\Microchip\xc8\v1.33\include\pic16f877a.h"
PORTA equ 05h ;# 
# 209 "C:\Program Files (x86)\Microchip\xc8\v1.33\include\pic16f877a.h"
PORTB equ 06h ;# 
# 270 "C:\Program Files (x86)\Microchip\xc8\v1.33\include\pic16f877a.h"
PORTC equ 07h ;# 
# 331 "C:\Program Files (x86)\Microchip\xc8\v1.33\include\pic16f877a.h"
PORTD equ 08h ;# 
# 392 "C:\Program Files (x86)\Microchip\xc8\v1.33\include\pic16f877a.h"
PORTE equ 09h ;# 
# 423 "C:\Program Files (x86)\Microchip\xc8\v1.33\include\pic16f877a.h"
PCLATH equ 0Ah ;# 
# 442 "C:\Program Files (x86)\Microchip\xc8\v1.33\include\pic16f877a.h"
INTCON equ 0Bh ;# 
# 519 "C:\Program Files (x86)\Microchip\xc8\v1.33\include\pic16f877a.h"
PIR1 equ 0Ch ;# 
# 580 "C:\Program Files (x86)\Microchip\xc8\v1.33\include\pic16f877a.h"
PIR2 equ 0Dh ;# 
# 619 "C:\Program Files (x86)\Microchip\xc8\v1.33\include\pic16f877a.h"
TMR1 equ 0Eh ;# 
# 625 "C:\Program Files (x86)\Microchip\xc8\v1.33\include\pic16f877a.h"
TMR1L equ 0Eh ;# 
# 631 "C:\Program Files (x86)\Microchip\xc8\v1.33\include\pic16f877a.h"
TMR1H equ 0Fh ;# 
# 637 "C:\Program Files (x86)\Microchip\xc8\v1.33\include\pic16f877a.h"
T1CON equ 010h ;# 
# 711 "C:\Program Files (x86)\Microchip\xc8\v1.33\include\pic16f877a.h"
TMR2 equ 011h ;# 
# 717 "C:\Program Files (x86)\Microchip\xc8\v1.33\include\pic16f877a.h"
T2CON equ 012h ;# 
# 787 "C:\Program Files (x86)\Microchip\xc8\v1.33\include\pic16f877a.h"
SSPBUF equ 013h ;# 
# 793 "C:\Program Files (x86)\Microchip\xc8\v1.33\include\pic16f877a.h"
SSPCON equ 014h ;# 
# 862 "C:\Program Files (x86)\Microchip\xc8\v1.33\include\pic16f877a.h"
CCPR1 equ 015h ;# 
# 868 "C:\Program Files (x86)\Microchip\xc8\v1.33\include\pic16f877a.h"
CCPR1L equ 015h ;# 
# 874 "C:\Program Files (x86)\Microchip\xc8\v1.33\include\pic16f877a.h"
CCPR1H equ 016h ;# 
# 880 "C:\Program Files (x86)\Microchip\xc8\v1.33\include\pic16f877a.h"
CCP1CON equ 017h ;# 
# 937 "C:\Program Files (x86)\Microchip\xc8\v1.33\include\pic16f877a.h"
RCSTA equ 018h ;# 
# 1031 "C:\Program Files (x86)\Microchip\xc8\v1.33\include\pic16f877a.h"
TXREG equ 019h ;# 
# 1037 "C:\Program Files (x86)\Microchip\xc8\v1.33\include\pic16f877a.h"
RCREG equ 01Ah ;# 
# 1043 "C:\Program Files (x86)\Microchip\xc8\v1.33\include\pic16f877a.h"
CCPR2 equ 01Bh ;# 
# 1049 "C:\Program Files (x86)\Microchip\xc8\v1.33\include\pic16f877a.h"
CCPR2L equ 01Bh ;# 
# 1055 "C:\Program Files (x86)\Microchip\xc8\v1.33\include\pic16f877a.h"
CCPR2H equ 01Ch ;# 
# 1061 "C:\Program Files (x86)\Microchip\xc8\v1.33\include\pic16f877a.h"
CCP2CON equ 01Dh ;# 
# 1118 "C:\Program Files (x86)\Microchip\xc8\v1.33\include\pic16f877a.h"
ADRESH equ 01Eh ;# 
# 1124 "C:\Program Files (x86)\Microchip\xc8\v1.33\include\pic16f877a.h"
ADCON0 equ 01Fh ;# 
# 1219 "C:\Program Files (x86)\Microchip\xc8\v1.33\include\pic16f877a.h"
OPTION_REG equ 081h ;# 
# 1288 "C:\Program Files (x86)\Microchip\xc8\v1.33\include\pic16f877a.h"
TRISA equ 085h ;# 
# 1337 "C:\Program Files (x86)\Microchip\xc8\v1.33\include\pic16f877a.h"
TRISB equ 086h ;# 
# 1398 "C:\Program Files (x86)\Microchip\xc8\v1.33\include\pic16f877a.h"
TRISC equ 087h ;# 
# 1459 "C:\Program Files (x86)\Microchip\xc8\v1.33\include\pic16f877a.h"
TRISD equ 088h ;# 
# 1520 "C:\Program Files (x86)\Microchip\xc8\v1.33\include\pic16f877a.h"
TRISE equ 089h ;# 
# 1576 "C:\Program Files (x86)\Microchip\xc8\v1.33\include\pic16f877a.h"
PIE1 equ 08Ch ;# 
# 1637 "C:\Program Files (x86)\Microchip\xc8\v1.33\include\pic16f877a.h"
PIE2 equ 08Dh ;# 
# 1676 "C:\Program Files (x86)\Microchip\xc8\v1.33\include\pic16f877a.h"
PCON equ 08Eh ;# 
# 1709 "C:\Program Files (x86)\Microchip\xc8\v1.33\include\pic16f877a.h"
SSPCON2 equ 091h ;# 
# 1770 "C:\Program Files (x86)\Microchip\xc8\v1.33\include\pic16f877a.h"
PR2 equ 092h ;# 
# 1776 "C:\Program Files (x86)\Microchip\xc8\v1.33\include\pic16f877a.h"
SSPADD equ 093h ;# 
# 1782 "C:\Program Files (x86)\Microchip\xc8\v1.33\include\pic16f877a.h"
SSPSTAT equ 094h ;# 
# 1950 "C:\Program Files (x86)\Microchip\xc8\v1.33\include\pic16f877a.h"
TXSTA equ 098h ;# 
# 2030 "C:\Program Files (x86)\Microchip\xc8\v1.33\include\pic16f877a.h"
SPBRG equ 099h ;# 
# 2036 "C:\Program Files (x86)\Microchip\xc8\v1.33\include\pic16f877a.h"
CMCON equ 09Ch ;# 
# 2105 "C:\Program Files (x86)\Microchip\xc8\v1.33\include\pic16f877a.h"
CVRCON equ 09Dh ;# 
# 2169 "C:\Program Files (x86)\Microchip\xc8\v1.33\include\pic16f877a.h"
ADRESL equ 09Eh ;# 
# 2175 "C:\Program Files (x86)\Microchip\xc8\v1.33\include\pic16f877a.h"
ADCON1 equ 09Fh ;# 
# 2233 "C:\Program Files (x86)\Microchip\xc8\v1.33\include\pic16f877a.h"
EEDATA equ 010Ch ;# 
# 2239 "C:\Program Files (x86)\Microchip\xc8\v1.33\include\pic16f877a.h"
EEADR equ 010Dh ;# 
# 2245 "C:\Program Files (x86)\Microchip\xc8\v1.33\include\pic16f877a.h"
EEDATH equ 010Eh ;# 
# 2251 "C:\Program Files (x86)\Microchip\xc8\v1.33\include\pic16f877a.h"
EEADRH equ 010Fh ;# 
# 2257 "C:\Program Files (x86)\Microchip\xc8\v1.33\include\pic16f877a.h"
EECON1 equ 018Ch ;# 
# 2301 "C:\Program Files (x86)\Microchip\xc8\v1.33\include\pic16f877a.h"
EECON2 equ 018Dh ;# 
# 49 "C:\Program Files (x86)\Microchip\xc8\v1.33\include\pic16f877a.h"
INDF equ 00h ;# 
# 55 "C:\Program Files (x86)\Microchip\xc8\v1.33\include\pic16f877a.h"
TMR0 equ 01h ;# 
# 61 "C:\Program Files (x86)\Microchip\xc8\v1.33\include\pic16f877a.h"
PCL equ 02h ;# 
# 67 "C:\Program Files (x86)\Microchip\xc8\v1.33\include\pic16f877a.h"
STATUS equ 03h ;# 
# 154 "C:\Program Files (x86)\Microchip\xc8\v1.33\include\pic16f877a.h"
FSR equ 04h ;# 
# 160 "C:\Program Files (x86)\Microchip\xc8\v1.33\include\pic16f877a.h"
PORTA equ 05h ;# 
# 209 "C:\Program Files (x86)\Microchip\xc8\v1.33\include\pic16f877a.h"
PORTB equ 06h ;# 
# 270 "C:\Program Files (x86)\Microchip\xc8\v1.33\include\pic16f877a.h"
PORTC equ 07h ;# 
# 331 "C:\Program Files (x86)\Microchip\xc8\v1.33\include\pic16f877a.h"
PORTD equ 08h ;# 
# 392 "C:\Program Files (x86)\Microchip\xc8\v1.33\include\pic16f877a.h"
PORTE equ 09h ;# 
# 423 "C:\Program Files (x86)\Microchip\xc8\v1.33\include\pic16f877a.h"
PCLATH equ 0Ah ;# 
# 442 "C:\Program Files (x86)\Microchip\xc8\v1.33\include\pic16f877a.h"
INTCON equ 0Bh ;# 
# 519 "C:\Program Files (x86)\Microchip\xc8\v1.33\include\pic16f877a.h"
PIR1 equ 0Ch ;# 
# 580 "C:\Program Files (x86)\Microchip\xc8\v1.33\include\pic16f877a.h"
PIR2 equ 0Dh ;# 
# 619 "C:\Program Files (x86)\Microchip\xc8\v1.33\include\pic16f877a.h"
TMR1 equ 0Eh ;# 
# 625 "C:\Program Files (x86)\Microchip\xc8\v1.33\include\pic16f877a.h"
TMR1L equ 0Eh ;# 
# 631 "C:\Program Files (x86)\Microchip\xc8\v1.33\include\pic16f877a.h"
TMR1H equ 0Fh ;# 
# 637 "C:\Program Files (x86)\Microchip\xc8\v1.33\include\pic16f877a.h"
T1CON equ 010h ;# 
# 711 "C:\Program Files (x86)\Microchip\xc8\v1.33\include\pic16f877a.h"
TMR2 equ 011h ;# 
# 717 "C:\Program Files (x86)\Microchip\xc8\v1.33\include\pic16f877a.h"
T2CON equ 012h ;# 
# 787 "C:\Program Files (x86)\Microchip\xc8\v1.33\include\pic16f877a.h"
SSPBUF equ 013h ;# 
# 793 "C:\Program Files (x86)\Microchip\xc8\v1.33\include\pic16f877a.h"
SSPCON equ 014h ;# 
# 862 "C:\Program Files (x86)\Microchip\xc8\v1.33\include\pic16f877a.h"
CCPR1 equ 015h ;# 
# 868 "C:\Program Files (x86)\Microchip\xc8\v1.33\include\pic16f877a.h"
CCPR1L equ 015h ;# 
# 874 "C:\Program Files (x86)\Microchip\xc8\v1.33\include\pic16f877a.h"
CCPR1H equ 016h ;# 
# 880 "C:\Program Files (x86)\Microchip\xc8\v1.33\include\pic16f877a.h"
CCP1CON equ 017h ;# 
# 937 "C:\Program Files (x86)\Microchip\xc8\v1.33\include\pic16f877a.h"
RCSTA equ 018h ;# 
# 1031 "C:\Program Files (x86)\Microchip\xc8\v1.33\include\pic16f877a.h"
TXREG equ 019h ;# 
# 1037 "C:\Program Files (x86)\Microchip\xc8\v1.33\include\pic16f877a.h"
RCREG equ 01Ah ;# 
# 1043 "C:\Program Files (x86)\Microchip\xc8\v1.33\include\pic16f877a.h"
CCPR2 equ 01Bh ;# 
# 1049 "C:\Program Files (x86)\Microchip\xc8\v1.33\include\pic16f877a.h"
CCPR2L equ 01Bh ;# 
# 1055 "C:\Program Files (x86)\Microchip\xc8\v1.33\include\pic16f877a.h"
CCPR2H equ 01Ch ;# 
# 1061 "C:\Program Files (x86)\Microchip\xc8\v1.33\include\pic16f877a.h"
CCP2CON equ 01Dh ;# 
# 1118 "C:\Program Files (x86)\Microchip\xc8\v1.33\include\pic16f877a.h"
ADRESH equ 01Eh ;# 
# 1124 "C:\Program Files (x86)\Microchip\xc8\v1.33\include\pic16f877a.h"
ADCON0 equ 01Fh ;# 
# 1219 "C:\Program Files (x86)\Microchip\xc8\v1.33\include\pic16f877a.h"
OPTION_REG equ 081h ;# 
# 1288 "C:\Program Files (x86)\Microchip\xc8\v1.33\include\pic16f877a.h"
TRISA equ 085h ;# 
# 1337 "C:\Program Files (x86)\Microchip\xc8\v1.33\include\pic16f877a.h"
TRISB equ 086h ;# 
# 1398 "C:\Program Files (x86)\Microchip\xc8\v1.33\include\pic16f877a.h"
TRISC equ 087h ;# 
# 1459 "C:\Program Files (x86)\Microchip\xc8\v1.33\include\pic16f877a.h"
TRISD equ 088h ;# 
# 1520 "C:\Program Files (x86)\Microchip\xc8\v1.33\include\pic16f877a.h"
TRISE equ 089h ;# 
# 1576 "C:\Program Files (x86)\Microchip\xc8\v1.33\include\pic16f877a.h"
PIE1 equ 08Ch ;# 
# 1637 "C:\Program Files (x86)\Microchip\xc8\v1.33\include\pic16f877a.h"
PIE2 equ 08Dh ;# 
# 1676 "C:\Program Files (x86)\Microchip\xc8\v1.33\include\pic16f877a.h"
PCON equ 08Eh ;# 
# 1709 "C:\Program Files (x86)\Microchip\xc8\v1.33\include\pic16f877a.h"
SSPCON2 equ 091h ;# 
# 1770 "C:\Program Files (x86)\Microchip\xc8\v1.33\include\pic16f877a.h"
PR2 equ 092h ;# 
# 1776 "C:\Program Files (x86)\Microchip\xc8\v1.33\include\pic16f877a.h"
SSPADD equ 093h ;# 
# 1782 "C:\Program Files (x86)\Microchip\xc8\v1.33\include\pic16f877a.h"
SSPSTAT equ 094h ;# 
# 1950 "C:\Program Files (x86)\Microchip\xc8\v1.33\include\pic16f877a.h"
TXSTA equ 098h ;# 
# 2030 "C:\Program Files (x86)\Microchip\xc8\v1.33\include\pic16f877a.h"
SPBRG equ 099h ;# 
# 2036 "C:\Program Files (x86)\Microchip\xc8\v1.33\include\pic16f877a.h"
CMCON equ 09Ch ;# 
# 2105 "C:\Program Files (x86)\Microchip\xc8\v1.33\include\pic16f877a.h"
CVRCON equ 09Dh ;# 
# 2169 "C:\Program Files (x86)\Microchip\xc8\v1.33\include\pic16f877a.h"
ADRESL equ 09Eh ;# 
# 2175 "C:\Program Files (x86)\Microchip\xc8\v1.33\include\pic16f877a.h"
ADCON1 equ 09Fh ;# 
# 2233 "C:\Program Files (x86)\Microchip\xc8\v1.33\include\pic16f877a.h"
EEDATA equ 010Ch ;# 
# 2239 "C:\Program Files (x86)\Microchip\xc8\v1.33\include\pic16f877a.h"
EEADR equ 010Dh ;# 
# 2245 "C:\Program Files (x86)\Microchip\xc8\v1.33\include\pic16f877a.h"
EEDATH equ 010Eh ;# 
# 2251 "C:\Program Files (x86)\Microchip\xc8\v1.33\include\pic16f877a.h"
EEADRH equ 010Fh ;# 
# 2257 "C:\Program Files (x86)\Microchip\xc8\v1.33\include\pic16f877a.h"
EECON1 equ 018Ch ;# 
# 2301 "C:\Program Files (x86)\Microchip\xc8\v1.33\include\pic16f877a.h"
EECON2 equ 018Dh ;# 
# 49 "C:\Program Files (x86)\Microchip\xc8\v1.33\include\pic16f877a.h"
INDF equ 00h ;# 
# 55 "C:\Program Files (x86)\Microchip\xc8\v1.33\include\pic16f877a.h"
TMR0 equ 01h ;# 
# 61 "C:\Program Files (x86)\Microchip\xc8\v1.33\include\pic16f877a.h"
PCL equ 02h ;# 
# 67 "C:\Program Files (x86)\Microchip\xc8\v1.33\include\pic16f877a.h"
STATUS equ 03h ;# 
# 154 "C:\Program Files (x86)\Microchip\xc8\v1.33\include\pic16f877a.h"
FSR equ 04h ;# 
# 160 "C:\Program Files (x86)\Microchip\xc8\v1.33\include\pic16f877a.h"
PORTA equ 05h ;# 
# 209 "C:\Program Files (x86)\Microchip\xc8\v1.33\include\pic16f877a.h"
PORTB equ 06h ;# 
# 270 "C:\Program Files (x86)\Microchip\xc8\v1.33\include\pic16f877a.h"
PORTC equ 07h ;# 
# 331 "C:\Program Files (x86)\Microchip\xc8\v1.33\include\pic16f877a.h"
PORTD equ 08h ;# 
# 392 "C:\Program Files (x86)\Microchip\xc8\v1.33\include\pic16f877a.h"
PORTE equ 09h ;# 
# 423 "C:\Program Files (x86)\Microchip\xc8\v1.33\include\pic16f877a.h"
PCLATH equ 0Ah ;# 
# 442 "C:\Program Files (x86)\Microchip\xc8\v1.33\include\pic16f877a.h"
INTCON equ 0Bh ;# 
# 519 "C:\Program Files (x86)\Microchip\xc8\v1.33\include\pic16f877a.h"
PIR1 equ 0Ch ;# 
# 580 "C:\Program Files (x86)\Microchip\xc8\v1.33\include\pic16f877a.h"
PIR2 equ 0Dh ;# 
# 619 "C:\Program Files (x86)\Microchip\xc8\v1.33\include\pic16f877a.h"
TMR1 equ 0Eh ;# 
# 625 "C:\Program Files (x86)\Microchip\xc8\v1.33\include\pic16f877a.h"
TMR1L equ 0Eh ;# 
# 631 "C:\Program Files (x86)\Microchip\xc8\v1.33\include\pic16f877a.h"
TMR1H equ 0Fh ;# 
# 637 "C:\Program Files (x86)\Microchip\xc8\v1.33\include\pic16f877a.h"
T1CON equ 010h ;# 
# 711 "C:\Program Files (x86)\Microchip\xc8\v1.33\include\pic16f877a.h"
TMR2 equ 011h ;# 
# 717 "C:\Program Files (x86)\Microchip\xc8\v1.33\include\pic16f877a.h"
T2CON equ 012h ;# 
# 787 "C:\Program Files (x86)\Microchip\xc8\v1.33\include\pic16f877a.h"
SSPBUF equ 013h ;# 
# 793 "C:\Program Files (x86)\Microchip\xc8\v1.33\include\pic16f877a.h"
SSPCON equ 014h ;# 
# 862 "C:\Program Files (x86)\Microchip\xc8\v1.33\include\pic16f877a.h"
CCPR1 equ 015h ;# 
# 868 "C:\Program Files (x86)\Microchip\xc8\v1.33\include\pic16f877a.h"
CCPR1L equ 015h ;# 
# 874 "C:\Program Files (x86)\Microchip\xc8\v1.33\include\pic16f877a.h"
CCPR1H equ 016h ;# 
# 880 "C:\Program Files (x86)\Microchip\xc8\v1.33\include\pic16f877a.h"
CCP1CON equ 017h ;# 
# 937 "C:\Program Files (x86)\Microchip\xc8\v1.33\include\pic16f877a.h"
RCSTA equ 018h ;# 
# 1031 "C:\Program Files (x86)\Microchip\xc8\v1.33\include\pic16f877a.h"
TXREG equ 019h ;# 
# 1037 "C:\Program Files (x86)\Microchip\xc8\v1.33\include\pic16f877a.h"
RCREG equ 01Ah ;# 
# 1043 "C:\Program Files (x86)\Microchip\xc8\v1.33\include\pic16f877a.h"
CCPR2 equ 01Bh ;# 
# 1049 "C:\Program Files (x86)\Microchip\xc8\v1.33\include\pic16f877a.h"
CCPR2L equ 01Bh ;# 
# 1055 "C:\Program Files (x86)\Microchip\xc8\v1.33\include\pic16f877a.h"
CCPR2H equ 01Ch ;# 
# 1061 "C:\Program Files (x86)\Microchip\xc8\v1.33\include\pic16f877a.h"
CCP2CON equ 01Dh ;# 
# 1118 "C:\Program Files (x86)\Microchip\xc8\v1.33\include\pic16f877a.h"
ADRESH equ 01Eh ;# 
# 1124 "C:\Program Files (x86)\Microchip\xc8\v1.33\include\pic16f877a.h"
ADCON0 equ 01Fh ;# 
# 1219 "C:\Program Files (x86)\Microchip\xc8\v1.33\include\pic16f877a.h"
OPTION_REG equ 081h ;# 
# 1288 "C:\Program Files (x86)\Microchip\xc8\v1.33\include\pic16f877a.h"
TRISA equ 085h ;# 
# 1337 "C:\Program Files (x86)\Microchip\xc8\v1.33\include\pic16f877a.h"
TRISB equ 086h ;# 
# 1398 "C:\Program Files (x86)\Microchip\xc8\v1.33\include\pic16f877a.h"
TRISC equ 087h ;# 
# 1459 "C:\Program Files (x86)\Microchip\xc8\v1.33\include\pic16f877a.h"
TRISD equ 088h ;# 
# 1520 "C:\Program Files (x86)\Microchip\xc8\v1.33\include\pic16f877a.h"
TRISE equ 089h ;# 
# 1576 "C:\Program Files (x86)\Microchip\xc8\v1.33\include\pic16f877a.h"
PIE1 equ 08Ch ;# 
# 1637 "C:\Program Files (x86)\Microchip\xc8\v1.33\include\pic16f877a.h"
PIE2 equ 08Dh ;# 
# 1676 "C:\Program Files (x86)\Microchip\xc8\v1.33\include\pic16f877a.h"
PCON equ 08Eh ;# 
# 1709 "C:\Program Files (x86)\Microchip\xc8\v1.33\include\pic16f877a.h"
SSPCON2 equ 091h ;# 
# 1770 "C:\Program Files (x86)\Microchip\xc8\v1.33\include\pic16f877a.h"
PR2 equ 092h ;# 
# 1776 "C:\Program Files (x86)\Microchip\xc8\v1.33\include\pic16f877a.h"
SSPADD equ 093h ;# 
# 1782 "C:\Program Files (x86)\Microchip\xc8\v1.33\include\pic16f877a.h"
SSPSTAT equ 094h ;# 
# 1950 "C:\Program Files (x86)\Microchip\xc8\v1.33\include\pic16f877a.h"
TXSTA equ 098h ;# 
# 2030 "C:\Program Files (x86)\Microchip\xc8\v1.33\include\pic16f877a.h"
SPBRG equ 099h ;# 
# 2036 "C:\Program Files (x86)\Microchip\xc8\v1.33\include\pic16f877a.h"
CMCON equ 09Ch ;# 
# 2105 "C:\Program Files (x86)\Microchip\xc8\v1.33\include\pic16f877a.h"
CVRCON equ 09Dh ;# 
# 2169 "C:\Program Files (x86)\Microchip\xc8\v1.33\include\pic16f877a.h"
ADRESL equ 09Eh ;# 
# 2175 "C:\Program Files (x86)\Microchip\xc8\v1.33\include\pic16f877a.h"
ADCON1 equ 09Fh ;# 
# 2233 "C:\Program Files (x86)\Microchip\xc8\v1.33\include\pic16f877a.h"
EEDATA equ 010Ch ;# 
# 2239 "C:\Program Files (x86)\Microchip\xc8\v1.33\include\pic16f877a.h"
EEADR equ 010Dh ;# 
# 2245 "C:\Program Files (x86)\Microchip\xc8\v1.33\include\pic16f877a.h"
EEDATH equ 010Eh ;# 
# 2251 "C:\Program Files (x86)\Microchip\xc8\v1.33\include\pic16f877a.h"
EEADRH equ 010Fh ;# 
# 2257 "C:\Program Files (x86)\Microchip\xc8\v1.33\include\pic16f877a.h"
EECON1 equ 018Ch ;# 
# 2301 "C:\Program Files (x86)\Microchip\xc8\v1.33\include\pic16f877a.h"
EECON2 equ 018Dh ;# 
# 49 "C:\Program Files (x86)\Microchip\xc8\v1.33\include\pic16f877a.h"
INDF equ 00h ;# 
# 55 "C:\Program Files (x86)\Microchip\xc8\v1.33\include\pic16f877a.h"
TMR0 equ 01h ;# 
# 61 "C:\Program Files (x86)\Microchip\xc8\v1.33\include\pic16f877a.h"
PCL equ 02h ;# 
# 67 "C:\Program Files (x86)\Microchip\xc8\v1.33\include\pic16f877a.h"
STATUS equ 03h ;# 
# 154 "C:\Program Files (x86)\Microchip\xc8\v1.33\include\pic16f877a.h"
FSR equ 04h ;# 
# 160 "C:\Program Files (x86)\Microchip\xc8\v1.33\include\pic16f877a.h"
PORTA equ 05h ;# 
# 209 "C:\Program Files (x86)\Microchip\xc8\v1.33\include\pic16f877a.h"
PORTB equ 06h ;# 
# 270 "C:\Program Files (x86)\Microchip\xc8\v1.33\include\pic16f877a.h"
PORTC equ 07h ;# 
# 331 "C:\Program Files (x86)\Microchip\xc8\v1.33\include\pic16f877a.h"
PORTD equ 08h ;# 
# 392 "C:\Program Files (x86)\Microchip\xc8\v1.33\include\pic16f877a.h"
PORTE equ 09h ;# 
# 423 "C:\Program Files (x86)\Microchip\xc8\v1.33\include\pic16f877a.h"
PCLATH equ 0Ah ;# 
# 442 "C:\Program Files (x86)\Microchip\xc8\v1.33\include\pic16f877a.h"
INTCON equ 0Bh ;# 
# 519 "C:\Program Files (x86)\Microchip\xc8\v1.33\include\pic16f877a.h"
PIR1 equ 0Ch ;# 
# 580 "C:\Program Files (x86)\Microchip\xc8\v1.33\include\pic16f877a.h"
PIR2 equ 0Dh ;# 
# 619 "C:\Program Files (x86)\Microchip\xc8\v1.33\include\pic16f877a.h"
TMR1 equ 0Eh ;# 
# 625 "C:\Program Files (x86)\Microchip\xc8\v1.33\include\pic16f877a.h"
TMR1L equ 0Eh ;# 
# 631 "C:\Program Files (x86)\Microchip\xc8\v1.33\include\pic16f877a.h"
TMR1H equ 0Fh ;# 
# 637 "C:\Program Files (x86)\Microchip\xc8\v1.33\include\pic16f877a.h"
T1CON equ 010h ;# 
# 711 "C:\Program Files (x86)\Microchip\xc8\v1.33\include\pic16f877a.h"
TMR2 equ 011h ;# 
# 717 "C:\Program Files (x86)\Microchip\xc8\v1.33\include\pic16f877a.h"
T2CON equ 012h ;# 
# 787 "C:\Program Files (x86)\Microchip\xc8\v1.33\include\pic16f877a.h"
SSPBUF equ 013h ;# 
# 793 "C:\Program Files (x86)\Microchip\xc8\v1.33\include\pic16f877a.h"
SSPCON equ 014h ;# 
# 862 "C:\Program Files (x86)\Microchip\xc8\v1.33\include\pic16f877a.h"
CCPR1 equ 015h ;# 
# 868 "C:\Program Files (x86)\Microchip\xc8\v1.33\include\pic16f877a.h"
CCPR1L equ 015h ;# 
# 874 "C:\Program Files (x86)\Microchip\xc8\v1.33\include\pic16f877a.h"
CCPR1H equ 016h ;# 
# 880 "C:\Program Files (x86)\Microchip\xc8\v1.33\include\pic16f877a.h"
CCP1CON equ 017h ;# 
# 937 "C:\Program Files (x86)\Microchip\xc8\v1.33\include\pic16f877a.h"
RCSTA equ 018h ;# 
# 1031 "C:\Program Files (x86)\Microchip\xc8\v1.33\include\pic16f877a.h"
TXREG equ 019h ;# 
# 1037 "C:\Program Files (x86)\Microchip\xc8\v1.33\include\pic16f877a.h"
RCREG equ 01Ah ;# 
# 1043 "C:\Program Files (x86)\Microchip\xc8\v1.33\include\pic16f877a.h"
CCPR2 equ 01Bh ;# 
# 1049 "C:\Program Files (x86)\Microchip\xc8\v1.33\include\pic16f877a.h"
CCPR2L equ 01Bh ;# 
# 1055 "C:\Program Files (x86)\Microchip\xc8\v1.33\include\pic16f877a.h"
CCPR2H equ 01Ch ;# 
# 1061 "C:\Program Files (x86)\Microchip\xc8\v1.33\include\pic16f877a.h"
CCP2CON equ 01Dh ;# 
# 1118 "C:\Program Files (x86)\Microchip\xc8\v1.33\include\pic16f877a.h"
ADRESH equ 01Eh ;# 
# 1124 "C:\Program Files (x86)\Microchip\xc8\v1.33\include\pic16f877a.h"
ADCON0 equ 01Fh ;# 
# 1219 "C:\Program Files (x86)\Microchip\xc8\v1.33\include\pic16f877a.h"
OPTION_REG equ 081h ;# 
# 1288 "C:\Program Files (x86)\Microchip\xc8\v1.33\include\pic16f877a.h"
TRISA equ 085h ;# 
# 1337 "C:\Program Files (x86)\Microchip\xc8\v1.33\include\pic16f877a.h"
TRISB equ 086h ;# 
# 1398 "C:\Program Files (x86)\Microchip\xc8\v1.33\include\pic16f877a.h"
TRISC equ 087h ;# 
# 1459 "C:\Program Files (x86)\Microchip\xc8\v1.33\include\pic16f877a.h"
TRISD equ 088h ;# 
# 1520 "C:\Program Files (x86)\Microchip\xc8\v1.33\include\pic16f877a.h"
TRISE equ 089h ;# 
# 1576 "C:\Program Files (x86)\Microchip\xc8\v1.33\include\pic16f877a.h"
PIE1 equ 08Ch ;# 
# 1637 "C:\Program Files (x86)\Microchip\xc8\v1.33\include\pic16f877a.h"
PIE2 equ 08Dh ;# 
# 1676 "C:\Program Files (x86)\Microchip\xc8\v1.33\include\pic16f877a.h"
PCON equ 08Eh ;# 
# 1709 "C:\Program Files (x86)\Microchip\xc8\v1.33\include\pic16f877a.h"
SSPCON2 equ 091h ;# 
# 1770 "C:\Program Files (x86)\Microchip\xc8\v1.33\include\pic16f877a.h"
PR2 equ 092h ;# 
# 1776 "C:\Program Files (x86)\Microchip\xc8\v1.33\include\pic16f877a.h"
SSPADD equ 093h ;# 
# 1782 "C:\Program Files (x86)\Microchip\xc8\v1.33\include\pic16f877a.h"
SSPSTAT equ 094h ;# 
# 1950 "C:\Program Files (x86)\Microchip\xc8\v1.33\include\pic16f877a.h"
TXSTA equ 098h ;# 
# 2030 "C:\Program Files (x86)\Microchip\xc8\v1.33\include\pic16f877a.h"
SPBRG equ 099h ;# 
# 2036 "C:\Program Files (x86)\Microchip\xc8\v1.33\include\pic16f877a.h"
CMCON equ 09Ch ;# 
# 2105 "C:\Program Files (x86)\Microchip\xc8\v1.33\include\pic16f877a.h"
CVRCON equ 09Dh ;# 
# 2169 "C:\Program Files (x86)\Microchip\xc8\v1.33\include\pic16f877a.h"
ADRESL equ 09Eh ;# 
# 2175 "C:\Program Files (x86)\Microchip\xc8\v1.33\include\pic16f877a.h"
ADCON1 equ 09Fh ;# 
# 2233 "C:\Program Files (x86)\Microchip\xc8\v1.33\include\pic16f877a.h"
EEDATA equ 010Ch ;# 
# 2239 "C:\Program Files (x86)\Microchip\xc8\v1.33\include\pic16f877a.h"
EEADR equ 010Dh ;# 
# 2245 "C:\Program Files (x86)\Microchip\xc8\v1.33\include\pic16f877a.h"
EEDATH equ 010Eh ;# 
# 2251 "C:\Program Files (x86)\Microchip\xc8\v1.33\include\pic16f877a.h"
EEADRH equ 010Fh ;# 
# 2257 "C:\Program Files (x86)\Microchip\xc8\v1.33\include\pic16f877a.h"
EECON1 equ 018Ch ;# 
# 2301 "C:\Program Files (x86)\Microchip\xc8\v1.33\include\pic16f877a.h"
EECON2 equ 018Dh ;# 
# 49 "C:\Program Files (x86)\Microchip\xc8\v1.33\include\pic16f877a.h"
INDF equ 00h ;# 
# 55 "C:\Program Files (x86)\Microchip\xc8\v1.33\include\pic16f877a.h"
TMR0 equ 01h ;# 
# 61 "C:\Program Files (x86)\Microchip\xc8\v1.33\include\pic16f877a.h"
PCL equ 02h ;# 
# 67 "C:\Program Files (x86)\Microchip\xc8\v1.33\include\pic16f877a.h"
STATUS equ 03h ;# 
# 154 "C:\Program Files (x86)\Microchip\xc8\v1.33\include\pic16f877a.h"
FSR equ 04h ;# 
# 160 "C:\Program Files (x86)\Microchip\xc8\v1.33\include\pic16f877a.h"
PORTA equ 05h ;# 
# 209 "C:\Program Files (x86)\Microchip\xc8\v1.33\include\pic16f877a.h"
PORTB equ 06h ;# 
# 270 "C:\Program Files (x86)\Microchip\xc8\v1.33\include\pic16f877a.h"
PORTC equ 07h ;# 
# 331 "C:\Program Files (x86)\Microchip\xc8\v1.33\include\pic16f877a.h"
PORTD equ 08h ;# 
# 392 "C:\Program Files (x86)\Microchip\xc8\v1.33\include\pic16f877a.h"
PORTE equ 09h ;# 
# 423 "C:\Program Files (x86)\Microchip\xc8\v1.33\include\pic16f877a.h"
PCLATH equ 0Ah ;# 
# 442 "C:\Program Files (x86)\Microchip\xc8\v1.33\include\pic16f877a.h"
INTCON equ 0Bh ;# 
# 519 "C:\Program Files (x86)\Microchip\xc8\v1.33\include\pic16f877a.h"
PIR1 equ 0Ch ;# 
# 580 "C:\Program Files (x86)\Microchip\xc8\v1.33\include\pic16f877a.h"
PIR2 equ 0Dh ;# 
# 619 "C:\Program Files (x86)\Microchip\xc8\v1.33\include\pic16f877a.h"
TMR1 equ 0Eh ;# 
# 625 "C:\Program Files (x86)\Microchip\xc8\v1.33\include\pic16f877a.h"
TMR1L equ 0Eh ;# 
# 631 "C:\Program Files (x86)\Microchip\xc8\v1.33\include\pic16f877a.h"
TMR1H equ 0Fh ;# 
# 637 "C:\Program Files (x86)\Microchip\xc8\v1.33\include\pic16f877a.h"
T1CON equ 010h ;# 
# 711 "C:\Program Files (x86)\Microchip\xc8\v1.33\include\pic16f877a.h"
TMR2 equ 011h ;# 
# 717 "C:\Program Files (x86)\Microchip\xc8\v1.33\include\pic16f877a.h"
T2CON equ 012h ;# 
# 787 "C:\Program Files (x86)\Microchip\xc8\v1.33\include\pic16f877a.h"
SSPBUF equ 013h ;# 
# 793 "C:\Program Files (x86)\Microchip\xc8\v1.33\include\pic16f877a.h"
SSPCON equ 014h ;# 
# 862 "C:\Program Files (x86)\Microchip\xc8\v1.33\include\pic16f877a.h"
CCPR1 equ 015h ;# 
# 868 "C:\Program Files (x86)\Microchip\xc8\v1.33\include\pic16f877a.h"
CCPR1L equ 015h ;# 
# 874 "C:\Program Files (x86)\Microchip\xc8\v1.33\include\pic16f877a.h"
CCPR1H equ 016h ;# 
# 880 "C:\Program Files (x86)\Microchip\xc8\v1.33\include\pic16f877a.h"
CCP1CON equ 017h ;# 
# 937 "C:\Program Files (x86)\Microchip\xc8\v1.33\include\pic16f877a.h"
RCSTA equ 018h ;# 
# 1031 "C:\Program Files (x86)\Microchip\xc8\v1.33\include\pic16f877a.h"
TXREG equ 019h ;# 
# 1037 "C:\Program Files (x86)\Microchip\xc8\v1.33\include\pic16f877a.h"
RCREG equ 01Ah ;# 
# 1043 "C:\Program Files (x86)\Microchip\xc8\v1.33\include\pic16f877a.h"
CCPR2 equ 01Bh ;# 
# 1049 "C:\Program Files (x86)\Microchip\xc8\v1.33\include\pic16f877a.h"
CCPR2L equ 01Bh ;# 
# 1055 "C:\Program Files (x86)\Microchip\xc8\v1.33\include\pic16f877a.h"
CCPR2H equ 01Ch ;# 
# 1061 "C:\Program Files (x86)\Microchip\xc8\v1.33\include\pic16f877a.h"
CCP2CON equ 01Dh ;# 
# 1118 "C:\Program Files (x86)\Microchip\xc8\v1.33\include\pic16f877a.h"
ADRESH equ 01Eh ;# 
# 1124 "C:\Program Files (x86)\Microchip\xc8\v1.33\include\pic16f877a.h"
ADCON0 equ 01Fh ;# 
# 1219 "C:\Program Files (x86)\Microchip\xc8\v1.33\include\pic16f877a.h"
OPTION_REG equ 081h ;# 
# 1288 "C:\Program Files (x86)\Microchip\xc8\v1.33\include\pic16f877a.h"
TRISA equ 085h ;# 
# 1337 "C:\Program Files (x86)\Microchip\xc8\v1.33\include\pic16f877a.h"
TRISB equ 086h ;# 
# 1398 "C:\Program Files (x86)\Microchip\xc8\v1.33\include\pic16f877a.h"
TRISC equ 087h ;# 
# 1459 "C:\Program Files (x86)\Microchip\xc8\v1.33\include\pic16f877a.h"
TRISD equ 088h ;# 
# 1520 "C:\Program Files (x86)\Microchip\xc8\v1.33\include\pic16f877a.h"
TRISE equ 089h ;# 
# 1576 "C:\Program Files (x86)\Microchip\xc8\v1.33\include\pic16f877a.h"
PIE1 equ 08Ch ;# 
# 1637 "C:\Program Files (x86)\Microchip\xc8\v1.33\include\pic16f877a.h"
PIE2 equ 08Dh ;# 
# 1676 "C:\Program Files (x86)\Microchip\xc8\v1.33\include\pic16f877a.h"
PCON equ 08Eh ;# 
# 1709 "C:\Program Files (x86)\Microchip\xc8\v1.33\include\pic16f877a.h"
SSPCON2 equ 091h ;# 
# 1770 "C:\Program Files (x86)\Microchip\xc8\v1.33\include\pic16f877a.h"
PR2 equ 092h ;# 
# 1776 "C:\Program Files (x86)\Microchip\xc8\v1.33\include\pic16f877a.h"
SSPADD equ 093h ;# 
# 1782 "C:\Program Files (x86)\Microchip\xc8\v1.33\include\pic16f877a.h"
SSPSTAT equ 094h ;# 
# 1950 "C:\Program Files (x86)\Microchip\xc8\v1.33\include\pic16f877a.h"
TXSTA equ 098h ;# 
# 2030 "C:\Program Files (x86)\Microchip\xc8\v1.33\include\pic16f877a.h"
SPBRG equ 099h ;# 
# 2036 "C:\Program Files (x86)\Microchip\xc8\v1.33\include\pic16f877a.h"
CMCON equ 09Ch ;# 
# 2105 "C:\Program Files (x86)\Microchip\xc8\v1.33\include\pic16f877a.h"
CVRCON equ 09Dh ;# 
# 2169 "C:\Program Files (x86)\Microchip\xc8\v1.33\include\pic16f877a.h"
ADRESL equ 09Eh ;# 
# 2175 "C:\Program Files (x86)\Microchip\xc8\v1.33\include\pic16f877a.h"
ADCON1 equ 09Fh ;# 
# 2233 "C:\Program Files (x86)\Microchip\xc8\v1.33\include\pic16f877a.h"
EEDATA equ 010Ch ;# 
# 2239 "C:\Program Files (x86)\Microchip\xc8\v1.33\include\pic16f877a.h"
EEADR equ 010Dh ;# 
# 2245 "C:\Program Files (x86)\Microchip\xc8\v1.33\include\pic16f877a.h"
EEDATH equ 010Eh ;# 
# 2251 "C:\Program Files (x86)\Microchip\xc8\v1.33\include\pic16f877a.h"
EEADRH equ 010Fh ;# 
# 2257 "C:\Program Files (x86)\Microchip\xc8\v1.33\include\pic16f877a.h"
EECON1 equ 018Ch ;# 
# 2301 "C:\Program Files (x86)\Microchip\xc8\v1.33\include\pic16f877a.h"
EECON2 equ 018Dh ;# 
# 49 "C:\Program Files (x86)\Microchip\xc8\v1.33\include\pic16f877a.h"
INDF equ 00h ;# 
# 55 "C:\Program Files (x86)\Microchip\xc8\v1.33\include\pic16f877a.h"
TMR0 equ 01h ;# 
# 61 "C:\Program Files (x86)\Microchip\xc8\v1.33\include\pic16f877a.h"
PCL equ 02h ;# 
# 67 "C:\Program Files (x86)\Microchip\xc8\v1.33\include\pic16f877a.h"
STATUS equ 03h ;# 
# 154 "C:\Program Files (x86)\Microchip\xc8\v1.33\include\pic16f877a.h"
FSR equ 04h ;# 
# 160 "C:\Program Files (x86)\Microchip\xc8\v1.33\include\pic16f877a.h"
PORTA equ 05h ;# 
# 209 "C:\Program Files (x86)\Microchip\xc8\v1.33\include\pic16f877a.h"
PORTB equ 06h ;# 
# 270 "C:\Program Files (x86)\Microchip\xc8\v1.33\include\pic16f877a.h"
PORTC equ 07h ;# 
# 331 "C:\Program Files (x86)\Microchip\xc8\v1.33\include\pic16f877a.h"
PORTD equ 08h ;# 
# 392 "C:\Program Files (x86)\Microchip\xc8\v1.33\include\pic16f877a.h"
PORTE equ 09h ;# 
# 423 "C:\Program Files (x86)\Microchip\xc8\v1.33\include\pic16f877a.h"
PCLATH equ 0Ah ;# 
# 442 "C:\Program Files (x86)\Microchip\xc8\v1.33\include\pic16f877a.h"
INTCON equ 0Bh ;# 
# 519 "C:\Program Files (x86)\Microchip\xc8\v1.33\include\pic16f877a.h"
PIR1 equ 0Ch ;# 
# 580 "C:\Program Files (x86)\Microchip\xc8\v1.33\include\pic16f877a.h"
PIR2 equ 0Dh ;# 
# 619 "C:\Program Files (x86)\Microchip\xc8\v1.33\include\pic16f877a.h"
TMR1 equ 0Eh ;# 
# 625 "C:\Program Files (x86)\Microchip\xc8\v1.33\include\pic16f877a.h"
TMR1L equ 0Eh ;# 
# 631 "C:\Program Files (x86)\Microchip\xc8\v1.33\include\pic16f877a.h"
TMR1H equ 0Fh ;# 
# 637 "C:\Program Files (x86)\Microchip\xc8\v1.33\include\pic16f877a.h"
T1CON equ 010h ;# 
# 711 "C:\Program Files (x86)\Microchip\xc8\v1.33\include\pic16f877a.h"
TMR2 equ 011h ;# 
# 717 "C:\Program Files (x86)\Microchip\xc8\v1.33\include\pic16f877a.h"
T2CON equ 012h ;# 
# 787 "C:\Program Files (x86)\Microchip\xc8\v1.33\include\pic16f877a.h"
SSPBUF equ 013h ;# 
# 793 "C:\Program Files (x86)\Microchip\xc8\v1.33\include\pic16f877a.h"
SSPCON equ 014h ;# 
# 862 "C:\Program Files (x86)\Microchip\xc8\v1.33\include\pic16f877a.h"
CCPR1 equ 015h ;# 
# 868 "C:\Program Files (x86)\Microchip\xc8\v1.33\include\pic16f877a.h"
CCPR1L equ 015h ;# 
# 874 "C:\Program Files (x86)\Microchip\xc8\v1.33\include\pic16f877a.h"
CCPR1H equ 016h ;# 
# 880 "C:\Program Files (x86)\Microchip\xc8\v1.33\include\pic16f877a.h"
CCP1CON equ 017h ;# 
# 937 "C:\Program Files (x86)\Microchip\xc8\v1.33\include\pic16f877a.h"
RCSTA equ 018h ;# 
# 1031 "C:\Program Files (x86)\Microchip\xc8\v1.33\include\pic16f877a.h"
TXREG equ 019h ;# 
# 1037 "C:\Program Files (x86)\Microchip\xc8\v1.33\include\pic16f877a.h"
RCREG equ 01Ah ;# 
# 1043 "C:\Program Files (x86)\Microchip\xc8\v1.33\include\pic16f877a.h"
CCPR2 equ 01Bh ;# 
# 1049 "C:\Program Files (x86)\Microchip\xc8\v1.33\include\pic16f877a.h"
CCPR2L equ 01Bh ;# 
# 1055 "C:\Program Files (x86)\Microchip\xc8\v1.33\include\pic16f877a.h"
CCPR2H equ 01Ch ;# 
# 1061 "C:\Program Files (x86)\Microchip\xc8\v1.33\include\pic16f877a.h"
CCP2CON equ 01Dh ;# 
# 1118 "C:\Program Files (x86)\Microchip\xc8\v1.33\include\pic16f877a.h"
ADRESH equ 01Eh ;# 
# 1124 "C:\Program Files (x86)\Microchip\xc8\v1.33\include\pic16f877a.h"
ADCON0 equ 01Fh ;# 
# 1219 "C:\Program Files (x86)\Microchip\xc8\v1.33\include\pic16f877a.h"
OPTION_REG equ 081h ;# 
# 1288 "C:\Program Files (x86)\Microchip\xc8\v1.33\include\pic16f877a.h"
TRISA equ 085h ;# 
# 1337 "C:\Program Files (x86)\Microchip\xc8\v1.33\include\pic16f877a.h"
TRISB equ 086h ;# 
# 1398 "C:\Program Files (x86)\Microchip\xc8\v1.33\include\pic16f877a.h"
TRISC equ 087h ;# 
# 1459 "C:\Program Files (x86)\Microchip\xc8\v1.33\include\pic16f877a.h"
TRISD equ 088h ;# 
# 1520 "C:\Program Files (x86)\Microchip\xc8\v1.33\include\pic16f877a.h"
TRISE equ 089h ;# 
# 1576 "C:\Program Files (x86)\Microchip\xc8\v1.33\include\pic16f877a.h"
PIE1 equ 08Ch ;# 
# 1637 "C:\Program Files (x86)\Microchip\xc8\v1.33\include\pic16f877a.h"
PIE2 equ 08Dh ;# 
# 1676 "C:\Program Files (x86)\Microchip\xc8\v1.33\include\pic16f877a.h"
PCON equ 08Eh ;# 
# 1709 "C:\Program Files (x86)\Microchip\xc8\v1.33\include\pic16f877a.h"
SSPCON2 equ 091h ;# 
# 1770 "C:\Program Files (x86)\Microchip\xc8\v1.33\include\pic16f877a.h"
PR2 equ 092h ;# 
# 1776 "C:\Program Files (x86)\Microchip\xc8\v1.33\include\pic16f877a.h"
SSPADD equ 093h ;# 
# 1782 "C:\Program Files (x86)\Microchip\xc8\v1.33\include\pic16f877a.h"
SSPSTAT equ 094h ;# 
# 1950 "C:\Program Files (x86)\Microchip\xc8\v1.33\include\pic16f877a.h"
TXSTA equ 098h ;# 
# 2030 "C:\Program Files (x86)\Microchip\xc8\v1.33\include\pic16f877a.h"
SPBRG equ 099h ;# 
# 2036 "C:\Program Files (x86)\Microchip\xc8\v1.33\include\pic16f877a.h"
CMCON equ 09Ch ;# 
# 2105 "C:\Program Files (x86)\Microchip\xc8\v1.33\include\pic16f877a.h"
CVRCON equ 09Dh ;# 
# 2169 "C:\Program Files (x86)\Microchip\xc8\v1.33\include\pic16f877a.h"
ADRESL equ 09Eh ;# 
# 2175 "C:\Program Files (x86)\Microchip\xc8\v1.33\include\pic16f877a.h"
ADCON1 equ 09Fh ;# 
# 2233 "C:\Program Files (x86)\Microchip\xc8\v1.33\include\pic16f877a.h"
EEDATA equ 010Ch ;# 
# 2239 "C:\Program Files (x86)\Microchip\xc8\v1.33\include\pic16f877a.h"
EEADR equ 010Dh ;# 
# 2245 "C:\Program Files (x86)\Microchip\xc8\v1.33\include\pic16f877a.h"
EEDATH equ 010Eh ;# 
# 2251 "C:\Program Files (x86)\Microchip\xc8\v1.33\include\pic16f877a.h"
EEADRH equ 010Fh ;# 
# 2257 "C:\Program Files (x86)\Microchip\xc8\v1.33\include\pic16f877a.h"
EECON1 equ 018Ch ;# 
# 2301 "C:\Program Files (x86)\Microchip\xc8\v1.33\include\pic16f877a.h"
EECON2 equ 018Dh ;# 
	FNCALL	_main,_ADC_Init
	FNCALL	_main,_LCD_Clear
	FNCALL	_main,_LCD_Cursor
	FNCALL	_main,_LCD_Init
	FNCALL	_main,_LCD_WriteString
	FNCALL	_main,_PWM_DutyCycle1
	FNCALL	_main,_PWM_DutyCycle2
	FNCALL	_main,_PWM_Init
	FNCALL	_main,_TIMER0_Init
	FNCALL	_main,_TIMER0_Set
	FNCALL	_main,_USART_Init
	FNCALL	_main,_sprintf
	FNCALL	_sprintf,___lwdiv
	FNCALL	_sprintf,___lwmod
	FNCALL	_sprintf,___wmul
	FNCALL	_sprintf,_isdigit
	FNCALL	_USART_Init,___aldiv
	FNCALL	_LCD_WriteString,_LCD_WriteData
	FNCALL	_LCD_Init,_LCD_WriteCmd
	FNCALL	_LCD_Clear,_LCD_WriteCmd
	FNROOT	_main
	FNCALL	_ISR,_USART_ReceiveChar
	FNCALL	_ISR,___awtoft
	FNCALL	_ISR,___ftadd
	FNCALL	_ISR,___ftdiv
	FNCALL	_ISR,___ftge
	FNCALL	_ISR,___ftmul
	FNCALL	_ISR,___ftneg
	FNCALL	_ISR,___fttol
	FNCALL	_ISR,___lwtoft
	FNCALL	_ISR,_send
	FNCALL	_ISR,_trimf
	FNCALL	_ISR,i1_PWM_DutyCycle2
	FNCALL	_ISR,i1_TIMER0_Set
	FNCALL	_ISR,i1___wmul
	FNCALL	_trimf,___ftadd
	FNCALL	_trimf,___ftdiv
	FNCALL	_trimf,___ftge
	FNCALL	_trimf,___ftneg
	FNCALL	___ftdiv,___ftpack
	FNCALL	___ftadd,___ftpack
	FNCALL	_send,_USART_WriteChar
	FNCALL	___lwtoft,___ftpack
	FNCALL	___ftmul,___ftpack
	FNCALL	___awtoft,___ftpack
	FNCALL	_USART_ReceiveChar,_USART_WriteString
	FNCALL	_USART_WriteString,_USART_WriteChar
	FNCALL	intlevel1,_ISR
	global	intlevel1
	FNROOT	intlevel1
	global	_ligado
psect	idataBANK1,class=CODE,space=0,delta=2,noexec
global __pidataBANK1
__pidataBANK1:
	file	"E:\projeto-fuzzy-rpm\firmware\main.c"
	line	39

;initializer for _ligado
	retlw	01h
	retlw	0

	global	_dpowers
psect	strings,class=STRING,delta=2,noexec
global __pstrings
__pstrings:
stringtab:
	global    __stringtab
__stringtab:
;	String table - string pointers are 1 byte each
	btfsc	(btemp+1),7
	ljmp	stringcode
	bcf	status,7
	btfsc	(btemp+1),0
	bsf	status,7
	movf	indf,w
	incf fsr
skipnz
incf btemp+1
	return
stringcode:stringdir:
movlw high(stringdir)
movwf pclath
movf fsr,w
incf fsr
	addwf pc
	global __stringbase
__stringbase:
	retlw	0
psect	strings
	global    __end_of__stringtab
__end_of__stringtab:
	file	"C:\Program Files (x86)\Microchip\xc8\v1.33\sources\common\doprnt.c"
	line	354
_dpowers:
	retlw	01h
	retlw	0

	retlw	0Ah
	retlw	0

	retlw	064h
	retlw	0

	retlw	0E8h
	retlw	03h

	retlw	010h
	retlw	027h

	global __end_of_dpowers
__end_of_dpowers:
	global	_dpowers
	global	_fuzzy_delta
	global	_fuzzy_erro
	global	_temp_lida
	global	_variacao_fuzzy
	global	_ADCResult
	global	_contador_rb6
	global	_contagens_tm0
	global	_delta
	global	_erro_anterior
	global	_erro_atual
	global	_pulsos
	global	_pwm
	global	_receiveIndex
	global	_rpm
	global	_setpoint
	global	_status
	global	_tempo_rb6
	global	_fuzzy
	global	_buffer
	global	_receivedBuffer
	global	_display
	global	_TMR1
_TMR1	set	0xE
	global	_ADCON0bits
_ADCON0bits	set	0x1F
	global	_ADRESH
_ADRESH	set	0x1E
	global	_CCP1CON
_CCP1CON	set	0x17
	global	_CCP1CONbits
_CCP1CONbits	set	0x17
	global	_CCP2CON
_CCP2CON	set	0x1D
	global	_CCP2CONbits
_CCP2CONbits	set	0x1D
	global	_CCPR1L
_CCPR1L	set	0x15
	global	_CCPR2L
_CCPR2L	set	0x1B
	global	_INTCONbits
_INTCONbits	set	0xB
	global	_PIR1bits
_PIR1bits	set	0xC
	global	_PIR2bits
_PIR2bits	set	0xD
	global	_PORTA
_PORTA	set	0x5
	global	_PORTB
_PORTB	set	0x6
	global	_PORTBbits
_PORTBbits	set	0x6
	global	_PORTC
_PORTC	set	0x7
	global	_PORTD
_PORTD	set	0x8
	global	_PORTE
_PORTE	set	0x9
	global	_PORTEbits
_PORTEbits	set	0x9
	global	_RCREG
_RCREG	set	0x1A
	global	_RCSTAbits
_RCSTAbits	set	0x18
	global	_SSPBUF
_SSPBUF	set	0x13
	global	_SSPCONbits
_SSPCONbits	set	0x14
	global	_T1CON
_T1CON	set	0x10
	global	_T1CONbits
_T1CONbits	set	0x10
	global	_T2CONbits
_T2CONbits	set	0x12
	global	_TMR0
_TMR0	set	0x1
	global	_TMR1H
_TMR1H	set	0xF
	global	_TMR1L
_TMR1L	set	0xE
	global	_TXREG
_TXREG	set	0x19
	global	_OERR
_OERR	set	0xC1
	global	_ADCON1bits
_ADCON1bits	set	0x9F
	global	_ADRESL
_ADRESL	set	0x9E
	global	_OPTION_REGbits
_OPTION_REGbits	set	0x81
	global	_PIE1bits
_PIE1bits	set	0x8C
	global	_PIE2bits
_PIE2bits	set	0x8D
	global	_PR2
_PR2	set	0x92
	global	_SPBRG
_SPBRG	set	0x99
	global	_SSPADD
_SSPADD	set	0x93
	global	_SSPCON2
_SSPCON2	set	0x91
	global	_SSPCON2bits
_SSPCON2bits	set	0x91
	global	_SSPSTATbits
_SSPSTATbits	set	0x94
	global	_TRISA
_TRISA	set	0x85
	global	_TRISB
_TRISB	set	0x86
	global	_TRISC
_TRISC	set	0x87
	global	_TRISD
_TRISD	set	0x88
	global	_TRISE
_TRISE	set	0x89
	global	_TXSTAbits
_TXSTAbits	set	0x98
	global	_EEADR
_EEADR	set	0x10D
	global	_EEDATA
_EEDATA	set	0x10C
	global	_EECON1bits
_EECON1bits	set	0x18C
	global	_EECON2
_EECON2	set	0x18D
	global __stringdata
__stringdata:
	
STR_4:	
	retlw	10
	retlw	13
	retlw	32	;' '
	retlw	45	;'-'
	retlw	45	;'-'
	retlw	45	;'-'
	retlw	45	;'-'
	retlw	45	;'-'
	retlw	45	;'-'
	retlw	45	;'-'
	retlw	32	;' '
	retlw	69	;'E'
	retlw	83	;'S'
	retlw	84	;'T'
	retlw	79	;'O'
	retlw	85	;'U'
	retlw	82	;'R'
	retlw	79	;'O'
	retlw	32	;' '
	retlw	68	;'D'
	retlw	69	;'E'
	retlw	32	;' '
	retlw	80	;'P'
	retlw	73	;'I'
	retlw	76	;'L'
	retlw	72	;'H'
	retlw	65	;'A'
	retlw	32	;' '
	retlw	45	;'-'
	retlw	45	;'-'
	retlw	45	;'-'
	retlw	45	;'-'
	retlw	45	;'-'
	retlw	45	;'-'
	retlw	45	;'-'
	retlw	32	;' '
	retlw	10
	retlw	13
	retlw	32	;' '
	retlw	0
psect	strings
	
STR_1:	
	retlw	73	;'I'
	retlw	110	;'n'
	retlw	105	;'i'
	retlw	99	;'c'
	retlw	105	;'i'
	retlw	97	;'a'
	retlw	108	;'l'
	retlw	105	;'i'
	retlw	122	;'z'
	retlw	97	;'a'
	retlw	110	;'n'
	retlw	100	;'d'
	retlw	111	;'o'
	retlw	46	;'.'
	retlw	46	;'.'
	retlw	46	;'.'
	retlw	0
psect	strings
	
STR_3:	
	retlw	82	;'R'
	retlw	80	;'P'
	retlw	77	;'M'
	retlw	58	;':'
	retlw	32	;' '
	retlw	0
psect	strings
	
STR_2:	
	retlw	37	;'%'
	retlw	48	;'0'
	retlw	52	;'4'
	retlw	100	;'d'
	retlw	0
psect	strings
	global __end_of__stringdata
__end_of__stringdata:
; #config settings
global __CFG_WDTE$OFF
__CFG_WDTE$OFF equ 0x0
global __CFG_PWRTE$ON
__CFG_PWRTE$ON equ 0x0
global __CFG_CP$OFF
__CFG_CP$OFF equ 0x0
global __CFG_BOREN$OFF
__CFG_BOREN$OFF equ 0x0
global __CFG_LVP$OFF
__CFG_LVP$OFF equ 0x0
global __CFG_CPD$OFF
__CFG_CPD$OFF equ 0x0
global __CFG_FOSC$HS
__CFG_FOSC$HS equ 0x0
	file	"PIC16F877A.as"
	line	#
psect cinit,class=CODE,delta=2
global start_initialization
start_initialization:

global __initialization
__initialization:
psect	bssBANK1,class=BANK1,space=1,noexec
global __pbssBANK1
__pbssBANK1:
_fuzzy_delta:
       ds      3

_fuzzy_erro:
       ds      3

_temp_lida:
       ds      3

_variacao_fuzzy:
       ds      3

_ADCResult:
       ds      2

_contador_rb6:
       ds      2

_contagens_tm0:
       ds      2

_delta:
       ds      2

_erro_anterior:
       ds      2

_erro_atual:
       ds      2

_pulsos:
       ds      2

_pwm:
       ds      2

_receiveIndex:
       ds      2

_rpm:
       ds      2

_setpoint:
       ds      2

_status:
       ds      2

_tempo_rb6:
       ds      2

_fuzzy:
       ds      3

psect	dataBANK1,class=BANK1,space=1,noexec
global __pdataBANK1
__pdataBANK1:
	file	"E:\projeto-fuzzy-rpm\firmware\main.c"
	line	39
_ligado:
       ds      2

psect	bssBANK3,class=BANK3,space=1,noexec
global __pbssBANK3
__pbssBANK3:
_buffer:
       ds      7

_receivedBuffer:
       ds      7

_display:
       ds      10

	file	"PIC16F877A.as"
	line	#
psect clrtext,class=CODE,delta=2
global clear_ram0
;	Called with FSR containing the base address, and
;	W with the last address+1
clear_ram0:
	clrwdt			;clear the watchdog before getting into this loop
clrloop0:
	clrf	indf		;clear RAM location pointed to by FSR
	incf	fsr,f		;increment pointer
	xorwf	fsr,w		;XOR with final address
	btfsc	status,2	;have we reached the end yet?
	retlw	0		;all done for this memory range, return
	xorwf	fsr,w		;XOR again to restore value
	goto	clrloop0		;do the next byte

; Clear objects allocated to BANK1
psect cinit,class=CODE,delta=2,merge=1
	bcf	status, 7	;select IRP bank0
	movlw	low(__pbssBANK1)
	movwf	fsr
	movlw	low((__pbssBANK1)+029h)
	fcall	clear_ram0
; Clear objects allocated to BANK3
psect cinit,class=CODE,delta=2,merge=1
	bsf	status, 7	;select IRP bank2
	movlw	low(__pbssBANK3)
	movwf	fsr
	movlw	low((__pbssBANK3)+018h)
	fcall	clear_ram0
	line	#
; Initialize objects allocated to BANK1
	global __pidataBANK1
psect cinit,class=CODE,delta=2,merge=1
	bsf	status, 5	;RP0=1, select bank1
	bcf	status, 6	;RP1=0, select bank1
	fcall	__pidataBANK1+0		;fetch initializer
	movwf	__pdataBANK1+0&07fh		
	fcall	__pidataBANK1+1		;fetch initializer
	movwf	__pdataBANK1+1&07fh		
psect cinit,class=CODE,delta=2,merge=1
global end_of_initialization,__end_of__initialization

;End of C runtime variable initialization code

end_of_initialization:
__end_of__initialization:clrf status
ljmp _main	;jump to C main() function
psect	cstackBANK1,class=BANK1,space=1,noexec
global __pcstackBANK1
__pcstackBANK1:
??_TIMER0_Set:	; 0 bytes @ 0x0
?_PWM_DutyCycle2:	; 0 bytes @ 0x0
??_TIMER0_Init:	; 0 bytes @ 0x0
??_ADC_Init:	; 0 bytes @ 0x0
??_PWM_Init:	; 0 bytes @ 0x0
?_LCD_Cursor:	; 0 bytes @ 0x0
?_PWM_DutyCycle1:	; 0 bytes @ 0x0
??_isdigit:	; 0 bytes @ 0x0
??_LCD_WriteCmd:	; 0 bytes @ 0x0
??_LCD_WriteData:	; 0 bytes @ 0x0
	global	?___wmul
?___wmul:	; 2 bytes @ 0x0
	global	?___lwdiv
?___lwdiv:	; 2 bytes @ 0x0
	global	?___aldiv
?___aldiv:	; 4 bytes @ 0x0
	global	TIMER0_Set@contagens
TIMER0_Set@contagens:	; 1 bytes @ 0x0
	global	LCD_Cursor@Col
LCD_Cursor@Col:	; 1 bytes @ 0x0
	global	_isdigit$1414
_isdigit$1414:	; 1 bytes @ 0x0
	global	PWM_DutyCycle1@valor
PWM_DutyCycle1@valor:	; 2 bytes @ 0x0
	global	PWM_DutyCycle2@valor
PWM_DutyCycle2@valor:	; 2 bytes @ 0x0
	global	___wmul@multiplier
___wmul@multiplier:	; 2 bytes @ 0x0
	global	___lwdiv@divisor
___lwdiv@divisor:	; 2 bytes @ 0x0
	global	___aldiv@divisor
___aldiv@divisor:	; 4 bytes @ 0x0
	ds	1
??_LCD_Cursor:	; 0 bytes @ 0x1
	global	LCD_WriteCmd@Byte
LCD_WriteCmd@Byte:	; 1 bytes @ 0x1
	global	LCD_WriteData@Byte
LCD_WriteData@Byte:	; 1 bytes @ 0x1
	global	isdigit@c
isdigit@c:	; 1 bytes @ 0x1
	ds	1
??_PWM_DutyCycle2:	; 0 bytes @ 0x2
??_LCD_Init:	; 0 bytes @ 0x2
?_LCD_WriteString:	; 0 bytes @ 0x2
??_PWM_DutyCycle1:	; 0 bytes @ 0x2
??_LCD_Clear:	; 0 bytes @ 0x2
	global	LCD_Cursor@Row
LCD_Cursor@Row:	; 1 bytes @ 0x2
	global	LCD_WriteString@Str
LCD_WriteString@Str:	; 2 bytes @ 0x2
	global	___wmul@multiplicand
___wmul@multiplicand:	; 2 bytes @ 0x2
	global	___lwdiv@dividend
___lwdiv@dividend:	; 2 bytes @ 0x2
	ds	2
??_LCD_WriteString:	; 0 bytes @ 0x4
??___wmul:	; 0 bytes @ 0x4
??___lwdiv:	; 0 bytes @ 0x4
	global	___wmul@product
___wmul@product:	; 2 bytes @ 0x4
	global	___aldiv@dividend
___aldiv@dividend:	; 4 bytes @ 0x4
	ds	1
	global	___lwdiv@quotient
___lwdiv@quotient:	; 2 bytes @ 0x5
	ds	2
	global	___lwdiv@counter
___lwdiv@counter:	; 1 bytes @ 0x7
	ds	1
??___aldiv:	; 0 bytes @ 0x8
	global	?___lwmod
?___lwmod:	; 2 bytes @ 0x8
	global	___lwmod@divisor
___lwmod@divisor:	; 2 bytes @ 0x8
	ds	1
	global	___aldiv@counter
___aldiv@counter:	; 1 bytes @ 0x9
	ds	1
	global	___aldiv@sign
___aldiv@sign:	; 1 bytes @ 0xA
	global	___lwmod@dividend
___lwmod@dividend:	; 2 bytes @ 0xA
	ds	1
	global	___aldiv@quotient
___aldiv@quotient:	; 4 bytes @ 0xB
	ds	1
??___lwmod:	; 0 bytes @ 0xC
	ds	1
	global	___lwmod@counter
___lwmod@counter:	; 1 bytes @ 0xD
	ds	1
	global	?_sprintf
?_sprintf:	; 2 bytes @ 0xE
	global	sprintf@f
sprintf@f:	; 1 bytes @ 0xE
	ds	1
?_USART_Init:	; 0 bytes @ 0xF
	global	USART_Init@BaudRate
USART_Init@BaudRate:	; 4 bytes @ 0xF
	ds	2
??_sprintf:	; 0 bytes @ 0x11
	ds	2
??_USART_Init:	; 0 bytes @ 0x13
	ds	1
	global	sprintf@ap
sprintf@ap:	; 1 bytes @ 0x14
	ds	1
	global	sprintf@prec
sprintf@prec:	; 1 bytes @ 0x15
	ds	1
	global	sprintf@_val
sprintf@_val:	; 4 bytes @ 0x16
	ds	4
	global	sprintf@flag
sprintf@flag:	; 1 bytes @ 0x1A
	ds	1
	global	sprintf@width
sprintf@width:	; 2 bytes @ 0x1B
	ds	2
	global	sprintf@sp
sprintf@sp:	; 1 bytes @ 0x1D
	ds	1
	global	sprintf@c
sprintf@c:	; 1 bytes @ 0x1E
	ds	1
??_main:	; 0 bytes @ 0x1F
	ds	3
psect	cstackCOMMON,class=COMMON,space=1,noexec
global __pcstackCOMMON
__pcstackCOMMON:
?_USART_WriteChar:	; 0 bytes @ 0x0
??_USART_WriteChar:	; 0 bytes @ 0x0
?_TIMER0_Set:	; 0 bytes @ 0x0
?_TIMER0_Init:	; 0 bytes @ 0x0
?_ADC_Init:	; 0 bytes @ 0x0
?_PWM_Init:	; 0 bytes @ 0x0
?_LCD_Init:	; 0 bytes @ 0x0
?_LCD_Clear:	; 0 bytes @ 0x0
?_isdigit:	; 1 bit 
?_send:	; 0 bytes @ 0x0
?_ISR:	; 0 bytes @ 0x0
?_main:	; 0 bytes @ 0x0
?_USART_WriteString:	; 0 bytes @ 0x0
?_LCD_WriteCmd:	; 0 bytes @ 0x0
?_LCD_WriteData:	; 0 bytes @ 0x0
?___ftge:	; 1 bit 
?i1_TIMER0_Set:	; 0 bytes @ 0x0
??i1_TIMER0_Set:	; 0 bytes @ 0x0
?i1_PWM_DutyCycle2:	; 0 bytes @ 0x0
?_USART_ReceiveChar:	; 1 bytes @ 0x0
	global	?i1___wmul
?i1___wmul:	; 2 bytes @ 0x0
	global	?___ftpack
?___ftpack:	; 3 bytes @ 0x0
	global	USART_WriteChar@byte
USART_WriteChar@byte:	; 1 bytes @ 0x0
	global	i1TIMER0_Set@contagens
i1TIMER0_Set@contagens:	; 1 bytes @ 0x0
	global	i1PWM_DutyCycle2@valor
i1PWM_DutyCycle2@valor:	; 2 bytes @ 0x0
	global	i1___wmul@multiplier
i1___wmul@multiplier:	; 2 bytes @ 0x0
	global	___ftpack@arg
___ftpack@arg:	; 3 bytes @ 0x0
	global	___ftge@ff1
___ftge@ff1:	; 3 bytes @ 0x0
	ds	1
??_send:	; 0 bytes @ 0x1
??_USART_WriteString:	; 0 bytes @ 0x1
	ds	1
??i1_PWM_DutyCycle2:	; 0 bytes @ 0x2
	global	send@checksum
send@checksum:	; 1 bytes @ 0x2
	global	USART_WriteString@str
USART_WriteString@str:	; 1 bytes @ 0x2
	global	i1___wmul@multiplicand
i1___wmul@multiplicand:	; 2 bytes @ 0x2
	ds	1
??_USART_ReceiveChar:	; 0 bytes @ 0x3
	global	send@index
send@index:	; 1 bytes @ 0x3
	global	___ftpack@exp
___ftpack@exp:	; 1 bytes @ 0x3
	global	___ftge@ff2
___ftge@ff2:	; 3 bytes @ 0x3
	ds	1
??i1___wmul:	; 0 bytes @ 0x4
	global	USART_ReceiveChar@byte
USART_ReceiveChar@byte:	; 1 bytes @ 0x4
	global	___ftpack@sign
___ftpack@sign:	; 1 bytes @ 0x4
	global	i1___wmul@product
i1___wmul@product:	; 2 bytes @ 0x4
	ds	1
??___ftpack:	; 0 bytes @ 0x5
	ds	1
??___ftge:	; 0 bytes @ 0x6
	ds	2
	global	?___awtoft
?___awtoft:	; 3 bytes @ 0x8
	global	?___lwtoft
?___lwtoft:	; 3 bytes @ 0x8
	global	___awtoft@c
___awtoft@c:	; 2 bytes @ 0x8
	global	___lwtoft@c
___lwtoft@c:	; 2 bytes @ 0x8
	ds	3
??___awtoft:	; 0 bytes @ 0xB
??___lwtoft:	; 0 bytes @ 0xB
	ds	2
	global	___awtoft@sign
___awtoft@sign:	; 1 bytes @ 0xD
	ds	1
??_trimf:	; 0 bytes @ 0xE
??___ftneg:	; 0 bytes @ 0xE
psect	cstackBANK0,class=BANK0,space=1,noexec
global __pcstackBANK0
__pcstackBANK0:
	global	?___ftneg
?___ftneg:	; 3 bytes @ 0x0
	global	___ftneg@f1
___ftneg@f1:	; 3 bytes @ 0x0
	ds	3
	global	?___ftadd
?___ftadd:	; 3 bytes @ 0x3
	global	___ftadd@f1
___ftadd@f1:	; 3 bytes @ 0x3
	ds	3
	global	___ftadd@f2
___ftadd@f2:	; 3 bytes @ 0x6
	ds	3
??___ftadd:	; 0 bytes @ 0x9
	ds	4
	global	___ftadd@sign
___ftadd@sign:	; 1 bytes @ 0xD
	ds	1
	global	___ftadd@exp2
___ftadd@exp2:	; 1 bytes @ 0xE
	ds	1
	global	___ftadd@exp1
___ftadd@exp1:	; 1 bytes @ 0xF
	ds	1
	global	?___ftdiv
?___ftdiv:	; 3 bytes @ 0x10
	global	___ftdiv@f2
___ftdiv@f2:	; 3 bytes @ 0x10
	ds	3
	global	___ftdiv@f1
___ftdiv@f1:	; 3 bytes @ 0x13
	ds	3
??___ftdiv:	; 0 bytes @ 0x16
	ds	4
	global	___ftdiv@cntr
___ftdiv@cntr:	; 1 bytes @ 0x1A
	ds	1
	global	___ftdiv@f3
___ftdiv@f3:	; 3 bytes @ 0x1B
	ds	3
	global	___ftdiv@exp
___ftdiv@exp:	; 1 bytes @ 0x1E
	ds	1
	global	___ftdiv@sign
___ftdiv@sign:	; 1 bytes @ 0x1F
	ds	1
	global	?_trimf
?_trimf:	; 3 bytes @ 0x20
	global	?___ftmul
?___ftmul:	; 3 bytes @ 0x20
	global	trimf@x
trimf@x:	; 3 bytes @ 0x20
	global	___ftmul@f1
___ftmul@f1:	; 3 bytes @ 0x20
	ds	3
	global	trimf@a
trimf@a:	; 3 bytes @ 0x23
	global	___ftmul@f2
___ftmul@f2:	; 3 bytes @ 0x23
	ds	3
??___ftmul:	; 0 bytes @ 0x26
	global	trimf@b
trimf@b:	; 3 bytes @ 0x26
	ds	3
	global	trimf@c
trimf@c:	; 3 bytes @ 0x29
	ds	1
	global	___ftmul@exp
___ftmul@exp:	; 1 bytes @ 0x2A
	ds	1
	global	___ftmul@f3_as_product
___ftmul@f3_as_product:	; 3 bytes @ 0x2B
	ds	1
	global	trimf@ua
trimf@ua:	; 3 bytes @ 0x2C
	ds	2
	global	___ftmul@cntr
___ftmul@cntr:	; 1 bytes @ 0x2E
	ds	1
	global	___ftmul@sign
___ftmul@sign:	; 1 bytes @ 0x2F
	ds	1
	global	?___fttol
?___fttol:	; 4 bytes @ 0x30
	global	___fttol@f1
___fttol@f1:	; 3 bytes @ 0x30
	ds	4
??___fttol:	; 0 bytes @ 0x34
	ds	4
	global	___fttol@sign1
___fttol@sign1:	; 1 bytes @ 0x38
	ds	1
	global	___fttol@lval
___fttol@lval:	; 4 bytes @ 0x39
	ds	4
	global	___fttol@exp1
___fttol@exp1:	; 1 bytes @ 0x3D
	ds	1
??_ISR:	; 0 bytes @ 0x3E
	ds	6
	global	_ISR$236
_ISR$236:	; 2 bytes @ 0x44
	ds	2
	global	_ISR$237
_ISR$237:	; 2 bytes @ 0x46
	ds	2
	global	_ISR$238
_ISR$238:	; 2 bytes @ 0x48
	ds	2
	global	ISR@checksum
ISR@checksum:	; 1 bytes @ 0x4A
	ds	1
	global	_ISR$1677
_ISR$1677:	; 3 bytes @ 0x4B
	ds	3
	global	ISR@byte
ISR@byte:	; 1 bytes @ 0x4E
	ds	1
	global	ISR@index
ISR@index:	; 1 bytes @ 0x4F
	ds	1
;!
;!Data Sizes:
;!    Strings     68
;!    Constant    10
;!    Data        2
;!    BSS         65
;!    Persistent  0
;!    Stack       0
;!
;!Auto Spaces:
;!    Space          Size  Autos    Used
;!    COMMON           14     14      14
;!    BANK0            80     80      80
;!    BANK1            80     34      77
;!    BANK3            96      0      24
;!    BANK2            96      0       0

;!
;!Pointer List with Targets:
;!
;!    sprintf@f	PTR const unsigned char  size(1) Largest target is 5
;!		 -> STR_2(CODE[5]), 
;!
;!    sprintf@sp	PTR unsigned char  size(1) Largest target is 10
;!		 -> display(BANK3[10]), 
;!
;!    sprintf@ap	PTR void [1] size(1) Largest target is 2
;!		 -> ?_sprintf(BANK1[2]), 
;!
;!    S1218$_cp	PTR const unsigned char  size(1) Largest target is 0
;!
;!    _val._str._cp	PTR const unsigned char  size(1) Largest target is 0
;!
;!    LCD_WriteString@Str	PTR const unsigned char  size(2) Largest target is 17
;!		 -> STR_3(CODE[6]), display(BANK3[10]), STR_1(CODE[17]), 
;!
;!    USART_WriteString@str	PTR const unsigned char  size(1) Largest target is 40
;!		 -> STR_4(CODE[40]), 
;!


;!
;!Critical Paths under _main in COMMON
;!
;!    None.
;!
;!Critical Paths under _ISR in COMMON
;!
;!    _ISR->___awtoft
;!    _trimf->___awtoft
;!    ___ftneg->___awtoft
;!    ___ftadd->___awtoft
;!    _send->_USART_WriteChar
;!    ___lwtoft->___ftpack
;!    ___ftmul->___awtoft
;!    ___awtoft->___ftpack
;!    _USART_ReceiveChar->_USART_WriteString
;!    _USART_WriteString->_USART_WriteChar
;!
;!Critical Paths under _main in BANK0
;!
;!    None.
;!
;!Critical Paths under _ISR in BANK0
;!
;!    _ISR->___fttol
;!    _trimf->___ftdiv
;!    ___ftdiv->___ftadd
;!    ___ftadd->___ftneg
;!    ___fttol->___ftmul
;!    ___ftmul->___ftdiv
;!
;!Critical Paths under _main in BANK1
;!
;!    _main->_sprintf
;!    _sprintf->___lwmod
;!    ___lwmod->___lwdiv
;!    _USART_Init->___aldiv
;!    _LCD_WriteString->_LCD_WriteData
;!    _LCD_Init->_LCD_WriteCmd
;!    _LCD_Clear->_LCD_WriteCmd
;!
;!Critical Paths under _ISR in BANK1
;!
;!    None.
;!
;!Critical Paths under _main in BANK3
;!
;!    None.
;!
;!Critical Paths under _ISR in BANK3
;!
;!    None.
;!
;!Critical Paths under _main in BANK2
;!
;!    None.
;!
;!Critical Paths under _ISR in BANK2
;!
;!    None.

;;
;;Main: autosize = 0, tempsize = 3, incstack = 0, save=0
;;

;!
;!Call Graph Tables:
;!
;! ---------------------------------------------------------------------------------
;! (Depth) Function   	        Calls       Base Space   Used Autos Params    Refs
;! ---------------------------------------------------------------------------------
;! (0) _main                                                 3     3      0    3302
;!                                             31 BANK1      3     3      0
;!                           _ADC_Init
;!                          _LCD_Clear
;!                         _LCD_Cursor
;!                           _LCD_Init
;!                    _LCD_WriteString
;!                     _PWM_DutyCycle1
;!                     _PWM_DutyCycle2
;!                           _PWM_Init
;!                        _TIMER0_Init
;!                         _TIMER0_Set
;!                         _USART_Init
;!                            _sprintf
;! ---------------------------------------------------------------------------------
;! (1) _sprintf                                             17    14      3    1951
;!                                             14 BANK1     17    14      3
;!                            ___lwdiv
;!                            ___lwmod
;!                             ___wmul
;!                            _isdigit
;! ---------------------------------------------------------------------------------
;! (2) _isdigit                                              2     2      0      68
;!                                              0 BANK1      2     2      0
;! ---------------------------------------------------------------------------------
;! (2) ___wmul                                               6     2      4     296
;!                                              0 BANK1      6     2      4
;! ---------------------------------------------------------------------------------
;! (2) ___lwmod                                              6     2      4     287
;!                                              8 BANK1      6     2      4
;!                            ___lwdiv (ARG)
;! ---------------------------------------------------------------------------------
;! (2) ___lwdiv                                              8     4      4     290
;!                                              0 BANK1      8     4      4
;! ---------------------------------------------------------------------------------
;! (1) _USART_Init                                           8     4      4     514
;!                                             15 BANK1      8     4      4
;!                            ___aldiv
;! ---------------------------------------------------------------------------------
;! (2) ___aldiv                                             15     7      8     428
;!                                              0 BANK1     15     7      8
;! ---------------------------------------------------------------------------------
;! (1) _TIMER0_Set                                           1     1      0      22
;!                                              0 BANK1      1     1      0
;! ---------------------------------------------------------------------------------
;! (1) _TIMER0_Init                                          0     0      0       0
;! ---------------------------------------------------------------------------------
;! (1) _PWM_Init                                             0     0      0       0
;! ---------------------------------------------------------------------------------
;! (1) _PWM_DutyCycle2                                       4     2      2     146
;!                                              0 BANK1      4     2      2
;! ---------------------------------------------------------------------------------
;! (1) _PWM_DutyCycle1                                       4     2      2     108
;!                                              0 BANK1      4     2      2
;! ---------------------------------------------------------------------------------
;! (1) _LCD_WriteString                                      2     0      2     259
;!                                              2 BANK1      2     0      2
;!                      _LCD_WriteData
;! ---------------------------------------------------------------------------------
;! (2) _LCD_WriteData                                        2     2      0      22
;!                                              0 BANK1      2     2      0
;! ---------------------------------------------------------------------------------
;! (1) _LCD_Init                                             2     2      0      22
;!                                              2 BANK1      2     2      0
;!                       _LCD_WriteCmd
;! ---------------------------------------------------------------------------------
;! (1) _LCD_Cursor                                           3     2      1     258
;!                                              0 BANK1      3     2      1
;! ---------------------------------------------------------------------------------
;! (1) _LCD_Clear                                            2     2      0      22
;!                                              2 BANK1      2     2      0
;!                       _LCD_WriteCmd
;! ---------------------------------------------------------------------------------
;! (2) _LCD_WriteCmd                                         2     2      0      22
;!                                              0 BANK1      2     2      0
;! ---------------------------------------------------------------------------------
;! (1) _ADC_Init                                             0     0      0       0
;! ---------------------------------------------------------------------------------
;! Estimated maximum stack depth 2
;! ---------------------------------------------------------------------------------
;! (Depth) Function   	        Calls       Base Space   Used Autos Params    Refs
;! ---------------------------------------------------------------------------------
;! (3) _ISR                                                 21    21      0   25575
;!                                             62 BANK0     18    18      0
;!                  _USART_ReceiveChar
;!                           ___awtoft
;!                            ___ftadd
;!                            ___ftdiv
;!                             ___ftge
;!                            ___ftmul
;!                            ___ftneg
;!                            ___fttol
;!                           ___lwtoft
;!                               _send
;!                              _trimf
;!                   i1_PWM_DutyCycle2
;!                       i1_TIMER0_Set
;!                           i1___wmul
;! ---------------------------------------------------------------------------------
;! (4) i1___wmul                                             6     2      4     144
;!                                              0 COMMON     6     2      4
;! ---------------------------------------------------------------------------------
;! (4) i1_TIMER0_Set                                         1     1      0      22
;!                                              0 COMMON     1     1      0
;! ---------------------------------------------------------------------------------
;! (4) i1_PWM_DutyCycle2                                     4     2      2      70
;!                                              0 COMMON     4     2      2
;! ---------------------------------------------------------------------------------
;! (4) _trimf                                               15     3     12    8988
;!                                             32 BANK0     15     3     12
;!                           ___awtoft (ARG)
;!                            ___ftadd
;!                            ___ftdiv
;!                             ___ftge
;!                            ___ftneg
;! ---------------------------------------------------------------------------------
;! (5) ___ftneg                                              3     0      3     429
;!                                              0 BANK0      3     0      3
;!                           ___awtoft (ARG)
;! ---------------------------------------------------------------------------------
;! (5) ___ftge                                              12     6      6    1032
;!                                              0 COMMON    12     6      6
;! ---------------------------------------------------------------------------------
;! (5) ___ftdiv                                             16    10      6    2751
;!                                             16 BANK0     16    10      6
;!                            ___ftadd (ARG)
;!                            ___ftneg (ARG)
;!                           ___ftpack
;!                           ___lwtoft (ARG)
;! ---------------------------------------------------------------------------------
;! (5) ___ftadd                                             13     7      6    3797
;!                                              3 BANK0     13     7      6
;!                           ___awtoft (ARG)
;!                            ___ftneg (ARG)
;!                           ___ftpack
;! ---------------------------------------------------------------------------------
;! (4) _send                                                 3     3      0     136
;!                                              1 COMMON     3     3      0
;!                    _USART_WriteChar
;! ---------------------------------------------------------------------------------
;! (4) ___lwtoft                                             4     1      3    2173
;!                                              8 COMMON     4     1      3
;!                           ___ftpack
;! ---------------------------------------------------------------------------------
;! (4) ___fttol                                             14    10      4     572
;!                                             48 BANK0     14    10      4
;!                            ___ftdiv (ARG)
;!                            ___ftmul (ARG)
;!                           ___lwtoft (ARG)
;! ---------------------------------------------------------------------------------
;! (4) ___ftmul                                             16    10      6    2669
;!                                             32 BANK0     16    10      6
;!                           ___awtoft (ARG)
;!                            ___ftdiv (ARG)
;!                           ___ftpack
;!                           ___lwtoft (ARG)
;!                           i1___wmul (ARG)
;! ---------------------------------------------------------------------------------
;! (4) ___awtoft                                             6     3      3    2370
;!                                              8 COMMON     6     3      3
;!                           ___ftpack
;!                           i1___wmul (ARG)
;! ---------------------------------------------------------------------------------
;! (6) ___ftpack                                             8     3      5    2087
;!                                              0 COMMON     8     3      5
;! ---------------------------------------------------------------------------------
;! (4) _USART_ReceiveChar                                    2     2      0     121
;!                                              3 COMMON     2     2      0
;!                  _USART_WriteString
;! ---------------------------------------------------------------------------------
;! (5) _USART_WriteString                                    2     2      0      97
;!                                              1 COMMON     2     2      0
;!                    _USART_WriteChar
;! ---------------------------------------------------------------------------------
;! (5) _USART_WriteChar                                      1     1      0      22
;!                                              0 COMMON     1     1      0
;! ---------------------------------------------------------------------------------
;! Estimated maximum stack depth 6
;! ---------------------------------------------------------------------------------
;!
;! Call Graph Graphs:
;!
;! _main (ROOT)
;!   _ADC_Init
;!   _LCD_Clear
;!     _LCD_WriteCmd
;!   _LCD_Cursor
;!   _LCD_Init
;!     _LCD_WriteCmd
;!   _LCD_WriteString
;!     _LCD_WriteData
;!   _PWM_DutyCycle1
;!   _PWM_DutyCycle2
;!   _PWM_Init
;!   _TIMER0_Init
;!   _TIMER0_Set
;!   _USART_Init
;!     ___aldiv
;!   _sprintf
;!     ___lwdiv
;!     ___lwmod
;!       ___lwdiv (ARG)
;!     ___wmul
;!     _isdigit
;!
;! _ISR (ROOT)
;!   _USART_ReceiveChar
;!     _USART_WriteString
;!       _USART_WriteChar
;!   ___awtoft
;!     ___ftpack
;!     i1___wmul (ARG)
;!   ___ftadd
;!     ___awtoft (ARG)
;!       ___ftpack
;!       i1___wmul (ARG)
;!     ___ftneg (ARG)
;!       ___awtoft (ARG)
;!         ___ftpack
;!         i1___wmul (ARG)
;!     ___ftpack (ARG)
;!   ___ftdiv
;!     ___ftadd (ARG)
;!       ___awtoft (ARG)
;!         ___ftpack
;!         i1___wmul (ARG)
;!       ___ftneg (ARG)
;!         ___awtoft (ARG)
;!           ___ftpack
;!           i1___wmul (ARG)
;!       ___ftpack (ARG)
;!     ___ftneg (ARG)
;!       ___awtoft (ARG)
;!         ___ftpack
;!         i1___wmul (ARG)
;!     ___ftpack (ARG)
;!     ___lwtoft (ARG)
;!       ___ftpack
;!   ___ftge
;!   ___ftmul
;!     ___awtoft (ARG)
;!       ___ftpack
;!       i1___wmul (ARG)
;!     ___ftdiv (ARG)
;!       ___ftadd (ARG)
;!         ___awtoft (ARG)
;!           ___ftpack
;!           i1___wmul (ARG)
;!         ___ftneg (ARG)
;!           ___awtoft (ARG)
;!             ___ftpack
;!             i1___wmul (ARG)
;!         ___ftpack (ARG)
;!       ___ftneg (ARG)
;!         ___awtoft (ARG)
;!           ___ftpack
;!           i1___wmul (ARG)
;!       ___ftpack (ARG)
;!       ___lwtoft (ARG)
;!         ___ftpack
;!     ___ftpack (ARG)
;!     ___lwtoft (ARG)
;!       ___ftpack
;!     i1___wmul (ARG)
;!   ___ftneg
;!     ___awtoft (ARG)
;!       ___ftpack
;!       i1___wmul (ARG)
;!   ___fttol
;!     ___ftdiv (ARG)
;!       ___ftadd (ARG)
;!         ___awtoft (ARG)
;!           ___ftpack
;!           i1___wmul (ARG)
;!         ___ftneg (ARG)
;!           ___awtoft (ARG)
;!             ___ftpack
;!             i1___wmul (ARG)
;!         ___ftpack (ARG)
;!       ___ftneg (ARG)
;!         ___awtoft (ARG)
;!           ___ftpack
;!           i1___wmul (ARG)
;!       ___ftpack (ARG)
;!       ___lwtoft (ARG)
;!         ___ftpack
;!     ___ftmul (ARG)
;!       ___awtoft (ARG)
;!         ___ftpack
;!         i1___wmul (ARG)
;!       ___ftdiv (ARG)
;!         ___ftadd (ARG)
;!           ___awtoft (ARG)
;!             ___ftpack
;!             i1___wmul (ARG)
;!           ___ftneg (ARG)
;!             ___awtoft (ARG)
;!               ___ftpack
;!               i1___wmul (ARG)
;!           ___ftpack (ARG)
;!         ___ftneg (ARG)
;!           ___awtoft (ARG)
;!             ___ftpack
;!             i1___wmul (ARG)
;!         ___ftpack (ARG)
;!         ___lwtoft (ARG)
;!           ___ftpack
;!       ___ftpack (ARG)
;!       ___lwtoft (ARG)
;!         ___ftpack
;!       i1___wmul (ARG)
;!     ___lwtoft (ARG)
;!       ___ftpack
;!   ___lwtoft
;!     ___ftpack
;!   _send
;!     _USART_WriteChar
;!   _trimf
;!     ___awtoft (ARG)
;!       ___ftpack
;!       i1___wmul (ARG)
;!     ___ftadd (ARG)
;!       ___awtoft (ARG)
;!         ___ftpack
;!         i1___wmul (ARG)
;!       ___ftneg (ARG)
;!         ___awtoft (ARG)
;!           ___ftpack
;!           i1___wmul (ARG)
;!       ___ftpack (ARG)
;!     ___ftdiv (ARG)
;!       ___ftadd (ARG)
;!         ___awtoft (ARG)
;!           ___ftpack
;!           i1___wmul (ARG)
;!         ___ftneg (ARG)
;!           ___awtoft (ARG)
;!             ___ftpack
;!             i1___wmul (ARG)
;!         ___ftpack (ARG)
;!       ___ftneg (ARG)
;!         ___awtoft (ARG)
;!           ___ftpack
;!           i1___wmul (ARG)
;!       ___ftpack (ARG)
;!       ___lwtoft (ARG)
;!         ___ftpack
;!     ___ftge (ARG)
;!     ___ftneg (ARG)
;!       ___awtoft (ARG)
;!         ___ftpack
;!         i1___wmul (ARG)
;!   i1_PWM_DutyCycle2
;!   i1_TIMER0_Set
;!   i1___wmul
;!

;! Address spaces:

;!Name               Size   Autos  Total    Cost      Usage
;!BANK3               60      0      18       9       25.0%
;!BITBANK3            60      0       0       8        0.0%
;!SFR3                 0      0       0       4        0.0%
;!BITSFR3              0      0       0       4        0.0%
;!BANK2               60      0       0      11        0.0%
;!BITBANK2            60      0       0      10        0.0%
;!SFR2                 0      0       0       5        0.0%
;!BITSFR2              0      0       0       5        0.0%
;!BANK1               50     22      4D       7       96.3%
;!BITBANK1            50      0       0       6        0.0%
;!SFR1                 0      0       0       2        0.0%
;!BITSFR1              0      0       0       2        0.0%
;!BANK0               50     50      50       5      100.0%
;!BITBANK0            50      0       0       4        0.0%
;!SFR0                 0      0       0       1        0.0%
;!BITSFR0              0      0       0       1        0.0%
;!COMMON               E      E       E       1      100.0%
;!BITCOMMON            E      0       0       0        0.0%
;!CODE                 0      0       0       0        0.0%
;!DATA                 0      0      C3      12        0.0%
;!ABS                  0      0      C3       3        0.0%
;!NULL                 0      0       0       0        0.0%
;!STACK                0      0       0       2        0.0%
;!EEDATA             100      0       0       0        0.0%

	global	_main

;; *************** function _main *****************
;; Defined at:
;;		line 226 in file "E:\projeto-fuzzy-rpm\firmware\main.c"
;; Parameters:    Size  Location     Type
;;		None
;; Auto vars:     Size  Location     Type
;;		None
;; Return value:  Size  Location     Type
;;		None               void
;; Registers used:
;;		wreg, fsr0l, fsr0h, status,2, status,0, btemp+1, pclath, cstack
;; Tracked objects:
;;		On entry : 17F/0
;;		On exit  : 0/0
;;		Unchanged: 0/0
;; Data sizes:     COMMON   BANK0   BANK1   BANK3   BANK2
;;      Params:         0       0       0       0       0
;;      Locals:         0       0       0       0       0
;;      Temps:          0       0       3       0       0
;;      Totals:         0       0       3       0       0
;;Total ram usage:        3 bytes
;; Hardware stack levels required when called:    6
;; This function calls:
;;		_ADC_Init
;;		_LCD_Clear
;;		_LCD_Cursor
;;		_LCD_Init
;;		_LCD_WriteString
;;		_PWM_DutyCycle1
;;		_PWM_DutyCycle2
;;		_PWM_Init
;;		_TIMER0_Init
;;		_TIMER0_Set
;;		_USART_Init
;;		_sprintf
;; This function is called by:
;;		Startup code after reset
;; This function uses a non-reentrant model
;;
psect	maintext,global,class=CODE,delta=2,split=1
	file	"E:\projeto-fuzzy-rpm\firmware\main.c"
	line	226
global __pmaintext
__pmaintext:	;psect for function _main
psect	maintext
	file	"E:\projeto-fuzzy-rpm\firmware\main.c"
	line	226
	global	__size_of_main
	__size_of_main	equ	__end_of_main-_main
	
_main:	
;incstack = 0
	opt	stack 2
; Regs used in _main: [wreg-fsr0h+status,2+status,0+btemp+1+pclath+cstack]
	line	228
	
l2939:	
;main.c: 228: TRISA = 0b00000001;
	movlw	(01h)
	bsf	status, 5	;RP0=1, select bank1
	bcf	status, 6	;RP1=0, select bank1
	movwf	(133)^080h	;volatile
	line	229
;main.c: 229: PORTA = 0b00000001;
	movlw	(01h)
	bcf	status, 5	;RP0=0, select bank0
	bcf	status, 6	;RP1=0, select bank0
	movwf	(5)	;volatile
	line	230
	
l2941:	
;main.c: 230: TRISB = 0b00000000;
	bsf	status, 5	;RP0=1, select bank1
	bcf	status, 6	;RP1=0, select bank1
	clrf	(134)^080h	;volatile
	line	231
	
l2943:	
;main.c: 231: PORTB = 0b00000000;
	bcf	status, 5	;RP0=0, select bank0
	bcf	status, 6	;RP1=0, select bank0
	clrf	(6)	;volatile
	line	232
;main.c: 232: TRISC = 0b10000001;
	movlw	(081h)
	bsf	status, 5	;RP0=1, select bank1
	bcf	status, 6	;RP1=0, select bank1
	movwf	(135)^080h	;volatile
	line	233
;main.c: 233: PORTC = 0b11000000;
	movlw	(0C0h)
	bcf	status, 5	;RP0=0, select bank0
	bcf	status, 6	;RP1=0, select bank0
	movwf	(7)	;volatile
	line	234
	
l2945:	
;main.c: 234: TRISD = 0b00000000;
	bsf	status, 5	;RP0=1, select bank1
	bcf	status, 6	;RP1=0, select bank1
	clrf	(136)^080h	;volatile
	line	235
	
l2947:	
;main.c: 235: PORTD = 0b00000000;
	bcf	status, 5	;RP0=0, select bank0
	bcf	status, 6	;RP1=0, select bank0
	clrf	(8)	;volatile
	line	236
	
l2949:	
;main.c: 236: TRISE = 0b00000000;
	bsf	status, 5	;RP0=1, select bank1
	bcf	status, 6	;RP1=0, select bank1
	clrf	(137)^080h	;volatile
	line	237
	
l2951:	
;main.c: 237: PORTE = 0b00000000;
	bcf	status, 5	;RP0=0, select bank0
	bcf	status, 6	;RP1=0, select bank0
	clrf	(9)	;volatile
	line	240
;main.c: 240: T1CON = 0x03;
	movlw	(03h)
	movwf	(16)	;volatile
	line	241
	
l2953:	
;main.c: 241: TMR1L = 0x00;
	clrf	(14)	;volatile
	line	242
	
l2955:	
;main.c: 242: TMR1H = 0x00;
	clrf	(15)	;volatile
	line	245
	
l2957:	
;main.c: 245: USART_Init(115200);
	movlw	0
	bsf	status, 5	;RP0=1, select bank1
	bcf	status, 6	;RP1=0, select bank1
	movwf	(USART_Init@BaudRate+3)^080h
	movlw	01h
	movwf	(USART_Init@BaudRate+2)^080h
	movlw	0C2h
	movwf	(USART_Init@BaudRate+1)^080h
	movlw	0
	movwf	(USART_Init@BaudRate)^080h

	fcall	_USART_Init
	line	246
;main.c: 246: TIMER0_Init();
	fcall	_TIMER0_Init
	line	247
;main.c: 247: ADC_Init();
	fcall	_ADC_Init
	line	248
	
l2959:	
;main.c: 248: PWM_Init();
	fcall	_PWM_Init
	line	249
	
l2961:	
;main.c: 249: LCD_Init();
	fcall	_LCD_Init
	line	252
	
l2963:	
;main.c: 252: INTCONbits.PEIE = 1;
	bsf	(11),6	;volatile
	line	253
	
l2965:	
;main.c: 253: INTCONbits.GIE = 1;
	bsf	(11),7	;volatile
	line	260
	
l2967:	
;main.c: 260: LCD_Init();
	fcall	_LCD_Init
	line	261
	
l2969:	
;main.c: 261: LCD_Cursor(0,0);
	bsf	status, 5	;RP0=1, select bank1
	bcf	status, 6	;RP1=0, select bank1
	clrf	(LCD_Cursor@Col)^080h
	movlw	(0)
	fcall	_LCD_Cursor
	line	262
	
l2971:	
;main.c: 262: LCD_WriteString("Inicializando...");
	movlw	low((STR_1)-__stringbase)
	bsf	status, 5	;RP0=1, select bank1
	bcf	status, 6	;RP1=0, select bank1
	movwf	(LCD_WriteString@Str)^080h
	movlw	80h
	movwf	(LCD_WriteString@Str+1)^080h
	fcall	_LCD_WriteString
	line	265
	
l2973:	
;main.c: 265: PWM_DutyCycle1(0);
	movlw	low(0)
	bsf	status, 5	;RP0=1, select bank1
	bcf	status, 6	;RP1=0, select bank1
	movwf	(PWM_DutyCycle1@valor)^080h
	movlw	high(0)
	movwf	((PWM_DutyCycle1@valor)^080h)+1
	fcall	_PWM_DutyCycle1
	line	266
	
l2975:	
;main.c: 266: PWM_DutyCycle2(0);
	movlw	low(0)
	bsf	status, 5	;RP0=1, select bank1
	bcf	status, 6	;RP1=0, select bank1
	movwf	(PWM_DutyCycle2@valor)^080h
	movlw	high(0)
	movwf	((PWM_DutyCycle2@valor)^080h)+1
	fcall	_PWM_DutyCycle2
	line	269
	
l2977:	
;main.c: 269: TIMER0_Set(238);
	movlw	(0EEh)
	fcall	_TIMER0_Set
	line	272
	
l2979:	
;main.c: 272: _delay((unsigned long)((1000)*(18432000/4000.0)));
	opt asmopt_off
movlw  24
	bsf	status, 5	;RP0=1, select bank1
	bcf	status, 6	;RP1=0, select bank1
movwf	((??_main+0)^080h+0+2),f
movlw	97
movwf	((??_main+0)^080h+0+1),f
	movlw	110
movwf	((??_main+0)^080h+0),f
u3467:
	decfsz	((??_main+0)^080h+0),f
	goto	u3467
	decfsz	((??_main+0)^080h+0+1),f
	goto	u3467
	decfsz	((??_main+0)^080h+0+2),f
	goto	u3467
	nop
opt asmopt_on

	line	275
;main.c: 275: while(1)
	
l167:	
	line	278
;main.c: 276: {
;main.c: 278: sprintf(display,"%04d", rpm);
	movlw	((STR_2)-__stringbase)&0ffh
	bsf	status, 5	;RP0=1, select bank1
	bcf	status, 6	;RP1=0, select bank1
	movwf	(??_main+0)^080h+0
	movf	(??_main+0)^080h+0,w
	movwf	(sprintf@f)^080h
	movf	(_rpm+1)^080h,w
	clrf	1+(?_sprintf)^080h+01h
	addwf	1+(?_sprintf)^080h+01h
	movf	(_rpm)^080h,w
	clrf	0+(?_sprintf)^080h+01h
	addwf	0+(?_sprintf)^080h+01h

	movlw	(_display)&0ffh
	fcall	_sprintf
	line	285
	
l2981:	
;main.c: 285: LCD_Clear();
	fcall	_LCD_Clear
	line	286
	
l2983:	
;main.c: 286: LCD_Cursor(0,0);
	bsf	status, 5	;RP0=1, select bank1
	bcf	status, 6	;RP1=0, select bank1
	clrf	(LCD_Cursor@Col)^080h
	movlw	(0)
	fcall	_LCD_Cursor
	line	287
;main.c: 287: LCD_WriteString("RPM: ");
	movlw	low((STR_3)-__stringbase)
	bsf	status, 5	;RP0=1, select bank1
	bcf	status, 6	;RP1=0, select bank1
	movwf	(LCD_WriteString@Str)^080h
	movlw	80h
	movwf	(LCD_WriteString@Str+1)^080h
	fcall	_LCD_WriteString
	line	288
	
l2985:	
;main.c: 288: LCD_Cursor(0,6);
	movlw	(06h)
	bsf	status, 5	;RP0=1, select bank1
	bcf	status, 6	;RP1=0, select bank1
	movwf	(??_main+0)^080h+0
	movf	(??_main+0)^080h+0,w
	movwf	(LCD_Cursor@Col)^080h
	movlw	(0)
	fcall	_LCD_Cursor
	line	289
	
l2987:	
;main.c: 289: LCD_WriteString(display);
	movlw	(_display&0ffh)
	bsf	status, 5	;RP0=1, select bank1
	bcf	status, 6	;RP1=0, select bank1
	movwf	(LCD_WriteString@Str)^080h
	movlw	(0x1)
	movwf	(LCD_WriteString@Str+1)^080h
	fcall	_LCD_WriteString
	line	291
	
l2989:	
;main.c: 291: _delay((unsigned long)((200)*(18432000/4000.0)));
	opt asmopt_off
movlw  5
	bsf	status, 5	;RP0=1, select bank1
	bcf	status, 6	;RP1=0, select bank1
movwf	((??_main+0)^080h+0+2),f
movlw	173
movwf	((??_main+0)^080h+0+1),f
	movlw	224
movwf	((??_main+0)^080h+0),f
u3477:
	decfsz	((??_main+0)^080h+0),f
	goto	u3477
	decfsz	((??_main+0)^080h+0+1),f
	goto	u3477
	decfsz	((??_main+0)^080h+0+2),f
	goto	u3477
opt asmopt_on

	goto	l167
	line	292
	
l168:	
	line	275
	goto	l167
	
l169:	
	line	293
	
l170:	
	global	start
	ljmp	start
	opt stack 0
GLOBAL	__end_of_main
	__end_of_main:
	signat	_main,88
	global	_sprintf

;; *************** function _sprintf *****************
;; Defined at:
;;		line 492 in file "C:\Program Files (x86)\Microchip\xc8\v1.33\sources\common\doprnt.c"
;; Parameters:    Size  Location     Type
;;  sp              1    wreg     PTR unsigned char 
;;		 -> display(10), 
;;  f               1   14[BANK1 ] PTR const unsigned char 
;;		 -> STR_2(5), 
;; Auto vars:     Size  Location     Type
;;  sp              1   29[BANK1 ] PTR unsigned char 
;;		 -> display(10), 
;;  _val            4   22[BANK1 ] struct .
;;  width           2   27[BANK1 ] int 
;;  c               1   30[BANK1 ] char 
;;  flag            1   26[BANK1 ] unsigned char 
;;  prec            1   21[BANK1 ] char 
;;  ap              1   20[BANK1 ] PTR void [1]
;;		 -> ?_sprintf(2), 
;; Return value:  Size  Location     Type
;;                  2   14[BANK1 ] int 
;; Registers used:
;;		wreg, fsr0l, fsr0h, status,2, status,0, btemp+1, pclath, cstack
;; Tracked objects:
;;		On entry : 0/0
;;		On exit  : 0/0
;;		Unchanged: 0/0
;; Data sizes:     COMMON   BANK0   BANK1   BANK3   BANK2
;;      Params:         0       0       3       0       0
;;      Locals:         0       0      11       0       0
;;      Temps:          0       0       3       0       0
;;      Totals:         0       0      17       0       0
;;Total ram usage:       17 bytes
;; Hardware stack levels used:    1
;; Hardware stack levels required when called:    5
;; This function calls:
;;		___lwdiv
;;		___lwmod
;;		___wmul
;;		_isdigit
;; This function is called by:
;;		_main
;; This function uses a non-reentrant model
;;
psect	text1,local,class=CODE,delta=2,merge=1
	file	"C:\Program Files (x86)\Microchip\xc8\v1.33\sources\common\doprnt.c"
	line	492
global __ptext1
__ptext1:	;psect for function _sprintf
psect	text1
	file	"C:\Program Files (x86)\Microchip\xc8\v1.33\sources\common\doprnt.c"
	line	492
	global	__size_of_sprintf
	__size_of_sprintf	equ	__end_of_sprintf-_sprintf
	
_sprintf:	
;incstack = 0
	opt	stack 2
; Regs used in _sprintf: [wreg-fsr0h+status,2+status,0+btemp+1+pclath+cstack]
;sprintf@sp stored from wreg
	bsf	status, 5	;RP0=1, select bank1
	bcf	status, 6	;RP1=0, select bank1
	movwf	(sprintf@sp)^080h
	line	542
	
l2559:	
;doprnt.c: 494: va_list ap;
;doprnt.c: 499: signed char c;
;doprnt.c: 501: int width;
;doprnt.c: 506: signed char prec;
;doprnt.c: 508: unsigned char flag;
;doprnt.c: 527: union {
;doprnt.c: 528: unsigned int _val;
;doprnt.c: 529: struct {
;doprnt.c: 530: const char * _cp;
;doprnt.c: 531: unsigned _len;
;doprnt.c: 532: } _str;
;doprnt.c: 533: } _val;
;doprnt.c: 542: *ap = __va_start();
	movlw	(?_sprintf+01h)&0ffh
	movwf	(??_sprintf+0)^080h+0
	movf	(??_sprintf+0)^080h+0,w
	movwf	(sprintf@ap)^080h
	line	545
;doprnt.c: 545: while(c = *f++) {
	goto	l2663
	
l440:	
	line	547
	
l2561:	
;doprnt.c: 547: if(c != '%')
	movf	(sprintf@c)^080h,w
	xorlw	025h
	skipnz
	goto	u2741
	goto	u2740
u2741:
	goto	l2567
u2740:
	line	550
	
l2563:	
;doprnt.c: 549: {
;doprnt.c: 550: ((*sp++ = (c)));
	movf	(sprintf@c)^080h,w
	movwf	(??_sprintf+0)^080h+0
	movf	(sprintf@sp)^080h,w
	movwf	fsr0
	movf	(??_sprintf+0)^080h+0,w
	bsf	status, 7	;select IRP bank2
	movwf	indf
	
l2565:	
	movlw	(01h)
	movwf	(??_sprintf+0)^080h+0
	movf	(??_sprintf+0)^080h+0,w
	addwf	(sprintf@sp)^080h,f
	line	551
;doprnt.c: 551: continue;
	goto	l2663
	line	552
	
l441:	
	line	555
	
l2567:	
;doprnt.c: 552: }
;doprnt.c: 555: width = 0;
	clrf	(sprintf@width)^080h
	clrf	(sprintf@width+1)^080h
	line	557
;doprnt.c: 557: flag = 0;
	clrf	(sprintf@flag)^080h
	goto	l2573
	line	559
;doprnt.c: 559: for(;;) {
	
l442:	
	line	560
;doprnt.c: 560: switch(*f) {
	goto	l2573
	line	588
;doprnt.c: 588: case '0':
	
l444:	
	line	589
;doprnt.c: 589: flag |= 0x04;
	bsf	(sprintf@flag)^080h+(2/8),(2)&7
	line	590
	
l2569:	
;doprnt.c: 590: f++;
	movlw	(01h)
	movwf	(??_sprintf+0)^080h+0
	movf	(??_sprintf+0)^080h+0,w
	addwf	(sprintf@f)^080h,f
	line	591
;doprnt.c: 591: continue;
	goto	l2573
	line	593
	
l2571:	
;doprnt.c: 593: }
	goto	l2575
	line	560
	
l443:	
	
l2573:	
	movf	(sprintf@f)^080h,w
	movwf	fsr0
	fcall	stringdir
	; Switch size 1, requested type "space"
; Number of cases is 1, Range of values is 48 to 48
; switch strategies available:
; Name         Instructions Cycles
; simple_byte            4     3 (average)
; direct_byte           14    11 (fixed)
; jumptable            263     9 (fixed)
;	Chosen strategy is simple_byte

	opt asmopt_off
	xorlw	48^0	; case 48
	skipnz
	goto	l444
	goto	l2575
	opt asmopt_on

	line	593
	
l446:	
	line	594
;doprnt.c: 594: break;
	goto	l2575
	line	595
	
l445:	
;doprnt.c: 595: }
	goto	l2573
	
l447:	
	line	606
	
l2575:	
;doprnt.c: 606: if(isdigit((unsigned)*f)) {
	movf	(sprintf@f)^080h,w
	movwf	fsr0
	fcall	stringdir
	fcall	_isdigit
	btfss	status,0
	goto	u2751
	goto	u2750
u2751:
	goto	l2589
u2750:
	line	607
	
l2577:	
;doprnt.c: 607: width = 0;
	bsf	status, 5	;RP0=1, select bank1
	bcf	status, 6	;RP1=0, select bank1
	clrf	(sprintf@width)^080h
	clrf	(sprintf@width+1)^080h
	goto	l2579
	line	608
;doprnt.c: 608: do {
	
l449:	
	line	609
	
l2579:	
;doprnt.c: 609: width *= 10;
	movlw	low(0Ah)
	bsf	status, 5	;RP0=1, select bank1
	bcf	status, 6	;RP1=0, select bank1
	movwf	(___wmul@multiplier)^080h
	movlw	high(0Ah)
	movwf	((___wmul@multiplier)^080h)+1
	movf	(sprintf@width+1)^080h,w
	clrf	(___wmul@multiplicand+1)^080h
	addwf	(___wmul@multiplicand+1)^080h
	movf	(sprintf@width)^080h,w
	clrf	(___wmul@multiplicand)^080h
	addwf	(___wmul@multiplicand)^080h

	fcall	___wmul
	bsf	status, 5	;RP0=1, select bank1
	bcf	status, 6	;RP1=0, select bank1
	movf	(1+(?___wmul))^080h,w
	clrf	(sprintf@width+1)^080h
	addwf	(sprintf@width+1)^080h
	movf	(0+(?___wmul))^080h,w
	clrf	(sprintf@width)^080h
	addwf	(sprintf@width)^080h

	line	610
	
l2581:	
;doprnt.c: 610: width += *f++ - '0';
	movf	(sprintf@f)^080h,w
	movwf	fsr0
	fcall	stringdir
	addlw	low(-48)
	movwf	(??_sprintf+0)^080h+0
	movlw	high(-48)
	skipnc
	movlw	(high(-48)+1)&0ffh
	movwf	((??_sprintf+0)^080h+0)+1
	movf	0+(??_sprintf+0)^080h+0,w
	addwf	(sprintf@width)^080h,f
	skipnc
	incf	(sprintf@width+1)^080h,f
	movf	1+(??_sprintf+0)^080h+0,w
	addwf	(sprintf@width+1)^080h,f
	
l2583:	
	movlw	(01h)
	movwf	(??_sprintf+0)^080h+0
	movf	(??_sprintf+0)^080h+0,w
	addwf	(sprintf@f)^080h,f
	line	611
	
l2585:	
;doprnt.c: 611: } while(isdigit((unsigned)*f));
	movf	(sprintf@f)^080h,w
	movwf	fsr0
	fcall	stringdir
	fcall	_isdigit
	btfsc	status,0
	goto	u2761
	goto	u2760
u2761:
	goto	l2579
u2760:
	goto	l2589
	
l450:	
	goto	l2589
	line	617
	
l448:	
	line	644
;doprnt.c: 617: }
;doprnt.c: 644: switch(c = *f++) {
	goto	l2589
	line	646
;doprnt.c: 646: case 0:
	
l452:	
	line	647
;doprnt.c: 647: goto alldone;
	goto	l2665
	line	706
;doprnt.c: 706: case 'd':
	
l454:	
	goto	l2591
	line	707
	
l455:	
	line	708
;doprnt.c: 707: case 'i':
;doprnt.c: 708: break;
	goto	l2591
	line	811
;doprnt.c: 811: default:
	
l457:	
	line	822
;doprnt.c: 822: continue;
	goto	l2663
	line	831
	
l2587:	
;doprnt.c: 831: }
	goto	l2591
	line	644
	
l451:	
	
l2589:	
	movlw	01h
	bsf	status, 5	;RP0=1, select bank1
	bcf	status, 6	;RP1=0, select bank1
	addwf	(sprintf@f)^080h,f
	movlw	-01h
	addwf	(sprintf@f)^080h,w
	movwf	fsr0
	fcall	stringdir
	movwf	(sprintf@c)^080h
	; Switch size 1, requested type "space"
; Number of cases is 3, Range of values is 0 to 105
; switch strategies available:
; Name         Instructions Cycles
; simple_byte           10     6 (average)
; jumptable            260     6 (fixed)
;	Chosen strategy is simple_byte

	opt asmopt_off
	xorlw	0^0	; case 0
	skipnz
	goto	l2665
	xorlw	100^0	; case 100
	skipnz
	goto	l2591
	xorlw	105^100	; case 105
	skipnz
	goto	l2591
	goto	l2663
	opt asmopt_on

	line	831
	
l456:	
	line	1268
	
l2591:	
;doprnt.c: 1262: {
;doprnt.c: 1268: _val._val = (int)(*(int *)__va_arg((*(int **)ap), (int)0));
	bsf	status, 5	;RP0=1, select bank1
	bcf	status, 6	;RP1=0, select bank1
	movf	(sprintf@ap)^080h,w
	movwf	fsr0
	bcf	status, 7	;select IRP bank0
	movf	indf,w
	movwf	(sprintf@_val)^080h
	incf	fsr0,f
	movf	indf,w
	movwf	(sprintf@_val+1)^080h
	
l2593:	
	movlw	(02h)
	movwf	(??_sprintf+0)^080h+0
	movf	(??_sprintf+0)^080h+0,w
	addwf	(sprintf@ap)^080h,f
	line	1270
	
l2595:	
;doprnt.c: 1270: if((int)_val._val < 0) {
	btfss	(sprintf@_val+1)^080h,7
	goto	u2771
	goto	u2770
u2771:
	goto	l2601
u2770:
	line	1271
	
l2597:	
;doprnt.c: 1271: flag |= 0x03;
	movlw	(03h)
	movwf	(??_sprintf+0)^080h+0
	movf	(??_sprintf+0)^080h+0,w
	iorwf	(sprintf@flag)^080h,f
	line	1272
	
l2599:	
;doprnt.c: 1272: _val._val = -_val._val;
	comf	(sprintf@_val)^080h,f
	comf	(sprintf@_val+1)^080h,f
	incf	(sprintf@_val)^080h,f
	skipnz
	incf	(sprintf@_val+1)^080h,f
	goto	l2601
	line	1273
	
l458:	
	line	1314
	
l2601:	
;doprnt.c: 1273: }
;doprnt.c: 1275: }
;doprnt.c: 1314: for(c = 1 ; c != sizeof dpowers/sizeof dpowers[0] ; c++)
	clrf	(sprintf@c)^080h
	incf	(sprintf@c)^080h,f
	movf	(sprintf@c)^080h,w
	xorlw	05h
	skipz
	goto	u2781
	goto	u2780
u2781:
	goto	l2605
u2780:
	goto	l2613
	
l2603:	
	goto	l2613
	line	1315
	
l459:	
	
l2605:	
;doprnt.c: 1315: if(_val._val < dpowers[c])
	movf	(sprintf@c)^080h,w
	movwf	(??_sprintf+0)^080h+0
	addwf	(??_sprintf+0)^080h+0,w
	addlw	low((_dpowers)-__stringbase)
	movwf	fsr0
	fcall	stringdir
	movwf	(??_sprintf+1)^080h+0
	fcall	stringdir
	movwf	(??_sprintf+1)^080h+0+1
	movf	1+(??_sprintf+1)^080h+0,w
	subwf	(sprintf@_val+1)^080h,w
	skipz
	goto	u2795
	movf	0+(??_sprintf+1)^080h+0,w
	subwf	(sprintf@_val)^080h,w
u2795:
	skipnc
	goto	u2791
	goto	u2790
u2791:
	goto	l2609
u2790:
	goto	l2613
	line	1316
	
l2607:	
;doprnt.c: 1316: break;
	goto	l2613
	
l461:	
	line	1314
	
l2609:	
	movlw	(01h)
	movwf	(??_sprintf+0)^080h+0
	movf	(??_sprintf+0)^080h+0,w
	addwf	(sprintf@c)^080h,f
	
l2611:	
	movf	(sprintf@c)^080h,w
	xorlw	05h
	skipz
	goto	u2801
	goto	u2800
u2801:
	goto	l2605
u2800:
	goto	l2613
	
l460:	
	line	1354
	
l2613:	
;doprnt.c: 1354: if(width && flag & 0x03)
	movf	(sprintf@width+1)^080h,w
	iorwf	(sprintf@width)^080h,w
	skipnz
	goto	u2811
	goto	u2810
u2811:
	goto	l462
u2810:
	
l2615:	
	movf	(sprintf@flag)^080h,w
	andlw	03h
	btfsc	status,2
	goto	u2821
	goto	u2820
u2821:
	goto	l462
u2820:
	line	1355
	
l2617:	
;doprnt.c: 1355: width--;
	movlw	low(-1)
	addwf	(sprintf@width)^080h,f
	skipnc
	incf	(sprintf@width+1)^080h,f
	movlw	high(-1)
	addwf	(sprintf@width+1)^080h,f
	
l462:	
	line	1390
;doprnt.c: 1390: if(width > c)
	movf	(sprintf@c)^080h,w
	movwf	(??_sprintf+0)^080h+0
	clrf	(??_sprintf+0)^080h+0+1
	btfsc	(??_sprintf+0)^080h+0,7
	decf	(??_sprintf+0)^080h+0+1,f
	movf	1+(??_sprintf+0)^080h+0,w
	xorlw	80h
	movwf	(??_sprintf+2)^080h+0
	movf	(sprintf@width+1)^080h,w
	xorlw	80h
	subwf	(??_sprintf+2)^080h+0,w
	skipz
	goto	u2835
	movf	(sprintf@width)^080h,w
	subwf	0+(??_sprintf+0)^080h+0,w
u2835:

	skipnc
	goto	u2831
	goto	u2830
u2831:
	goto	l2621
u2830:
	line	1391
	
l2619:	
;doprnt.c: 1391: width -= c;
	bsf	status, 5	;RP0=1, select bank1
	bcf	status, 6	;RP1=0, select bank1
	movf	(sprintf@c)^080h,w
	movwf	(??_sprintf+0)^080h+0
	clrf	(??_sprintf+0)^080h+0+1
	btfsc	(??_sprintf+0)^080h+0,7
	decf	(??_sprintf+0)^080h+0+1,f
	movf	0+(??_sprintf+0)^080h+0,w
	subwf	(sprintf@width)^080h,f
	movf	1+(??_sprintf+0)^080h+0,w
	skipc
	decf	(sprintf@width+1)^080h,f
	subwf	(sprintf@width+1)^080h,f
	goto	l2623
	line	1392
	
l463:	
	line	1393
	
l2621:	
;doprnt.c: 1392: else
;doprnt.c: 1393: width = 0;
	bsf	status, 5	;RP0=1, select bank1
	bcf	status, 6	;RP1=0, select bank1
	clrf	(sprintf@width)^080h
	clrf	(sprintf@width+1)^080h
	goto	l2623
	
l464:	
	line	1396
	
l2623:	
;doprnt.c: 1396: if(flag & 0x04) {
	btfss	(sprintf@flag)^080h,(2)&7
	goto	u2841
	goto	u2840
u2841:
	goto	l2639
u2840:
	line	1401
	
l2625:	
;doprnt.c: 1401: if(flag & 0x03)
	movf	(sprintf@flag)^080h,w
	andlw	03h
	btfsc	status,2
	goto	u2851
	goto	u2850
u2851:
	goto	l2631
u2850:
	line	1402
	
l2627:	
;doprnt.c: 1402: ((*sp++ = ('-')));
	movlw	(02Dh)
	movwf	(??_sprintf+0)^080h+0
	movf	(sprintf@sp)^080h,w
	movwf	fsr0
	movf	(??_sprintf+0)^080h+0,w
	bsf	status, 7	;select IRP bank2
	movwf	indf
	
l2629:	
	movlw	(01h)
	movwf	(??_sprintf+0)^080h+0
	movf	(??_sprintf+0)^080h+0,w
	addwf	(sprintf@sp)^080h,f
	goto	l2631
	
l466:	
	line	1424
	
l2631:	
;doprnt.c: 1424: if(width)
	movf	(sprintf@width+1)^080h,w
	iorwf	(sprintf@width)^080h,w
	skipnz
	goto	u2861
	goto	u2860
u2861:
	goto	l2653
u2860:
	goto	l2633
	line	1425
;doprnt.c: 1425: do
	
l468:	
	line	1426
	
l2633:	
;doprnt.c: 1426: ((*sp++ = ('0')));
	movlw	(030h)
	movwf	(??_sprintf+0)^080h+0
	movf	(sprintf@sp)^080h,w
	movwf	fsr0
	movf	(??_sprintf+0)^080h+0,w
	bsf	status, 7	;select IRP bank2
	movwf	indf
	
l2635:	
	movlw	(01h)
	movwf	(??_sprintf+0)^080h+0
	movf	(??_sprintf+0)^080h+0,w
	addwf	(sprintf@sp)^080h,f
	line	1427
	
l2637:	
;doprnt.c: 1427: while(--width);
	movlw	low(-1)
	addwf	(sprintf@width)^080h,f
	skipnc
	incf	(sprintf@width+1)^080h,f
	movlw	high(-1)
	addwf	(sprintf@width+1)^080h,f
	movf	(((sprintf@width+1)^080h)),w
	iorwf	(((sprintf@width)^080h)),w
	skipz
	goto	u2871
	goto	u2870
u2871:
	goto	l2633
u2870:
	goto	l2653
	
l469:	
	goto	l2653
	
l467:	
	line	1429
;doprnt.c: 1429: } else
	goto	l2653
	
l465:	
	line	1437
	
l2639:	
;doprnt.c: 1431: {
;doprnt.c: 1433: if(width
;doprnt.c: 1437: )
	movf	(sprintf@width+1)^080h,w
	iorwf	(sprintf@width)^080h,w
	skipnz
	goto	u2881
	goto	u2880
u2881:
	goto	l2647
u2880:
	goto	l2641
	line	1438
;doprnt.c: 1438: do
	
l472:	
	line	1439
	
l2641:	
;doprnt.c: 1439: ((*sp++ = (' ')));
	movlw	(020h)
	movwf	(??_sprintf+0)^080h+0
	movf	(sprintf@sp)^080h,w
	movwf	fsr0
	movf	(??_sprintf+0)^080h+0,w
	bsf	status, 7	;select IRP bank2
	movwf	indf
	
l2643:	
	movlw	(01h)
	movwf	(??_sprintf+0)^080h+0
	movf	(??_sprintf+0)^080h+0,w
	addwf	(sprintf@sp)^080h,f
	line	1440
	
l2645:	
;doprnt.c: 1440: while(--width);
	movlw	low(-1)
	addwf	(sprintf@width)^080h,f
	skipnc
	incf	(sprintf@width+1)^080h,f
	movlw	high(-1)
	addwf	(sprintf@width+1)^080h,f
	movf	(((sprintf@width+1)^080h)),w
	iorwf	(((sprintf@width)^080h)),w
	skipz
	goto	u2891
	goto	u2890
u2891:
	goto	l2641
u2890:
	goto	l2647
	
l473:	
	goto	l2647
	
l471:	
	line	1447
	
l2647:	
;doprnt.c: 1447: if(flag & 0x03)
	movf	(sprintf@flag)^080h,w
	andlw	03h
	btfsc	status,2
	goto	u2901
	goto	u2900
u2901:
	goto	l2653
u2900:
	line	1448
	
l2649:	
;doprnt.c: 1448: ((*sp++ = ('-')));
	movlw	(02Dh)
	movwf	(??_sprintf+0)^080h+0
	movf	(sprintf@sp)^080h,w
	movwf	fsr0
	movf	(??_sprintf+0)^080h+0,w
	bsf	status, 7	;select IRP bank2
	movwf	indf
	
l2651:	
	movlw	(01h)
	movwf	(??_sprintf+0)^080h+0
	movf	(??_sprintf+0)^080h+0,w
	addwf	(sprintf@sp)^080h,f
	goto	l2653
	
l474:	
	goto	l2653
	line	1478
	
l470:	
	line	1481
	
l2653:	
;doprnt.c: 1478: }
;doprnt.c: 1481: prec = c;
	movf	(sprintf@c)^080h,w
	movwf	(??_sprintf+0)^080h+0
	movf	(??_sprintf+0)^080h+0,w
	movwf	(sprintf@prec)^080h
	line	1483
;doprnt.c: 1483: while(prec--) {
	goto	l2661
	
l476:	
	line	1498
	
l2655:	
;doprnt.c: 1487: {
;doprnt.c: 1498: c = (_val._val / dpowers[prec]) % 10 + '0';
	movlw	low(0Ah)
	movwf	(___lwmod@divisor)^080h
	movlw	high(0Ah)
	movwf	((___lwmod@divisor)^080h)+1
	movf	(sprintf@prec)^080h,w
	movwf	(??_sprintf+0)^080h+0
	addwf	(??_sprintf+0)^080h+0,w
	addlw	low((_dpowers)-__stringbase)
	movwf	fsr0
	fcall	stringdir
	movwf	(___lwdiv@divisor)^080h
	fcall	stringdir
	movwf	(___lwdiv@divisor+1)^080h
	movf	(sprintf@_val+1)^080h,w
	clrf	(___lwdiv@dividend+1)^080h
	addwf	(___lwdiv@dividend+1)^080h
	movf	(sprintf@_val)^080h,w
	clrf	(___lwdiv@dividend)^080h
	addwf	(___lwdiv@dividend)^080h

	fcall	___lwdiv
	bsf	status, 5	;RP0=1, select bank1
	bcf	status, 6	;RP1=0, select bank1
	movf	(1+(?___lwdiv))^080h,w
	clrf	(___lwmod@dividend+1)^080h
	addwf	(___lwmod@dividend+1)^080h
	movf	(0+(?___lwdiv))^080h,w
	clrf	(___lwmod@dividend)^080h
	addwf	(___lwmod@dividend)^080h

	fcall	___lwmod
	bsf	status, 5	;RP0=1, select bank1
	bcf	status, 6	;RP1=0, select bank1
	movf	(0+(?___lwmod))^080h,w
	addlw	030h
	movwf	(??_sprintf+1)^080h+0
	movf	(??_sprintf+1)^080h+0,w
	movwf	(sprintf@c)^080h
	line	1533
	
l2657:	
;doprnt.c: 1532: }
;doprnt.c: 1533: ((*sp++ = (c)));
	movf	(sprintf@c)^080h,w
	movwf	(??_sprintf+0)^080h+0
	movf	(sprintf@sp)^080h,w
	movwf	fsr0
	movf	(??_sprintf+0)^080h+0,w
	bsf	status, 7	;select IRP bank2
	movwf	indf
	
l2659:	
	movlw	(01h)
	movwf	(??_sprintf+0)^080h+0
	movf	(??_sprintf+0)^080h+0,w
	addwf	(sprintf@sp)^080h,f
	goto	l2661
	line	1534
	
l475:	
	line	1483
	
l2661:	
	movlw	(-1)
	movwf	(??_sprintf+0)^080h+0
	movf	(??_sprintf+0)^080h+0,w
	addwf	(sprintf@prec)^080h,f
	movf	((sprintf@prec)^080h),w
	xorlw	-1
	skipz
	goto	u2911
	goto	u2910
u2911:
	goto	l2655
u2910:
	goto	l2663
	
l477:	
	goto	l2663
	line	1542
	
l439:	
	line	545
	
l2663:	
	movlw	01h
	bsf	status, 5	;RP0=1, select bank1
	bcf	status, 6	;RP1=0, select bank1
	addwf	(sprintf@f)^080h,f
	movlw	-01h
	addwf	(sprintf@f)^080h,w
	movwf	fsr0
	fcall	stringdir
	movwf	(??_sprintf+0)^080h+0
	movf	(??_sprintf+0)^080h+0,w
	movwf	(sprintf@c)^080h
	movf	((sprintf@c)^080h),f
	skipz
	goto	u2921
	goto	u2920
u2921:
	goto	l2561
u2920:
	goto	l2665
	
l478:	
	goto	l2665
	line	1544
;doprnt.c: 1534: }
;doprnt.c: 1542: }
;doprnt.c: 1544: alldone:
	
l453:	
	line	1547
	
l2665:	
;doprnt.c: 1547: *sp = 0;
	bsf	status, 5	;RP0=1, select bank1
	bcf	status, 6	;RP1=0, select bank1
	movf	(sprintf@sp)^080h,w
	movwf	fsr0
	bsf	status, 7	;select IRP bank2
	clrf	indf
	goto	l479
	line	1549
	
l2667:	
	line	1550
;doprnt.c: 1549: return 0;
;	Return value of _sprintf is never used
	
l479:	
	return
	opt stack 0
GLOBAL	__end_of_sprintf
	__end_of_sprintf:
	signat	_sprintf,4698
	global	_isdigit

;; *************** function _isdigit *****************
;; Defined at:
;;		line 8 in file "C:\Program Files (x86)\Microchip\xc8\v1.33\sources\common\isdigit.c"
;; Parameters:    Size  Location     Type
;;  c               1    wreg     unsigned char 
;; Auto vars:     Size  Location     Type
;;  c               1    1[BANK1 ] unsigned char 
;; Return value:  Size  Location     Type
;;		None               void
;; Registers used:
;;		wreg, status,2, status,0
;; Tracked objects:
;;		On entry : 0/0
;;		On exit  : 0/0
;;		Unchanged: 0/0
;; Data sizes:     COMMON   BANK0   BANK1   BANK3   BANK2
;;      Params:         0       0       0       0       0
;;      Locals:         0       0       2       0       0
;;      Temps:          0       0       0       0       0
;;      Totals:         0       0       2       0       0
;;Total ram usage:        2 bytes
;; Hardware stack levels used:    1
;; Hardware stack levels required when called:    4
;; This function calls:
;;		Nothing
;; This function is called by:
;;		_sprintf
;; This function uses a non-reentrant model
;;
psect	text2,local,class=CODE,delta=2,merge=1
	file	"C:\Program Files (x86)\Microchip\xc8\v1.33\sources\common\isdigit.c"
	line	8
global __ptext2
__ptext2:	;psect for function _isdigit
psect	text2
	file	"C:\Program Files (x86)\Microchip\xc8\v1.33\sources\common\isdigit.c"
	line	8
	global	__size_of_isdigit
	__size_of_isdigit	equ	__end_of_isdigit-_isdigit
	
_isdigit:	
;incstack = 0
	opt	stack 2
; Regs used in _isdigit: [wreg+status,2+status,0]
;isdigit@c stored from wreg
	bsf	status, 5	;RP0=1, select bank1
	bcf	status, 6	;RP1=0, select bank1
	movwf	(isdigit@c)^080h
	line	14
	
l2107:	
	clrf	(_isdigit$1414)^080h
	
l2109:	
	movlw	(03Ah)
	subwf	(isdigit@c)^080h,w
	skipnc
	goto	u1931
	goto	u1930
u1931:
	goto	l2115
u1930:
	
l2111:	
	movlw	(030h)
	subwf	(isdigit@c)^080h,w
	skipc
	goto	u1941
	goto	u1940
u1941:
	goto	l2115
u1940:
	
l2113:	
	clrf	(_isdigit$1414)^080h
	incf	(_isdigit$1414)^080h,f
	goto	l2115
	
l819:	
	
l2115:	
	rrf	(_isdigit$1414)^080h,w
	
	goto	l820
	
l2117:	
	line	15
	
l820:	
	return
	opt stack 0
GLOBAL	__end_of_isdigit
	__end_of_isdigit:
	signat	_isdigit,4216
	global	___wmul

;; *************** function ___wmul *****************
;; Defined at:
;;		line 15 in file "C:\Program Files (x86)\Microchip\xc8\v1.33\sources\common\Umul16.c"
;; Parameters:    Size  Location     Type
;;  multiplier      2    0[BANK1 ] unsigned int 
;;  multiplicand    2    2[BANK1 ] unsigned int 
;; Auto vars:     Size  Location     Type
;;  product         2    4[BANK1 ] unsigned int 
;; Return value:  Size  Location     Type
;;                  2    0[BANK1 ] unsigned int 
;; Registers used:
;;		wreg, status,2, status,0
;; Tracked objects:
;;		On entry : 0/0
;;		On exit  : 0/0
;;		Unchanged: 0/0
;; Data sizes:     COMMON   BANK0   BANK1   BANK3   BANK2
;;      Params:         0       0       4       0       0
;;      Locals:         0       0       2       0       0
;;      Temps:          0       0       0       0       0
;;      Totals:         0       0       6       0       0
;;Total ram usage:        6 bytes
;; Hardware stack levels used:    1
;; Hardware stack levels required when called:    4
;; This function calls:
;;		Nothing
;; This function is called by:
;;		_sprintf
;; This function uses a non-reentrant model
;;
psect	text3,local,class=CODE,delta=2,merge=1
	file	"C:\Program Files (x86)\Microchip\xc8\v1.33\sources\common\Umul16.c"
	line	15
global __ptext3
__ptext3:	;psect for function ___wmul
psect	text3
	file	"C:\Program Files (x86)\Microchip\xc8\v1.33\sources\common\Umul16.c"
	line	15
	global	__size_of___wmul
	__size_of___wmul	equ	__end_of___wmul-___wmul
	
___wmul:	
;incstack = 0
	opt	stack 2
; Regs used in ___wmul: [wreg+status,2+status,0]
	line	43
	
l2119:	
	bsf	status, 5	;RP0=1, select bank1
	bcf	status, 6	;RP1=0, select bank1
	clrf	(___wmul@product)^080h
	clrf	(___wmul@product+1)^080h
	goto	l2121
	line	44
	
l562:	
	line	45
	
l2121:	
	btfss	(___wmul@multiplier)^080h,(0)&7
	goto	u1951
	goto	u1950
u1951:
	goto	l563
u1950:
	line	46
	
l2123:	
	movf	(___wmul@multiplicand)^080h,w
	addwf	(___wmul@product)^080h,f
	skipnc
	incf	(___wmul@product+1)^080h,f
	movf	(___wmul@multiplicand+1)^080h,w
	addwf	(___wmul@product+1)^080h,f
	
l563:	
	line	47
	movlw	01h
	
u1965:
	clrc
	rlf	(___wmul@multiplicand)^080h,f
	rlf	(___wmul@multiplicand+1)^080h,f
	addlw	-1
	skipz
	goto	u1965
	line	48
	
l2125:	
	movlw	01h
	
u1975:
	clrc
	rrf	(___wmul@multiplier+1)^080h,f
	rrf	(___wmul@multiplier)^080h,f
	addlw	-1
	skipz
	goto	u1975
	line	49
	movf	((___wmul@multiplier+1)^080h),w
	iorwf	((___wmul@multiplier)^080h),w
	skipz
	goto	u1981
	goto	u1980
u1981:
	goto	l2121
u1980:
	goto	l2127
	
l564:	
	line	52
	
l2127:	
	movf	(___wmul@product+1)^080h,w
	clrf	(?___wmul+1)^080h
	addwf	(?___wmul+1)^080h
	movf	(___wmul@product)^080h,w
	clrf	(?___wmul)^080h
	addwf	(?___wmul)^080h

	goto	l565
	
l2129:	
	line	53
	
l565:	
	return
	opt stack 0
GLOBAL	__end_of___wmul
	__end_of___wmul:
	signat	___wmul,8314
	global	___lwmod

;; *************** function ___lwmod *****************
;; Defined at:
;;		line 6 in file "C:\Program Files (x86)\Microchip\xc8\v1.33\sources\common\lwmod.c"
;; Parameters:    Size  Location     Type
;;  divisor         2    8[BANK1 ] unsigned int 
;;  dividend        2   10[BANK1 ] unsigned int 
;; Auto vars:     Size  Location     Type
;;  counter         1   13[BANK1 ] unsigned char 
;; Return value:  Size  Location     Type
;;                  2    8[BANK1 ] unsigned int 
;; Registers used:
;;		wreg, status,2, status,0
;; Tracked objects:
;;		On entry : 0/0
;;		On exit  : 0/0
;;		Unchanged: 0/0
;; Data sizes:     COMMON   BANK0   BANK1   BANK3   BANK2
;;      Params:         0       0       4       0       0
;;      Locals:         0       0       1       0       0
;;      Temps:          0       0       1       0       0
;;      Totals:         0       0       6       0       0
;;Total ram usage:        6 bytes
;; Hardware stack levels used:    1
;; Hardware stack levels required when called:    4
;; This function calls:
;;		Nothing
;; This function is called by:
;;		_sprintf
;; This function uses a non-reentrant model
;;
psect	text4,local,class=CODE,delta=2,merge=1
	file	"C:\Program Files (x86)\Microchip\xc8\v1.33\sources\common\lwmod.c"
	line	6
global __ptext4
__ptext4:	;psect for function ___lwmod
psect	text4
	file	"C:\Program Files (x86)\Microchip\xc8\v1.33\sources\common\lwmod.c"
	line	6
	global	__size_of___lwmod
	__size_of___lwmod	equ	__end_of___lwmod-___lwmod
	
___lwmod:	
;incstack = 0
	opt	stack 2
; Regs used in ___lwmod: [wreg+status,2+status,0]
	line	13
	
l2339:	
	bsf	status, 5	;RP0=1, select bank1
	bcf	status, 6	;RP1=0, select bank1
	movf	(___lwmod@divisor+1)^080h,w
	iorwf	(___lwmod@divisor)^080h,w
	skipnz
	goto	u2541
	goto	u2540
u2541:
	goto	l2357
u2540:
	line	14
	
l2341:	
	clrf	(___lwmod@counter)^080h
	incf	(___lwmod@counter)^080h,f
	line	15
	goto	l2347
	
l909:	
	line	16
	
l2343:	
	movlw	01h
	
u2555:
	clrc
	rlf	(___lwmod@divisor)^080h,f
	rlf	(___lwmod@divisor+1)^080h,f
	addlw	-1
	skipz
	goto	u2555
	line	17
	
l2345:	
	movlw	(01h)
	movwf	(??___lwmod+0)^080h+0
	movf	(??___lwmod+0)^080h+0,w
	addwf	(___lwmod@counter)^080h,f
	goto	l2347
	line	18
	
l908:	
	line	15
	
l2347:	
	btfss	(___lwmod@divisor+1)^080h,(15)&7
	goto	u2561
	goto	u2560
u2561:
	goto	l2343
u2560:
	goto	l2349
	
l910:	
	goto	l2349
	line	19
	
l911:	
	line	20
	
l2349:	
	movf	(___lwmod@divisor+1)^080h,w
	subwf	(___lwmod@dividend+1)^080h,w
	skipz
	goto	u2575
	movf	(___lwmod@divisor)^080h,w
	subwf	(___lwmod@dividend)^080h,w
u2575:
	skipc
	goto	u2571
	goto	u2570
u2571:
	goto	l2353
u2570:
	line	21
	
l2351:	
	movf	(___lwmod@divisor)^080h,w
	subwf	(___lwmod@dividend)^080h,f
	movf	(___lwmod@divisor+1)^080h,w
	skipc
	decf	(___lwmod@dividend+1)^080h,f
	subwf	(___lwmod@dividend+1)^080h,f
	goto	l2353
	
l912:	
	line	22
	
l2353:	
	movlw	01h
	
u2585:
	clrc
	rrf	(___lwmod@divisor+1)^080h,f
	rrf	(___lwmod@divisor)^080h,f
	addlw	-1
	skipz
	goto	u2585
	line	23
	
l2355:	
	movlw	low(01h)
	subwf	(___lwmod@counter)^080h,f
	btfss	status,2
	goto	u2591
	goto	u2590
u2591:
	goto	l2349
u2590:
	goto	l2357
	
l913:	
	goto	l2357
	line	24
	
l907:	
	line	25
	
l2357:	
	movf	(___lwmod@dividend+1)^080h,w
	clrf	(?___lwmod+1)^080h
	addwf	(?___lwmod+1)^080h
	movf	(___lwmod@dividend)^080h,w
	clrf	(?___lwmod)^080h
	addwf	(?___lwmod)^080h

	goto	l914
	
l2359:	
	line	26
	
l914:	
	return
	opt stack 0
GLOBAL	__end_of___lwmod
	__end_of___lwmod:
	signat	___lwmod,8314
	global	___lwdiv

;; *************** function ___lwdiv *****************
;; Defined at:
;;		line 6 in file "C:\Program Files (x86)\Microchip\xc8\v1.33\sources\common\lwdiv.c"
;; Parameters:    Size  Location     Type
;;  divisor         2    0[BANK1 ] unsigned int 
;;  dividend        2    2[BANK1 ] unsigned int 
;; Auto vars:     Size  Location     Type
;;  quotient        2    5[BANK1 ] unsigned int 
;;  counter         1    7[BANK1 ] unsigned char 
;; Return value:  Size  Location     Type
;;                  2    0[BANK1 ] unsigned int 
;; Registers used:
;;		wreg, status,2, status,0
;; Tracked objects:
;;		On entry : 0/0
;;		On exit  : 0/0
;;		Unchanged: 0/0
;; Data sizes:     COMMON   BANK0   BANK1   BANK3   BANK2
;;      Params:         0       0       4       0       0
;;      Locals:         0       0       3       0       0
;;      Temps:          0       0       1       0       0
;;      Totals:         0       0       8       0       0
;;Total ram usage:        8 bytes
;; Hardware stack levels used:    1
;; Hardware stack levels required when called:    4
;; This function calls:
;;		Nothing
;; This function is called by:
;;		_sprintf
;; This function uses a non-reentrant model
;;
psect	text5,local,class=CODE,delta=2,merge=1
	file	"C:\Program Files (x86)\Microchip\xc8\v1.33\sources\common\lwdiv.c"
	line	6
global __ptext5
__ptext5:	;psect for function ___lwdiv
psect	text5
	file	"C:\Program Files (x86)\Microchip\xc8\v1.33\sources\common\lwdiv.c"
	line	6
	global	__size_of___lwdiv
	__size_of___lwdiv	equ	__end_of___lwdiv-___lwdiv
	
___lwdiv:	
;incstack = 0
	opt	stack 2
; Regs used in ___lwdiv: [wreg+status,2+status,0]
	line	14
	
l2313:	
	bsf	status, 5	;RP0=1, select bank1
	bcf	status, 6	;RP1=0, select bank1
	clrf	(___lwdiv@quotient)^080h
	clrf	(___lwdiv@quotient+1)^080h
	line	15
	
l2315:	
	movf	(___lwdiv@divisor+1)^080h,w
	iorwf	(___lwdiv@divisor)^080h,w
	skipnz
	goto	u2471
	goto	u2470
u2471:
	goto	l2335
u2470:
	line	16
	
l2317:	
	clrf	(___lwdiv@counter)^080h
	incf	(___lwdiv@counter)^080h,f
	line	17
	goto	l2323
	
l899:	
	line	18
	
l2319:	
	movlw	01h
	
u2485:
	clrc
	rlf	(___lwdiv@divisor)^080h,f
	rlf	(___lwdiv@divisor+1)^080h,f
	addlw	-1
	skipz
	goto	u2485
	line	19
	
l2321:	
	movlw	(01h)
	movwf	(??___lwdiv+0)^080h+0
	movf	(??___lwdiv+0)^080h+0,w
	addwf	(___lwdiv@counter)^080h,f
	goto	l2323
	line	20
	
l898:	
	line	17
	
l2323:	
	btfss	(___lwdiv@divisor+1)^080h,(15)&7
	goto	u2491
	goto	u2490
u2491:
	goto	l2319
u2490:
	goto	l2325
	
l900:	
	goto	l2325
	line	21
	
l901:	
	line	22
	
l2325:	
	movlw	01h
	
u2505:
	clrc
	rlf	(___lwdiv@quotient)^080h,f
	rlf	(___lwdiv@quotient+1)^080h,f
	addlw	-1
	skipz
	goto	u2505
	line	23
	movf	(___lwdiv@divisor+1)^080h,w
	subwf	(___lwdiv@dividend+1)^080h,w
	skipz
	goto	u2515
	movf	(___lwdiv@divisor)^080h,w
	subwf	(___lwdiv@dividend)^080h,w
u2515:
	skipc
	goto	u2511
	goto	u2510
u2511:
	goto	l2331
u2510:
	line	24
	
l2327:	
	movf	(___lwdiv@divisor)^080h,w
	subwf	(___lwdiv@dividend)^080h,f
	movf	(___lwdiv@divisor+1)^080h,w
	skipc
	decf	(___lwdiv@dividend+1)^080h,f
	subwf	(___lwdiv@dividend+1)^080h,f
	line	25
	
l2329:	
	bsf	(___lwdiv@quotient)^080h+(0/8),(0)&7
	goto	l2331
	line	26
	
l902:	
	line	27
	
l2331:	
	movlw	01h
	
u2525:
	clrc
	rrf	(___lwdiv@divisor+1)^080h,f
	rrf	(___lwdiv@divisor)^080h,f
	addlw	-1
	skipz
	goto	u2525
	line	28
	
l2333:	
	movlw	low(01h)
	subwf	(___lwdiv@counter)^080h,f
	btfss	status,2
	goto	u2531
	goto	u2530
u2531:
	goto	l2325
u2530:
	goto	l2335
	
l903:	
	goto	l2335
	line	29
	
l897:	
	line	30
	
l2335:	
	movf	(___lwdiv@quotient+1)^080h,w
	clrf	(?___lwdiv+1)^080h
	addwf	(?___lwdiv+1)^080h
	movf	(___lwdiv@quotient)^080h,w
	clrf	(?___lwdiv)^080h
	addwf	(?___lwdiv)^080h

	goto	l904
	
l2337:	
	line	31
	
l904:	
	return
	opt stack 0
GLOBAL	__end_of___lwdiv
	__end_of___lwdiv:
	signat	___lwdiv,8314
	global	_USART_Init

;; *************** function _USART_Init *****************
;; Defined at:
;;		line 6 in file "E:\projeto-fuzzy-rpm\firmware\usart.c"
;; Parameters:    Size  Location     Type
;;  BaudRate        4   15[BANK1 ] long 
;; Auto vars:     Size  Location     Type
;;		None
;; Return value:  Size  Location     Type
;;		None               void
;; Registers used:
;;		wreg, status,2, status,0, pclath, cstack
;; Tracked objects:
;;		On entry : 0/0
;;		On exit  : 0/0
;;		Unchanged: 0/0
;; Data sizes:     COMMON   BANK0   BANK1   BANK3   BANK2
;;      Params:         0       0       4       0       0
;;      Locals:         0       0       0       0       0
;;      Temps:          0       0       4       0       0
;;      Totals:         0       0       8       0       0
;;Total ram usage:        8 bytes
;; Hardware stack levels used:    1
;; Hardware stack levels required when called:    5
;; This function calls:
;;		___aldiv
;; This function is called by:
;;		_main
;; This function uses a non-reentrant model
;;
psect	text6,local,class=CODE,delta=2,merge=1
	file	"E:\projeto-fuzzy-rpm\firmware\usart.c"
	line	6
global __ptext6
__ptext6:	;psect for function _USART_Init
psect	text6
	file	"E:\projeto-fuzzy-rpm\firmware\usart.c"
	line	6
	global	__size_of_USART_Init
	__size_of_USART_Init	equ	__end_of_USART_Init-_USART_Init
	
_USART_Init:	
;incstack = 0
	opt	stack 2
; Regs used in _USART_Init: [wreg+status,2+status,0+pclath+cstack]
	line	13
	
l2437:	
;usart.c: 13: SPBRG = (unsigned char)(18432000 / (16 * BaudRate)) - 1;
	bsf	status, 5	;RP0=1, select bank1
	bcf	status, 6	;RP1=0, select bank1
	movf	(USART_Init@BaudRate)^080h,w
	movwf	(??_USART_Init+0)^080h+0
	movf	(USART_Init@BaudRate+1)^080h,w
	movwf	((??_USART_Init+0)^080h+0+1)
	movf	(USART_Init@BaudRate+2)^080h,w
	movwf	((??_USART_Init+0)^080h+0+2)
	movf	(USART_Init@BaudRate+3)^080h,w
	movwf	((??_USART_Init+0)^080h+0+3)
	movlw	04h
u2705:
	clrc
	rlf	(??_USART_Init+0)^080h+0,f
	rlf	(??_USART_Init+0)^080h+1,f
	rlf	(??_USART_Init+0)^080h+2,f
	rlf	(??_USART_Init+0)^080h+3,f
u2700:
	addlw	-1
	skipz
	goto	u2705
	movf	3+(??_USART_Init+0)^080h+0,w
	movwf	(___aldiv@divisor+3)^080h
	movf	2+(??_USART_Init+0)^080h+0,w
	movwf	(___aldiv@divisor+2)^080h
	movf	1+(??_USART_Init+0)^080h+0,w
	movwf	(___aldiv@divisor+1)^080h
	movf	0+(??_USART_Init+0)^080h+0,w
	movwf	(___aldiv@divisor)^080h

	movlw	01h
	movwf	(___aldiv@dividend+3)^080h
	movlw	019h
	movwf	(___aldiv@dividend+2)^080h
	movlw	040h
	movwf	(___aldiv@dividend+1)^080h
	movlw	0
	movwf	(___aldiv@dividend)^080h

	fcall	___aldiv
	bsf	status, 5	;RP0=1, select bank1
	bcf	status, 6	;RP1=0, select bank1
	movf	0+(((0+(?___aldiv))^080h)),w
	addlw	0FFh
	movwf	(153)^080h	;volatile
	line	16
	
l2439:	
;usart.c: 16: TXSTAbits.CSRC = 0;
	bcf	(152)^080h,7	;volatile
	line	17
	
l2441:	
;usart.c: 17: TXSTAbits.TX9 = 0;
	bcf	(152)^080h,6	;volatile
	line	18
	
l2443:	
;usart.c: 18: TXSTAbits.TXEN = 1;
	bsf	(152)^080h,5	;volatile
	line	19
	
l2445:	
;usart.c: 19: TXSTAbits.SYNC = 0;
	bcf	(152)^080h,4	;volatile
	line	21
	
l2447:	
;usart.c: 21: TXSTAbits.BRGH = 1;
	bsf	(152)^080h,2	;volatile
	line	22
	
l2449:	
;usart.c: 22: TXSTAbits.TRMT = 1;
	bsf	(152)^080h,1	;volatile
	line	23
	
l2451:	
;usart.c: 23: TXSTAbits.TX9D = 0;
	bcf	(152)^080h,0	;volatile
	line	26
	
l2453:	
;usart.c: 26: RCSTAbits.SPEN = 1;
	bcf	status, 5	;RP0=0, select bank0
	bcf	status, 6	;RP1=0, select bank0
	bsf	(24),7	;volatile
	line	27
	
l2455:	
;usart.c: 27: RCSTAbits.RX9 = 0;
	bcf	(24),6	;volatile
	line	28
	
l2457:	
;usart.c: 28: RCSTAbits.SREN = 0;
	bcf	(24),5	;volatile
	line	29
	
l2459:	
;usart.c: 29: RCSTAbits.CREN = 1;
	bsf	(24),4	;volatile
	line	30
	
l2461:	
;usart.c: 30: RCSTAbits.ADDEN = 0;
	bcf	(24),3	;volatile
	line	31
	
l2463:	
;usart.c: 31: RCSTAbits.FERR = 0;
	bcf	(24),2	;volatile
	line	32
	
l2465:	
;usart.c: 32: RCSTAbits.OERR = 0;
	bcf	(24),1	;volatile
	line	33
	
l2467:	
;usart.c: 33: RCSTAbits.RX9D = 0;
	bcf	(24),0	;volatile
	line	36
	
l2469:	
;usart.c: 36: PIE1bits.TXIE = 0;
	bsf	status, 5	;RP0=1, select bank1
	bcf	status, 6	;RP1=0, select bank1
	bcf	(140)^080h,4	;volatile
	line	37
	
l2471:	
;usart.c: 37: PIR1bits.TXIF = 0;
	bcf	status, 5	;RP0=0, select bank0
	bcf	status, 6	;RP1=0, select bank0
	bcf	(12),4	;volatile
	line	38
	
l2473:	
;usart.c: 38: PIE1bits.RCIE = 1;
	bsf	status, 5	;RP0=1, select bank1
	bcf	status, 6	;RP1=0, select bank1
	bsf	(140)^080h,5	;volatile
	line	39
	
l2475:	
;usart.c: 39: PIR1bits.RCIF = 0;
	bcf	status, 5	;RP0=0, select bank0
	bcf	status, 6	;RP1=0, select bank0
	bcf	(12),5	;volatile
	line	40
	
l189:	
	return
	opt stack 0
GLOBAL	__end_of_USART_Init
	__end_of_USART_Init:
	signat	_USART_Init,4216
	global	___aldiv

;; *************** function ___aldiv *****************
;; Defined at:
;;		line 6 in file "C:\Program Files (x86)\Microchip\xc8\v1.33\sources\common\aldiv.c"
;; Parameters:    Size  Location     Type
;;  divisor         4    0[BANK1 ] long 
;;  dividend        4    4[BANK1 ] long 
;; Auto vars:     Size  Location     Type
;;  quotient        4   11[BANK1 ] long 
;;  sign            1   10[BANK1 ] unsigned char 
;;  counter         1    9[BANK1 ] unsigned char 
;; Return value:  Size  Location     Type
;;                  4    0[BANK1 ] long 
;; Registers used:
;;		wreg, status,2, status,0
;; Tracked objects:
;;		On entry : 0/0
;;		On exit  : 0/0
;;		Unchanged: 0/0
;; Data sizes:     COMMON   BANK0   BANK1   BANK3   BANK2
;;      Params:         0       0       8       0       0
;;      Locals:         0       0       6       0       0
;;      Temps:          0       0       1       0       0
;;      Totals:         0       0      15       0       0
;;Total ram usage:       15 bytes
;; Hardware stack levels used:    1
;; Hardware stack levels required when called:    4
;; This function calls:
;;		Nothing
;; This function is called by:
;;		_USART_Init
;; This function uses a non-reentrant model
;;
psect	text7,local,class=CODE,delta=2,merge=1
	file	"C:\Program Files (x86)\Microchip\xc8\v1.33\sources\common\aldiv.c"
	line	6
global __ptext7
__ptext7:	;psect for function ___aldiv
psect	text7
	file	"C:\Program Files (x86)\Microchip\xc8\v1.33\sources\common\aldiv.c"
	line	6
	global	__size_of___aldiv
	__size_of___aldiv	equ	__end_of___aldiv-___aldiv
	
___aldiv:	
;incstack = 0
	opt	stack 2
; Regs used in ___aldiv: [wreg+status,2+status,0]
	line	14
	
l2131:	
	bsf	status, 5	;RP0=1, select bank1
	bcf	status, 6	;RP1=0, select bank1
	clrf	(___aldiv@sign)^080h
	line	15
	
l2133:	
	btfss	(___aldiv@divisor+3)^080h,7
	goto	u1991
	goto	u1990
u1991:
	goto	l618
u1990:
	line	16
	
l2135:	
	comf	(___aldiv@divisor)^080h,f
	comf	(___aldiv@divisor+1)^080h,f
	comf	(___aldiv@divisor+2)^080h,f
	comf	(___aldiv@divisor+3)^080h,f
	incf	(___aldiv@divisor)^080h,f
	skipnz
	incf	(___aldiv@divisor+1)^080h,f
	skipnz
	incf	(___aldiv@divisor+2)^080h,f
	skipnz
	incf	(___aldiv@divisor+3)^080h,f
	line	17
	clrf	(___aldiv@sign)^080h
	incf	(___aldiv@sign)^080h,f
	line	18
	
l618:	
	line	19
	btfss	(___aldiv@dividend+3)^080h,7
	goto	u2001
	goto	u2000
u2001:
	goto	l2141
u2000:
	line	20
	
l2137:	
	comf	(___aldiv@dividend)^080h,f
	comf	(___aldiv@dividend+1)^080h,f
	comf	(___aldiv@dividend+2)^080h,f
	comf	(___aldiv@dividend+3)^080h,f
	incf	(___aldiv@dividend)^080h,f
	skipnz
	incf	(___aldiv@dividend+1)^080h,f
	skipnz
	incf	(___aldiv@dividend+2)^080h,f
	skipnz
	incf	(___aldiv@dividend+3)^080h,f
	line	21
	
l2139:	
	movlw	(01h)
	movwf	(??___aldiv+0)^080h+0
	movf	(??___aldiv+0)^080h+0,w
	xorwf	(___aldiv@sign)^080h,f
	goto	l2141
	line	22
	
l619:	
	line	23
	
l2141:	
	movlw	0
	movwf	(___aldiv@quotient+3)^080h
	movlw	0
	movwf	(___aldiv@quotient+2)^080h
	movlw	0
	movwf	(___aldiv@quotient+1)^080h
	movlw	0
	movwf	(___aldiv@quotient)^080h

	line	24
	
l2143:	
	movf	(___aldiv@divisor+3)^080h,w
	iorwf	(___aldiv@divisor+2)^080h,w
	iorwf	(___aldiv@divisor+1)^080h,w
	iorwf	(___aldiv@divisor)^080h,w
	skipnz
	goto	u2011
	goto	u2010
u2011:
	goto	l2163
u2010:
	line	25
	
l2145:	
	clrf	(___aldiv@counter)^080h
	incf	(___aldiv@counter)^080h,f
	line	26
	goto	l2149
	
l622:	
	line	27
	
l2147:	
	movlw	01h
	movwf	(??___aldiv+0)^080h+0
u2025:
	clrc
	rlf	(___aldiv@divisor)^080h,f
	rlf	(___aldiv@divisor+1)^080h,f
	rlf	(___aldiv@divisor+2)^080h,f
	rlf	(___aldiv@divisor+3)^080h,f
	decfsz	(??___aldiv+0)^080h+0
	goto	u2025
	line	28
	movlw	(01h)
	movwf	(??___aldiv+0)^080h+0
	movf	(??___aldiv+0)^080h+0,w
	addwf	(___aldiv@counter)^080h,f
	goto	l2149
	line	29
	
l621:	
	line	26
	
l2149:	
	btfss	(___aldiv@divisor+3)^080h,(31)&7
	goto	u2031
	goto	u2030
u2031:
	goto	l2147
u2030:
	goto	l2151
	
l623:	
	goto	l2151
	line	30
	
l624:	
	line	31
	
l2151:	
	movlw	01h
	movwf	(??___aldiv+0)^080h+0
u2045:
	clrc
	rlf	(___aldiv@quotient)^080h,f
	rlf	(___aldiv@quotient+1)^080h,f
	rlf	(___aldiv@quotient+2)^080h,f
	rlf	(___aldiv@quotient+3)^080h,f
	decfsz	(??___aldiv+0)^080h+0
	goto	u2045
	line	32
	
l2153:	
	movf	(___aldiv@divisor+3)^080h,w
	subwf	(___aldiv@dividend+3)^080h,w
	skipz
	goto	u2055
	movf	(___aldiv@divisor+2)^080h,w
	subwf	(___aldiv@dividend+2)^080h,w
	skipz
	goto	u2055
	movf	(___aldiv@divisor+1)^080h,w
	subwf	(___aldiv@dividend+1)^080h,w
	skipz
	goto	u2055
	movf	(___aldiv@divisor)^080h,w
	subwf	(___aldiv@dividend)^080h,w
u2055:
	skipc
	goto	u2051
	goto	u2050
u2051:
	goto	l2159
u2050:
	line	33
	
l2155:	
	movf	(___aldiv@divisor)^080h,w
	subwf	(___aldiv@dividend)^080h,f
	movf	(___aldiv@divisor+1)^080h,w
	skipc
	incfsz	(___aldiv@divisor+1)^080h,w
	subwf	(___aldiv@dividend+1)^080h,f
	movf	(___aldiv@divisor+2)^080h,w
	skipc
	incfsz	(___aldiv@divisor+2)^080h,w
	subwf	(___aldiv@dividend+2)^080h,f
	movf	(___aldiv@divisor+3)^080h,w
	skipc
	incfsz	(___aldiv@divisor+3)^080h,w
	subwf	(___aldiv@dividend+3)^080h,f
	line	34
	
l2157:	
	bsf	(___aldiv@quotient)^080h+(0/8),(0)&7
	goto	l2159
	line	35
	
l625:	
	line	36
	
l2159:	
	movlw	01h
u2065:
	clrc
	rrf	(___aldiv@divisor+3)^080h,f
	rrf	(___aldiv@divisor+2)^080h,f
	rrf	(___aldiv@divisor+1)^080h,f
	rrf	(___aldiv@divisor)^080h,f
	addlw	-1
	skipz
	goto	u2065

	line	37
	
l2161:	
	movlw	low(01h)
	subwf	(___aldiv@counter)^080h,f
	btfss	status,2
	goto	u2071
	goto	u2070
u2071:
	goto	l2151
u2070:
	goto	l2163
	
l626:	
	goto	l2163
	line	38
	
l620:	
	line	39
	
l2163:	
	movf	(___aldiv@sign)^080h,w
	skipz
	goto	u2080
	goto	l2167
u2080:
	line	40
	
l2165:	
	comf	(___aldiv@quotient)^080h,f
	comf	(___aldiv@quotient+1)^080h,f
	comf	(___aldiv@quotient+2)^080h,f
	comf	(___aldiv@quotient+3)^080h,f
	incf	(___aldiv@quotient)^080h,f
	skipnz
	incf	(___aldiv@quotient+1)^080h,f
	skipnz
	incf	(___aldiv@quotient+2)^080h,f
	skipnz
	incf	(___aldiv@quotient+3)^080h,f
	goto	l2167
	
l627:	
	line	41
	
l2167:	
	movf	(___aldiv@quotient+3)^080h,w
	movwf	(?___aldiv+3)^080h
	movf	(___aldiv@quotient+2)^080h,w
	movwf	(?___aldiv+2)^080h
	movf	(___aldiv@quotient+1)^080h,w
	movwf	(?___aldiv+1)^080h
	movf	(___aldiv@quotient)^080h,w
	movwf	(?___aldiv)^080h

	goto	l628
	
l2169:	
	line	42
	
l628:	
	return
	opt stack 0
GLOBAL	__end_of___aldiv
	__end_of___aldiv:
	signat	___aldiv,8316
	global	_TIMER0_Set

;; *************** function _TIMER0_Set *****************
;; Defined at:
;;		line 20 in file "E:\projeto-fuzzy-rpm\firmware\timers.c"
;; Parameters:    Size  Location     Type
;;  contagens       1    wreg     unsigned char 
;; Auto vars:     Size  Location     Type
;;  contagens       1    0[BANK1 ] unsigned char 
;; Return value:  Size  Location     Type
;;		None               void
;; Registers used:
;;		wreg
;; Tracked objects:
;;		On entry : 0/0
;;		On exit  : 0/0
;;		Unchanged: 0/0
;; Data sizes:     COMMON   BANK0   BANK1   BANK3   BANK2
;;      Params:         0       0       0       0       0
;;      Locals:         0       0       1       0       0
;;      Temps:          0       0       0       0       0
;;      Totals:         0       0       1       0       0
;;Total ram usage:        1 bytes
;; Hardware stack levels used:    1
;; Hardware stack levels required when called:    4
;; This function calls:
;;		Nothing
;; This function is called by:
;;		_main
;; This function uses a non-reentrant model
;;
psect	text8,local,class=CODE,delta=2,merge=1
	file	"E:\projeto-fuzzy-rpm\firmware\timers.c"
	line	20
global __ptext8
__ptext8:	;psect for function _TIMER0_Set
psect	text8
	file	"E:\projeto-fuzzy-rpm\firmware\timers.c"
	line	20
	global	__size_of_TIMER0_Set
	__size_of_TIMER0_Set	equ	__end_of_TIMER0_Set-_TIMER0_Set
	
_TIMER0_Set:	
;incstack = 0
	opt	stack 3
; Regs used in _TIMER0_Set: [wreg]
;TIMER0_Set@contagens stored from wreg
	bsf	status, 5	;RP0=1, select bank1
	bcf	status, 6	;RP1=0, select bank1
	movwf	(TIMER0_Set@contagens)^080h
	line	22
	
l2431:	
;timers.c: 22: TMR0 = contagens;
	movf	(TIMER0_Set@contagens)^080h,w
	bcf	status, 5	;RP0=0, select bank0
	bcf	status, 6	;RP1=0, select bank0
	movwf	(1)	;volatile
	line	23
	
l249:	
	return
	opt stack 0
GLOBAL	__end_of_TIMER0_Set
	__end_of_TIMER0_Set:
	signat	_TIMER0_Set,4216
	global	_TIMER0_Init

;; *************** function _TIMER0_Init *****************
;; Defined at:
;;		line 6 in file "E:\projeto-fuzzy-rpm\firmware\timers.c"
;; Parameters:    Size  Location     Type
;;		None
;; Auto vars:     Size  Location     Type
;;		None
;; Return value:  Size  Location     Type
;;		None               void
;; Registers used:
;;		None
;; Tracked objects:
;;		On entry : 0/0
;;		On exit  : 0/0
;;		Unchanged: 0/0
;; Data sizes:     COMMON   BANK0   BANK1   BANK3   BANK2
;;      Params:         0       0       0       0       0
;;      Locals:         0       0       0       0       0
;;      Temps:          0       0       0       0       0
;;      Totals:         0       0       0       0       0
;;Total ram usage:        0 bytes
;; Hardware stack levels used:    1
;; Hardware stack levels required when called:    4
;; This function calls:
;;		Nothing
;; This function is called by:
;;		_main
;; This function uses a non-reentrant model
;;
psect	text9,local,class=CODE,delta=2,merge=1
	line	6
global __ptext9
__ptext9:	;psect for function _TIMER0_Init
psect	text9
	file	"E:\projeto-fuzzy-rpm\firmware\timers.c"
	line	6
	global	__size_of_TIMER0_Init
	__size_of_TIMER0_Init	equ	__end_of_TIMER0_Init-_TIMER0_Init
	
_TIMER0_Init:	
;incstack = 0
	opt	stack 3
; Regs used in _TIMER0_Init: []
	line	8
	
l2477:	
;timers.c: 8: OPTION_REGbits.T0CS = 0;
	bsf	status, 5	;RP0=1, select bank1
	bcf	status, 6	;RP1=0, select bank1
	bcf	(129)^080h,5	;volatile
	line	9
;timers.c: 9: OPTION_REGbits.T0SE = 0;
	bcf	(129)^080h,4	;volatile
	line	10
;timers.c: 10: OPTION_REGbits.PSA = 0;
	bcf	(129)^080h,3	;volatile
	line	11
;timers.c: 11: OPTION_REGbits.PS2 = 1;
	bsf	(129)^080h,2	;volatile
	line	12
;timers.c: 12: OPTION_REGbits.PS1 = 1;
	bsf	(129)^080h,1	;volatile
	line	13
;timers.c: 13: OPTION_REGbits.PS0 = 1;
	bsf	(129)^080h,0	;volatile
	line	14
;timers.c: 14: INTCONbits.TMR0IF = 0;
	bcf	(11),2	;volatile
	line	15
;timers.c: 15: INTCONbits.TMR0IE = 1;
	bsf	(11),5	;volatile
	line	16
	
l246:	
	return
	opt stack 0
GLOBAL	__end_of_TIMER0_Init
	__end_of_TIMER0_Init:
	signat	_TIMER0_Init,88
	global	_PWM_Init

;; *************** function _PWM_Init *****************
;; Defined at:
;;		line 5 in file "E:\projeto-fuzzy-rpm\firmware\pwm.c"
;; Parameters:    Size  Location     Type
;;		None
;; Auto vars:     Size  Location     Type
;;		None
;; Return value:  Size  Location     Type
;;		None               void
;; Registers used:
;;		wreg
;; Tracked objects:
;;		On entry : 0/0
;;		On exit  : 0/0
;;		Unchanged: 0/0
;; Data sizes:     COMMON   BANK0   BANK1   BANK3   BANK2
;;      Params:         0       0       0       0       0
;;      Locals:         0       0       0       0       0
;;      Temps:          0       0       0       0       0
;;      Totals:         0       0       0       0       0
;;Total ram usage:        0 bytes
;; Hardware stack levels used:    1
;; Hardware stack levels required when called:    4
;; This function calls:
;;		Nothing
;; This function is called by:
;;		_main
;; This function uses a non-reentrant model
;;
psect	text10,local,class=CODE,delta=2,merge=1
	file	"E:\projeto-fuzzy-rpm\firmware\pwm.c"
	line	5
global __ptext10
__ptext10:	;psect for function _PWM_Init
psect	text10
	file	"E:\projeto-fuzzy-rpm\firmware\pwm.c"
	line	5
	global	__size_of_PWM_Init
	__size_of_PWM_Init	equ	__end_of_PWM_Init-_PWM_Init
	
_PWM_Init:	
;incstack = 0
	opt	stack 3
; Regs used in _PWM_Init: [wreg]
	line	14
	
l2481:	
;pwm.c: 14: T2CONbits.T2CKPS1 = 1;
	bcf	status, 5	;RP0=0, select bank0
	bcf	status, 6	;RP1=0, select bank0
	bsf	(18),1	;volatile
	line	15
;pwm.c: 15: T2CONbits.T2CKPS0 = 0;
	bcf	(18),0	;volatile
	line	18
;pwm.c: 18: T2CONbits.TOUTPS3 = 0;
	bcf	(18),6	;volatile
	line	19
;pwm.c: 19: T2CONbits.TOUTPS2 = 0;
	bcf	(18),5	;volatile
	line	20
;pwm.c: 20: T2CONbits.TOUTPS1 = 0;
	bcf	(18),4	;volatile
	line	21
;pwm.c: 21: T2CONbits.TOUTPS0 = 0;
	bcf	(18),3	;volatile
	line	24
;pwm.c: 24: T2CONbits.TMR2ON = 1;
	bsf	(18),2	;volatile
	line	27
	
l2483:	
;pwm.c: 27: PR2 = 255;
	movlw	(0FFh)
	bsf	status, 5	;RP0=1, select bank1
	bcf	status, 6	;RP1=0, select bank1
	movwf	(146)^080h	;volatile
	line	43
	
l2485:	
;pwm.c: 43: CCP1CONbits.CCP1M3 = 1;
	bcf	status, 5	;RP0=0, select bank0
	bcf	status, 6	;RP1=0, select bank0
	bsf	(23),3	;volatile
	line	44
	
l2487:	
;pwm.c: 44: CCP1CONbits.CCP1M2 = 1;
	bsf	(23),2	;volatile
	line	45
	
l2489:	
;pwm.c: 45: CCP1CONbits.CCP1M1 = 1;
	bsf	(23),1	;volatile
	line	46
	
l2491:	
;pwm.c: 46: CCP1CONbits.CCP1M0 = 1;
	bsf	(23),0	;volatile
	line	49
	
l2493:	
;pwm.c: 49: PIE1bits.CCP1IE = 1;
	bsf	status, 5	;RP0=1, select bank1
	bcf	status, 6	;RP1=0, select bank1
	bsf	(140)^080h,2	;volatile
	line	50
	
l2495:	
;pwm.c: 50: PIR1bits.CCP1IF = 0;
	bcf	status, 5	;RP0=0, select bank0
	bcf	status, 6	;RP1=0, select bank0
	bcf	(12),2	;volatile
	line	53
	
l2497:	
;pwm.c: 53: CCP2CONbits.CCP2M3 = 1;
	bsf	(29),3	;volatile
	line	54
	
l2499:	
;pwm.c: 54: CCP2CONbits.CCP2M2 = 1;
	bsf	(29),2	;volatile
	line	55
	
l2501:	
;pwm.c: 55: CCP2CONbits.CCP2M1 = 1;
	bsf	(29),1	;volatile
	line	56
	
l2503:	
;pwm.c: 56: CCP2CONbits.CCP2M0 = 1;
	bsf	(29),0	;volatile
	line	59
	
l2505:	
;pwm.c: 59: PIE2bits.CCP2IE = 1;
	bsf	status, 5	;RP0=1, select bank1
	bcf	status, 6	;RP1=0, select bank1
	bsf	(141)^080h,0	;volatile
	line	60
	
l2507:	
;pwm.c: 60: PIR2bits.CCP2IF = 0;
	bcf	status, 5	;RP0=0, select bank0
	bcf	status, 6	;RP1=0, select bank0
	bcf	(13),0	;volatile
	line	61
	
l397:	
	return
	opt stack 0
GLOBAL	__end_of_PWM_Init
	__end_of_PWM_Init:
	signat	_PWM_Init,88
	global	_PWM_DutyCycle2

;; *************** function _PWM_DutyCycle2 *****************
;; Defined at:
;;		line 96 in file "E:\projeto-fuzzy-rpm\firmware\pwm.c"
;; Parameters:    Size  Location     Type
;;  valor           2    0[BANK1 ] int 
;; Auto vars:     Size  Location     Type
;;		None
;; Return value:  Size  Location     Type
;;		None               void
;; Registers used:
;;		wreg, status,2, status,0
;; Tracked objects:
;;		On entry : 0/0
;;		On exit  : 0/0
;;		Unchanged: 0/0
;; Data sizes:     COMMON   BANK0   BANK1   BANK3   BANK2
;;      Params:         0       0       2       0       0
;;      Locals:         0       0       0       0       0
;;      Temps:          0       0       2       0       0
;;      Totals:         0       0       4       0       0
;;Total ram usage:        4 bytes
;; Hardware stack levels used:    1
;; Hardware stack levels required when called:    4
;; This function calls:
;;		Nothing
;; This function is called by:
;;		_main
;; This function uses a non-reentrant model
;;
psect	text11,local,class=CODE,delta=2,merge=1
	line	96
global __ptext11
__ptext11:	;psect for function _PWM_DutyCycle2
psect	text11
	file	"E:\projeto-fuzzy-rpm\firmware\pwm.c"
	line	96
	global	__size_of_PWM_DutyCycle2
	__size_of_PWM_DutyCycle2	equ	__end_of_PWM_DutyCycle2-_PWM_DutyCycle2
	
_PWM_DutyCycle2:	
;incstack = 0
	opt	stack 3
; Regs used in _PWM_DutyCycle2: [wreg+status,2+status,0]
	line	98
	
l2433:	
;pwm.c: 98: CCPR2L = valor >> 2;
	bsf	status, 5	;RP0=1, select bank1
	bcf	status, 6	;RP1=0, select bank1
	movf	(PWM_DutyCycle2@valor+1)^080h,w
	movwf	(??_PWM_DutyCycle2+0)^080h+0+1
	movf	(PWM_DutyCycle2@valor)^080h,w
	movwf	(??_PWM_DutyCycle2+0)^080h+0
	rlf	(??_PWM_DutyCycle2+0)^080h+1,w
	rrf	(??_PWM_DutyCycle2+0)^080h+1,f
	rrf	(??_PWM_DutyCycle2+0)^080h+0,f
	rlf	(??_PWM_DutyCycle2+0)^080h+1,w
	rrf	(??_PWM_DutyCycle2+0)^080h+1,f
	rrf	(??_PWM_DutyCycle2+0)^080h+0,f
	movf	0+(??_PWM_DutyCycle2+0)^080h+0,w
	bcf	status, 5	;RP0=0, select bank0
	bcf	status, 6	;RP1=0, select bank0
	movwf	(27)	;volatile
	line	99
	
l2435:	
;pwm.c: 99: CCP2CON = (valor << 4)|0X0C;
	bsf	status, 5	;RP0=1, select bank1
	bcf	status, 6	;RP1=0, select bank1
	movf	(PWM_DutyCycle2@valor)^080h,w
	movwf	(??_PWM_DutyCycle2+0)^080h+0
	movlw	(04h)-1
u2695:
	clrc
	rlf	(??_PWM_DutyCycle2+0)^080h+0,f
	addlw	-1
	skipz
	goto	u2695
	clrc
	rlf	(??_PWM_DutyCycle2+0)^080h+0,w
	iorlw	0Ch
	bcf	status, 5	;RP0=0, select bank0
	bcf	status, 6	;RP1=0, select bank0
	movwf	(29)	;volatile
	line	100
	
l403:	
	return
	opt stack 0
GLOBAL	__end_of_PWM_DutyCycle2
	__end_of_PWM_DutyCycle2:
	signat	_PWM_DutyCycle2,4216
	global	_PWM_DutyCycle1

;; *************** function _PWM_DutyCycle1 *****************
;; Defined at:
;;		line 64 in file "E:\projeto-fuzzy-rpm\firmware\pwm.c"
;; Parameters:    Size  Location     Type
;;  valor           2    0[BANK1 ] int 
;; Auto vars:     Size  Location     Type
;;		None
;; Return value:  Size  Location     Type
;;		None               void
;; Registers used:
;;		wreg, status,2, status,0
;; Tracked objects:
;;		On entry : 0/0
;;		On exit  : 0/0
;;		Unchanged: 0/0
;; Data sizes:     COMMON   BANK0   BANK1   BANK3   BANK2
;;      Params:         0       0       2       0       0
;;      Locals:         0       0       0       0       0
;;      Temps:          0       0       2       0       0
;;      Totals:         0       0       4       0       0
;;Total ram usage:        4 bytes
;; Hardware stack levels used:    1
;; Hardware stack levels required when called:    4
;; This function calls:
;;		Nothing
;; This function is called by:
;;		_main
;; This function uses a non-reentrant model
;;
psect	text12,local,class=CODE,delta=2,merge=1
	line	64
global __ptext12
__ptext12:	;psect for function _PWM_DutyCycle1
psect	text12
	file	"E:\projeto-fuzzy-rpm\firmware\pwm.c"
	line	64
	global	__size_of_PWM_DutyCycle1
	__size_of_PWM_DutyCycle1	equ	__end_of_PWM_DutyCycle1-_PWM_DutyCycle1
	
_PWM_DutyCycle1:	
;incstack = 0
	opt	stack 3
; Regs used in _PWM_DutyCycle1: [wreg+status,2+status,0]
	line	91
	
l2555:	
;pwm.c: 91: CCPR1L = valor >> 2;
	bsf	status, 5	;RP0=1, select bank1
	bcf	status, 6	;RP1=0, select bank1
	movf	(PWM_DutyCycle1@valor+1)^080h,w
	movwf	(??_PWM_DutyCycle1+0)^080h+0+1
	movf	(PWM_DutyCycle1@valor)^080h,w
	movwf	(??_PWM_DutyCycle1+0)^080h+0
	rlf	(??_PWM_DutyCycle1+0)^080h+1,w
	rrf	(??_PWM_DutyCycle1+0)^080h+1,f
	rrf	(??_PWM_DutyCycle1+0)^080h+0,f
	rlf	(??_PWM_DutyCycle1+0)^080h+1,w
	rrf	(??_PWM_DutyCycle1+0)^080h+1,f
	rrf	(??_PWM_DutyCycle1+0)^080h+0,f
	movf	0+(??_PWM_DutyCycle1+0)^080h+0,w
	bcf	status, 5	;RP0=0, select bank0
	bcf	status, 6	;RP1=0, select bank0
	movwf	(21)	;volatile
	line	92
	
l2557:	
;pwm.c: 92: CCP1CON = (valor << 4)|0X0C;
	bsf	status, 5	;RP0=1, select bank1
	bcf	status, 6	;RP1=0, select bank1
	movf	(PWM_DutyCycle1@valor)^080h,w
	movwf	(??_PWM_DutyCycle1+0)^080h+0
	movlw	(04h)-1
u2735:
	clrc
	rlf	(??_PWM_DutyCycle1+0)^080h+0,f
	addlw	-1
	skipz
	goto	u2735
	clrc
	rlf	(??_PWM_DutyCycle1+0)^080h+0,w
	iorlw	0Ch
	bcf	status, 5	;RP0=0, select bank0
	bcf	status, 6	;RP1=0, select bank0
	movwf	(23)	;volatile
	line	94
	
l400:	
	return
	opt stack 0
GLOBAL	__end_of_PWM_DutyCycle1
	__end_of_PWM_DutyCycle1:
	signat	_PWM_DutyCycle1,4216
	global	_LCD_WriteString

;; *************** function _LCD_WriteString *****************
;; Defined at:
;;		line 61 in file "E:\projeto-fuzzy-rpm\firmware\lcd.c"
;; Parameters:    Size  Location     Type
;;  Str             2    2[BANK1 ] PTR const unsigned char 
;;		 -> STR_3(6), display(10), STR_1(17), 
;; Auto vars:     Size  Location     Type
;;		None
;; Return value:  Size  Location     Type
;;		None               void
;; Registers used:
;;		wreg, fsr0l, fsr0h, status,2, status,0, btemp+1, pclath, cstack
;; Tracked objects:
;;		On entry : 0/0
;;		On exit  : 0/0
;;		Unchanged: 0/0
;; Data sizes:     COMMON   BANK0   BANK1   BANK3   BANK2
;;      Params:         0       0       2       0       0
;;      Locals:         0       0       0       0       0
;;      Temps:          0       0       0       0       0
;;      Totals:         0       0       2       0       0
;;Total ram usage:        2 bytes
;; Hardware stack levels used:    1
;; Hardware stack levels required when called:    5
;; This function calls:
;;		_LCD_WriteData
;; This function is called by:
;;		_main
;; This function uses a non-reentrant model
;;
psect	text13,local,class=CODE,delta=2,merge=1
	file	"E:\projeto-fuzzy-rpm\firmware\lcd.c"
	line	61
global __ptext13
__ptext13:	;psect for function _LCD_WriteString
psect	text13
	file	"E:\projeto-fuzzy-rpm\firmware\lcd.c"
	line	61
	global	__size_of_LCD_WriteString
	__size_of_LCD_WriteString	equ	__end_of_LCD_WriteString-_LCD_WriteString
	
_LCD_WriteString:	
;incstack = 0
	opt	stack 2
; Regs used in _LCD_WriteString: [wreg-fsr0h+status,2+status,0+btemp+1+pclath+cstack]
	line	63
	
l2547:	
;lcd.c: 63: while(*Str != '\0')
	goto	l2553
	
l278:	
	line	65
	
l2549:	
;lcd.c: 64: {
;lcd.c: 65: LCD_WriteData(*Str);
	bsf	status, 5	;RP0=1, select bank1
	bcf	status, 6	;RP1=0, select bank1
	movf	(LCD_WriteString@Str+1)^080h,w
	bcf	status, 5	;RP0=0, select bank0
	bcf	status, 6	;RP1=0, select bank0
	movwf	btemp+1
	bsf	status, 5	;RP0=1, select bank1
	bcf	status, 6	;RP1=0, select bank1
	movf	(LCD_WriteString@Str)^080h,w
	movwf	fsr0
	bcf	status, 5	;RP0=0, select bank0
	bcf	status, 6	;RP1=0, select bank0
	fcall	stringtab
	fcall	_LCD_WriteData
	line	66
	
l2551:	
;lcd.c: 66: Str++;
	movlw	01h
	bsf	status, 5	;RP0=1, select bank1
	bcf	status, 6	;RP1=0, select bank1
	addwf	(LCD_WriteString@Str)^080h,f
	skipnc
	incf	(LCD_WriteString@Str+1)^080h,f
	goto	l2553
	line	67
	
l277:	
	line	63
	
l2553:	
	bsf	status, 5	;RP0=1, select bank1
	bcf	status, 6	;RP1=0, select bank1
	movf	(LCD_WriteString@Str+1)^080h,w
	bcf	status, 5	;RP0=0, select bank0
	bcf	status, 6	;RP1=0, select bank0
	movwf	btemp+1
	bsf	status, 5	;RP0=1, select bank1
	bcf	status, 6	;RP1=0, select bank1
	movf	(LCD_WriteString@Str)^080h,w
	movwf	fsr0
	bcf	status, 5	;RP0=0, select bank0
	bcf	status, 6	;RP1=0, select bank0
	fcall	stringtab
	iorlw	0
	skipz
	goto	u2721
	goto	u2720
u2721:
	goto	l2549
u2720:
	goto	l280
	
l279:	
	line	68
	
l280:	
	return
	opt stack 0
GLOBAL	__end_of_LCD_WriteString
	__end_of_LCD_WriteString:
	signat	_LCD_WriteString,4216
	global	_LCD_WriteData

;; *************** function _LCD_WriteData *****************
;; Defined at:
;;		line 47 in file "E:\projeto-fuzzy-rpm\firmware\lcd.c"
;; Parameters:    Size  Location     Type
;;  Byte            1    wreg     unsigned char 
;; Auto vars:     Size  Location     Type
;;  Byte            1    1[BANK1 ] unsigned char 
;; Return value:  Size  Location     Type
;;		None               void
;; Registers used:
;;		wreg
;; Tracked objects:
;;		On entry : 0/0
;;		On exit  : 0/0
;;		Unchanged: 0/0
;; Data sizes:     COMMON   BANK0   BANK1   BANK3   BANK2
;;      Params:         0       0       0       0       0
;;      Locals:         0       0       1       0       0
;;      Temps:          0       0       1       0       0
;;      Totals:         0       0       2       0       0
;;Total ram usage:        2 bytes
;; Hardware stack levels used:    1
;; Hardware stack levels required when called:    4
;; This function calls:
;;		Nothing
;; This function is called by:
;;		_LCD_WriteString
;; This function uses a non-reentrant model
;;
psect	text14,local,class=CODE,delta=2,merge=1
	line	47
global __ptext14
__ptext14:	;psect for function _LCD_WriteData
psect	text14
	file	"E:\projeto-fuzzy-rpm\firmware\lcd.c"
	line	47
	global	__size_of_LCD_WriteData
	__size_of_LCD_WriteData	equ	__end_of_LCD_WriteData-_LCD_WriteData
	
_LCD_WriteData:	
;incstack = 0
	opt	stack 2
; Regs used in _LCD_WriteData: [wreg]
;LCD_WriteData@Byte stored from wreg
	bsf	status, 5	;RP0=1, select bank1
	bcf	status, 6	;RP1=0, select bank1
	movwf	(LCD_WriteData@Byte)^080h
	line	49
	
l2099:	
;lcd.c: 49: PORTEbits.RE0 = 1;
	bcf	status, 5	;RP0=0, select bank0
	bcf	status, 6	;RP1=0, select bank0
	bsf	(9),0	;volatile
	line	51
	
l2101:	
;lcd.c: 51: PORTD = Byte;
	bsf	status, 5	;RP0=1, select bank1
	bcf	status, 6	;RP1=0, select bank1
	movf	(LCD_WriteData@Byte)^080h,w
	bcf	status, 5	;RP0=0, select bank0
	bcf	status, 6	;RP1=0, select bank0
	movwf	(8)	;volatile
	line	53
	
l2103:	
;lcd.c: 53: PORTEbits.RE1 = 1;
	bsf	(9),1	;volatile
	line	55
;lcd.c: 55: _delay((unsigned long)((40)*(18432000/4000000.0)));
	opt asmopt_off
movlw	61
	bsf	status, 5	;RP0=1, select bank1
	bcf	status, 6	;RP1=0, select bank1
movwf	(??_LCD_WriteData+0)^080h+0,f
u3487:
decfsz	(??_LCD_WriteData+0)^080h+0,f
	goto	u3487
opt asmopt_on

	line	57
	
l2105:	
;lcd.c: 57: PORTEbits.RE1 = 0;
	bcf	status, 5	;RP0=0, select bank0
	bcf	status, 6	;RP1=0, select bank0
	bcf	(9),1	;volatile
	line	58
	
l274:	
	return
	opt stack 0
GLOBAL	__end_of_LCD_WriteData
	__end_of_LCD_WriteData:
	signat	_LCD_WriteData,4216
	global	_LCD_Init

;; *************** function _LCD_Init *****************
;; Defined at:
;;		line 87 in file "E:\projeto-fuzzy-rpm\firmware\lcd.c"
;; Parameters:    Size  Location     Type
;;		None
;; Auto vars:     Size  Location     Type
;;		None
;; Return value:  Size  Location     Type
;;		None               void
;; Registers used:
;;		wreg, status,2, status,0, pclath, cstack
;; Tracked objects:
;;		On entry : 0/0
;;		On exit  : 0/0
;;		Unchanged: 0/0
;; Data sizes:     COMMON   BANK0   BANK1   BANK3   BANK2
;;      Params:         0       0       0       0       0
;;      Locals:         0       0       0       0       0
;;      Temps:          0       0       2       0       0
;;      Totals:         0       0       2       0       0
;;Total ram usage:        2 bytes
;; Hardware stack levels used:    1
;; Hardware stack levels required when called:    5
;; This function calls:
;;		_LCD_WriteCmd
;; This function is called by:
;;		_main
;; This function uses a non-reentrant model
;;
psect	text15,local,class=CODE,delta=2,merge=1
	line	87
global __ptext15
__ptext15:	;psect for function _LCD_Init
psect	text15
	file	"E:\projeto-fuzzy-rpm\firmware\lcd.c"
	line	87
	global	__size_of_LCD_Init
	__size_of_LCD_Init	equ	__end_of_LCD_Init-_LCD_Init
	
_LCD_Init:	
;incstack = 0
	opt	stack 2
; Regs used in _LCD_Init: [wreg+status,2+status,0+pclath+cstack]
	line	90
	
l2509:	
;lcd.c: 90: ADCON1bits.PCFG3 = 0;
	bsf	status, 5	;RP0=1, select bank1
	bcf	status, 6	;RP1=0, select bank1
	bcf	(159)^080h,3	;volatile
	line	91
;lcd.c: 91: ADCON1bits.PCFG2 = 1;
	bsf	(159)^080h,2	;volatile
	line	92
;lcd.c: 92: ADCON1bits.PCFG1 = 0;
	bcf	(159)^080h,1	;volatile
	line	93
;lcd.c: 93: ADCON1bits.PCFG0 = 0;
	bcf	(159)^080h,0	;volatile
	line	95
	
l2511:	
;lcd.c: 95: _delay((unsigned long)((15)*(18432000/4000.0)));
	opt asmopt_off
movlw	90
movwf	((??_LCD_Init+0)^080h+0+1),f
	movlw	195
movwf	((??_LCD_Init+0)^080h+0),f
u3497:
	decfsz	((??_LCD_Init+0)^080h+0),f
	goto	u3497
	decfsz	((??_LCD_Init+0)^080h+0+1),f
	goto	u3497
opt asmopt_on

	line	97
	
l2513:	
;lcd.c: 97: LCD_WriteCmd(0x30);
	movlw	(030h)
	fcall	_LCD_WriteCmd
	line	98
	
l2515:	
;lcd.c: 98: _delay((unsigned long)((4)*(18432000/4000.0)));
	opt asmopt_off
movlw	24
	bsf	status, 5	;RP0=1, select bank1
	bcf	status, 6	;RP1=0, select bank1
movwf	((??_LCD_Init+0)^080h+0+1),f
	movlw	239
movwf	((??_LCD_Init+0)^080h+0),f
u3507:
	decfsz	((??_LCD_Init+0)^080h+0),f
	goto	u3507
	decfsz	((??_LCD_Init+0)^080h+0+1),f
	goto	u3507
opt asmopt_on

	line	100
;lcd.c: 100: LCD_WriteCmd(0x30);
	movlw	(030h)
	fcall	_LCD_WriteCmd
	line	101
	
l2517:	
;lcd.c: 101: _delay((unsigned long)((100)*(18432000/4000000.0)));
	opt asmopt_off
movlw	153
	bsf	status, 5	;RP0=1, select bank1
	bcf	status, 6	;RP1=0, select bank1
movwf	(??_LCD_Init+0)^080h+0,f
u3517:
decfsz	(??_LCD_Init+0)^080h+0,f
	goto	u3517
opt asmopt_on

	line	103
	
l2519:	
;lcd.c: 103: LCD_WriteCmd(0x30);
	movlw	(030h)
	fcall	_LCD_WriteCmd
	line	104
;lcd.c: 104: _delay((unsigned long)((40)*(18432000/4000000.0)));
	opt asmopt_off
movlw	61
	bsf	status, 5	;RP0=1, select bank1
	bcf	status, 6	;RP1=0, select bank1
movwf	(??_LCD_Init+0)^080h+0,f
u3527:
decfsz	(??_LCD_Init+0)^080h+0,f
	goto	u3527
opt asmopt_on

	line	106
	
l2521:	
;lcd.c: 106: LCD_WriteCmd(0x38);
	movlw	(038h)
	fcall	_LCD_WriteCmd
	line	107
	
l2523:	
;lcd.c: 107: _delay((unsigned long)((40)*(18432000/4000000.0)));
	opt asmopt_off
movlw	61
	bsf	status, 5	;RP0=1, select bank1
	bcf	status, 6	;RP1=0, select bank1
movwf	(??_LCD_Init+0)^080h+0,f
u3537:
decfsz	(??_LCD_Init+0)^080h+0,f
	goto	u3537
opt asmopt_on

	line	109
;lcd.c: 109: LCD_WriteCmd(0x01);
	movlw	(01h)
	fcall	_LCD_WriteCmd
	line	110
	
l2525:	
;lcd.c: 110: _delay((unsigned long)((2)*(18432000/4000.0)));
	opt asmopt_off
movlw	12
	bsf	status, 5	;RP0=1, select bank1
	bcf	status, 6	;RP1=0, select bank1
movwf	((??_LCD_Init+0)^080h+0+1),f
	movlw	247
movwf	((??_LCD_Init+0)^080h+0),f
u3547:
	decfsz	((??_LCD_Init+0)^080h+0),f
	goto	u3547
	decfsz	((??_LCD_Init+0)^080h+0+1),f
	goto	u3547
opt asmopt_on

	line	112
	
l2527:	
;lcd.c: 112: LCD_WriteCmd(0x0C);
	movlw	(0Ch)
	fcall	_LCD_WriteCmd
	line	113
;lcd.c: 113: _delay((unsigned long)((40)*(18432000/4000000.0)));
	opt asmopt_off
movlw	61
	bsf	status, 5	;RP0=1, select bank1
	bcf	status, 6	;RP1=0, select bank1
movwf	(??_LCD_Init+0)^080h+0,f
u3557:
decfsz	(??_LCD_Init+0)^080h+0,f
	goto	u3557
opt asmopt_on

	line	115
	
l2529:	
;lcd.c: 115: LCD_WriteCmd(0x06);
	movlw	(06h)
	fcall	_LCD_WriteCmd
	line	116
	
l2531:	
;lcd.c: 116: _delay((unsigned long)((40)*(18432000/4000000.0)));
	opt asmopt_off
movlw	61
	bsf	status, 5	;RP0=1, select bank1
	bcf	status, 6	;RP1=0, select bank1
movwf	(??_LCD_Init+0)^080h+0,f
u3567:
decfsz	(??_LCD_Init+0)^080h+0,f
	goto	u3567
opt asmopt_on

	line	117
	
l286:	
	return
	opt stack 0
GLOBAL	__end_of_LCD_Init
	__end_of_LCD_Init:
	signat	_LCD_Init,88
	global	_LCD_Cursor

;; *************** function _LCD_Cursor *****************
;; Defined at:
;;		line 10 in file "E:\projeto-fuzzy-rpm\firmware\lcd.c"
;; Parameters:    Size  Location     Type
;;  Row             1    wreg     unsigned char 
;;  Col             1    0[BANK1 ] unsigned char 
;; Auto vars:     Size  Location     Type
;;  Row             1    2[BANK1 ] unsigned char 
;; Return value:  Size  Location     Type
;;		None               void
;; Registers used:
;;		wreg, status,2, status,0
;; Tracked objects:
;;		On entry : 0/0
;;		On exit  : 0/0
;;		Unchanged: 0/0
;; Data sizes:     COMMON   BANK0   BANK1   BANK3   BANK2
;;      Params:         0       0       1       0       0
;;      Locals:         0       0       1       0       0
;;      Temps:          0       0       1       0       0
;;      Totals:         0       0       3       0       0
;;Total ram usage:        3 bytes
;; Hardware stack levels used:    1
;; Hardware stack levels required when called:    4
;; This function calls:
;;		Nothing
;; This function is called by:
;;		_main
;; This function uses a non-reentrant model
;;
psect	text16,local,class=CODE,delta=2,merge=1
	line	10
global __ptext16
__ptext16:	;psect for function _LCD_Cursor
psect	text16
	file	"E:\projeto-fuzzy-rpm\firmware\lcd.c"
	line	10
	global	__size_of_LCD_Cursor
	__size_of_LCD_Cursor	equ	__end_of_LCD_Cursor-_LCD_Cursor
	
_LCD_Cursor:	
;incstack = 0
	opt	stack 3
; Regs used in _LCD_Cursor: [wreg+status,2+status,0]
;LCD_Cursor@Row stored from wreg
	bsf	status, 5	;RP0=1, select bank1
	bcf	status, 6	;RP1=0, select bank1
	movwf	(LCD_Cursor@Row)^080h
	line	12
	
l2533:	
;lcd.c: 12: PORTEbits.RE0 = 0;
	bcf	status, 5	;RP0=0, select bank0
	bcf	status, 6	;RP1=0, select bank0
	bcf	(9),0	;volatile
	line	14
	
l2535:	
;lcd.c: 14: if (Row == 0)
	bsf	status, 5	;RP0=1, select bank1
	bcf	status, 6	;RP1=0, select bank1
	movf	(LCD_Cursor@Row)^080h,f
	skipz
	goto	u2711
	goto	u2710
u2711:
	goto	l2539
u2710:
	line	16
	
l2537:	
;lcd.c: 15: {
;lcd.c: 16: PORTD = 0x80 + Col;
	movf	(LCD_Cursor@Col)^080h,w
	addlw	080h
	bcf	status, 5	;RP0=0, select bank0
	bcf	status, 6	;RP1=0, select bank0
	movwf	(8)	;volatile
	line	17
;lcd.c: 17: }
	goto	l2541
	line	18
	
l266:	
	line	20
	
l2539:	
;lcd.c: 18: else
;lcd.c: 19: {
;lcd.c: 20: PORTD = 0xC0 + Col;
	bsf	status, 5	;RP0=1, select bank1
	bcf	status, 6	;RP1=0, select bank1
	movf	(LCD_Cursor@Col)^080h,w
	addlw	0C0h
	bcf	status, 5	;RP0=0, select bank0
	bcf	status, 6	;RP1=0, select bank0
	movwf	(8)	;volatile
	goto	l2541
	line	21
	
l267:	
	line	24
	
l2541:	
;lcd.c: 21: }
;lcd.c: 24: PORTEbits.RE1 = 1;
	bsf	(9),1	;volatile
	line	26
	
l2543:	
;lcd.c: 26: _delay((unsigned long)((40)*(18432000/4000000.0)));
	opt asmopt_off
movlw	61
	bsf	status, 5	;RP0=1, select bank1
	bcf	status, 6	;RP1=0, select bank1
movwf	(??_LCD_Cursor+0)^080h+0,f
u3577:
decfsz	(??_LCD_Cursor+0)^080h+0,f
	goto	u3577
opt asmopt_on

	line	28
	
l2545:	
;lcd.c: 28: PORTEbits.RE1 = 0;
	bcf	status, 5	;RP0=0, select bank0
	bcf	status, 6	;RP1=0, select bank0
	bcf	(9),1	;volatile
	line	29
	
l268:	
	return
	opt stack 0
GLOBAL	__end_of_LCD_Cursor
	__end_of_LCD_Cursor:
	signat	_LCD_Cursor,8312
	global	_LCD_Clear

;; *************** function _LCD_Clear *****************
;; Defined at:
;;		line 71 in file "E:\projeto-fuzzy-rpm\firmware\lcd.c"
;; Parameters:    Size  Location     Type
;;		None
;; Auto vars:     Size  Location     Type
;;		None
;; Return value:  Size  Location     Type
;;		None               void
;; Registers used:
;;		wreg, status,2, status,0, pclath, cstack
;; Tracked objects:
;;		On entry : 0/0
;;		On exit  : 0/0
;;		Unchanged: 0/0
;; Data sizes:     COMMON   BANK0   BANK1   BANK3   BANK2
;;      Params:         0       0       0       0       0
;;      Locals:         0       0       0       0       0
;;      Temps:          0       0       2       0       0
;;      Totals:         0       0       2       0       0
;;Total ram usage:        2 bytes
;; Hardware stack levels used:    1
;; Hardware stack levels required when called:    5
;; This function calls:
;;		_LCD_WriteCmd
;; This function is called by:
;;		_main
;; This function uses a non-reentrant model
;;
psect	text17,local,class=CODE,delta=2,merge=1
	line	71
global __ptext17
__ptext17:	;psect for function _LCD_Clear
psect	text17
	file	"E:\projeto-fuzzy-rpm\firmware\lcd.c"
	line	71
	global	__size_of_LCD_Clear
	__size_of_LCD_Clear	equ	__end_of_LCD_Clear-_LCD_Clear
	
_LCD_Clear:	
;incstack = 0
	opt	stack 2
; Regs used in _LCD_Clear: [wreg+status,2+status,0+pclath+cstack]
	line	73
	
l2669:	
;lcd.c: 73: LCD_WriteCmd(0x01);
	movlw	(01h)
	fcall	_LCD_WriteCmd
	line	75
	
l2671:	
;lcd.c: 75: _delay((unsigned long)((2)*(18432000/4000.0)));
	opt asmopt_off
movlw	12
	bsf	status, 5	;RP0=1, select bank1
	bcf	status, 6	;RP1=0, select bank1
movwf	((??_LCD_Clear+0)^080h+0+1),f
	movlw	247
movwf	((??_LCD_Clear+0)^080h+0),f
u3587:
	decfsz	((??_LCD_Clear+0)^080h+0),f
	goto	u3587
	decfsz	((??_LCD_Clear+0)^080h+0+1),f
	goto	u3587
opt asmopt_on

	line	77
	
l2673:	
;lcd.c: 77: LCD_WriteCmd(0x0C);
	movlw	(0Ch)
	fcall	_LCD_WriteCmd
	line	79
;lcd.c: 79: _delay((unsigned long)((40)*(18432000/4000000.0)));
	opt asmopt_off
movlw	61
	bsf	status, 5	;RP0=1, select bank1
	bcf	status, 6	;RP1=0, select bank1
movwf	(??_LCD_Clear+0)^080h+0,f
u3597:
decfsz	(??_LCD_Clear+0)^080h+0,f
	goto	u3597
opt asmopt_on

	line	81
	
l2675:	
;lcd.c: 81: LCD_WriteCmd(0x06);
	movlw	(06h)
	fcall	_LCD_WriteCmd
	line	83
	
l2677:	
;lcd.c: 83: _delay((unsigned long)((40)*(18432000/4000000.0)));
	opt asmopt_off
movlw	61
	bsf	status, 5	;RP0=1, select bank1
	bcf	status, 6	;RP1=0, select bank1
movwf	(??_LCD_Clear+0)^080h+0,f
u3607:
decfsz	(??_LCD_Clear+0)^080h+0,f
	goto	u3607
opt asmopt_on

	line	84
	
l283:	
	return
	opt stack 0
GLOBAL	__end_of_LCD_Clear
	__end_of_LCD_Clear:
	signat	_LCD_Clear,88
	global	_LCD_WriteCmd

;; *************** function _LCD_WriteCmd *****************
;; Defined at:
;;		line 32 in file "E:\projeto-fuzzy-rpm\firmware\lcd.c"
;; Parameters:    Size  Location     Type
;;  Byte            1    wreg     unsigned char 
;; Auto vars:     Size  Location     Type
;;  Byte            1    1[BANK1 ] unsigned char 
;; Return value:  Size  Location     Type
;;		None               void
;; Registers used:
;;		wreg
;; Tracked objects:
;;		On entry : 0/0
;;		On exit  : 0/0
;;		Unchanged: 0/0
;; Data sizes:     COMMON   BANK0   BANK1   BANK3   BANK2
;;      Params:         0       0       0       0       0
;;      Locals:         0       0       1       0       0
;;      Temps:          0       0       1       0       0
;;      Totals:         0       0       2       0       0
;;Total ram usage:        2 bytes
;; Hardware stack levels used:    1
;; Hardware stack levels required when called:    4
;; This function calls:
;;		Nothing
;; This function is called by:
;;		_LCD_Clear
;;		_LCD_Init
;; This function uses a non-reentrant model
;;
psect	text18,local,class=CODE,delta=2,merge=1
	line	32
global __ptext18
__ptext18:	;psect for function _LCD_WriteCmd
psect	text18
	file	"E:\projeto-fuzzy-rpm\firmware\lcd.c"
	line	32
	global	__size_of_LCD_WriteCmd
	__size_of_LCD_WriteCmd	equ	__end_of_LCD_WriteCmd-_LCD_WriteCmd
	
_LCD_WriteCmd:	
;incstack = 0
	opt	stack 2
; Regs used in _LCD_WriteCmd: [wreg]
;LCD_WriteCmd@Byte stored from wreg
	bsf	status, 5	;RP0=1, select bank1
	bcf	status, 6	;RP1=0, select bank1
	movwf	(LCD_WriteCmd@Byte)^080h
	line	34
	
l2091:	
;lcd.c: 34: PORTEbits.RE0 = 0;
	bcf	status, 5	;RP0=0, select bank0
	bcf	status, 6	;RP1=0, select bank0
	bcf	(9),0	;volatile
	line	36
	
l2093:	
;lcd.c: 36: PORTD = Byte;
	bsf	status, 5	;RP0=1, select bank1
	bcf	status, 6	;RP1=0, select bank1
	movf	(LCD_WriteCmd@Byte)^080h,w
	bcf	status, 5	;RP0=0, select bank0
	bcf	status, 6	;RP1=0, select bank0
	movwf	(8)	;volatile
	line	39
	
l2095:	
;lcd.c: 39: PORTEbits.RE1 = 1;
	bsf	(9),1	;volatile
	line	41
;lcd.c: 41: _delay((unsigned long)((40)*(18432000/4000000.0)));
	opt asmopt_off
movlw	61
	bsf	status, 5	;RP0=1, select bank1
	bcf	status, 6	;RP1=0, select bank1
movwf	(??_LCD_WriteCmd+0)^080h+0,f
u3617:
decfsz	(??_LCD_WriteCmd+0)^080h+0,f
	goto	u3617
opt asmopt_on

	line	43
	
l2097:	
;lcd.c: 43: PORTEbits.RE1 = 0;
	bcf	status, 5	;RP0=0, select bank0
	bcf	status, 6	;RP1=0, select bank0
	bcf	(9),1	;volatile
	line	44
	
l271:	
	return
	opt stack 0
GLOBAL	__end_of_LCD_WriteCmd
	__end_of_LCD_WriteCmd:
	signat	_LCD_WriteCmd,4216
	global	_ADC_Init

;; *************** function _ADC_Init *****************
;; Defined at:
;;		line 6 in file "E:\projeto-fuzzy-rpm\firmware\adc.c"
;; Parameters:    Size  Location     Type
;;		None
;; Auto vars:     Size  Location     Type
;;		None
;; Return value:  Size  Location     Type
;;		None               void
;; Registers used:
;;		None
;; Tracked objects:
;;		On entry : 0/0
;;		On exit  : 0/0
;;		Unchanged: 0/0
;; Data sizes:     COMMON   BANK0   BANK1   BANK3   BANK2
;;      Params:         0       0       0       0       0
;;      Locals:         0       0       0       0       0
;;      Temps:          0       0       0       0       0
;;      Totals:         0       0       0       0       0
;;Total ram usage:        0 bytes
;; Hardware stack levels used:    1
;; Hardware stack levels required when called:    4
;; This function calls:
;;		Nothing
;; This function is called by:
;;		_main
;; This function uses a non-reentrant model
;;
psect	text19,local,class=CODE,delta=2,merge=1
	file	"E:\projeto-fuzzy-rpm\firmware\adc.c"
	line	6
global __ptext19
__ptext19:	;psect for function _ADC_Init
psect	text19
	file	"E:\projeto-fuzzy-rpm\firmware\adc.c"
	line	6
	global	__size_of_ADC_Init
	__size_of_ADC_Init	equ	__end_of_ADC_Init-_ADC_Init
	
_ADC_Init:	
;incstack = 0
	opt	stack 3
; Regs used in _ADC_Init: []
	line	9
	
l2479:	
;adc.c: 9: ADCON1bits.ADFM = 1;
	bsf	status, 5	;RP0=1, select bank1
	bcf	status, 6	;RP1=0, select bank1
	bsf	(159)^080h,7	;volatile
	line	32
;adc.c: 32: ADCON1bits.PCFG3 = 1;
	bsf	(159)^080h,3	;volatile
	line	33
;adc.c: 33: ADCON1bits.PCFG2 = 1;
	bsf	(159)^080h,2	;volatile
	line	34
;adc.c: 34: ADCON1bits.PCFG1 = 1;
	bsf	(159)^080h,1	;volatile
	line	35
;adc.c: 35: ADCON1bits.PCFG0 = 0;
	bcf	(159)^080h,0	;volatile
	line	38
;adc.c: 38: ADCON0bits.ADCS1 = 1;
	bcf	status, 5	;RP0=0, select bank0
	bcf	status, 6	;RP1=0, select bank0
	bsf	(31),7	;volatile
	line	39
;adc.c: 39: ADCON0bits.ADCS0 = 0;
	bcf	(31),6	;volatile
	line	42
;adc.c: 42: PIE1bits.ADIE = 0;
	bsf	status, 5	;RP0=1, select bank1
	bcf	status, 6	;RP1=0, select bank1
	bcf	(140)^080h,6	;volatile
	line	43
;adc.c: 43: PIR1bits.ADIF = 0;
	bcf	status, 5	;RP0=0, select bank0
	bcf	status, 6	;RP1=0, select bank0
	bcf	(12),6	;volatile
	line	44
	
l223:	
	return
	opt stack 0
GLOBAL	__end_of_ADC_Init
	__end_of_ADC_Init:
	signat	_ADC_Init,88
	global	_ISR

;; *************** function _ISR *****************
;; Defined at:
;;		line 101 in file "E:\projeto-fuzzy-rpm\firmware\main.c"
;; Parameters:    Size  Location     Type
;;		None
;; Auto vars:     Size  Location     Type
;;  index           1   79[BANK0 ] unsigned char 
;;  checksum        1   74[BANK0 ] unsigned char 
;;  byte            1   78[BANK0 ] unsigned char 
;; Return value:  Size  Location     Type
;;		None               void
;; Registers used:
;;		wreg, fsr0l, fsr0h, status,2, status,0, btemp+1, pclath, cstack
;; Tracked objects:
;;		On entry : 0/0
;;		On exit  : 0/0
;;		Unchanged: 0/0
;; Data sizes:     COMMON   BANK0   BANK1   BANK3   BANK2
;;      Params:         0       0       0       0       0
;;      Locals:         0      12       0       0       0
;;      Temps:          0       6       0       0       0
;;      Totals:         0      18       0       0       0
;;Total ram usage:       18 bytes
;; Hardware stack levels used:    1
;; Hardware stack levels required when called:    3
;; This function calls:
;;		_USART_ReceiveChar
;;		___awtoft
;;		___ftadd
;;		___ftdiv
;;		___ftge
;;		___ftmul
;;		___ftneg
;;		___fttol
;;		___lwtoft
;;		_send
;;		_trimf
;;		i1_PWM_DutyCycle2
;;		i1_TIMER0_Set
;;		i1___wmul
;; This function is called by:
;;		Interrupt level 1
;; This function uses a non-reentrant model
;;
psect	text20,local,class=CODE,delta=2,merge=1
	file	"E:\projeto-fuzzy-rpm\firmware\main.c"
	line	101
global __ptext20
__ptext20:	;psect for function _ISR
psect	text20
	file	"E:\projeto-fuzzy-rpm\firmware\main.c"
	line	101
	global	__size_of_ISR
	__size_of_ISR	equ	__end_of_ISR-_ISR
	
_ISR:	
;incstack = 0
	opt	stack 2
; Regs used in _ISR: [wreg-fsr0h+status,2+status,0+btemp+1+pclath+cstack]
psect	intentry,class=CODE,delta=2
global __pintentry
__pintentry:
global interrupt_function
interrupt_function:
	global saved_w
	saved_w	set	btemp+0
	movwf	saved_w
	swapf	status,w
	bcf	status, 5	;RP0=0, select bank0
	bcf	status, 6	;RP1=0, select bank0
	movwf	(??_ISR+2)
	movf	fsr0,w
	movwf	(??_ISR+3)
	movf	pclath,w
	movwf	(??_ISR+4)
	movf	btemp+1,w
	movwf	(??_ISR+5)
	ljmp	_ISR
psect	text20
	line	104
	
i1l2807:	
;main.c: 104: if (PIR1bits.RCIF)
	btfss	(12),5	;volatile
	goto	u323_21
	goto	u323_20
u323_21:
	goto	i1l2855
u323_20:
	line	106
	
i1l2809:	
;main.c: 105: {
;main.c: 106: unsigned char byte = USART_ReceiveChar();
	fcall	_USART_ReceiveChar
	bcf	status, 5	;RP0=0, select bank0
	bcf	status, 6	;RP1=0, select bank0
	movwf	(??_ISR+0)+0
	movf	(??_ISR+0)+0,w
	movwf	(ISR@byte)
	line	107
	
i1l2811:	
;main.c: 107: if (byte == '#')
	movf	(ISR@byte),w
	xorlw	023h
	skipz
	goto	u324_21
	goto	u324_20
u324_21:
	goto	i1l2815
u324_20:
	line	109
	
i1l2813:	
;main.c: 108: {
;main.c: 109: receiveIndex = 0;
	bsf	status, 5	;RP0=1, select bank1
	bcf	status, 6	;RP1=0, select bank1
	clrf	(_receiveIndex)^080h
	clrf	(_receiveIndex+1)^080h
	line	110
;main.c: 110: } else {
	goto	i1l2817
	
i1l125:	
	line	111
	
i1l2815:	
;main.c: 111: receiveIndex++;
	movlw	low(01h)
	bsf	status, 5	;RP0=1, select bank1
	bcf	status, 6	;RP1=0, select bank1
	addwf	(_receiveIndex)^080h,f
	skipnc
	incf	(_receiveIndex+1)^080h,f
	movlw	high(01h)
	addwf	(_receiveIndex+1)^080h,f
	goto	i1l2817
	line	112
	
i1l126:	
	line	113
	
i1l2817:	
;main.c: 112: }
;main.c: 113: receivedBuffer[receiveIndex] = byte;
	bcf	status, 5	;RP0=0, select bank0
	bcf	status, 6	;RP1=0, select bank0
	movf	(ISR@byte),w
	movwf	(??_ISR+0)+0
	bsf	status, 5	;RP0=1, select bank1
	bcf	status, 6	;RP1=0, select bank1
	movf	(_receiveIndex)^080h,w
	addlw	_receivedBuffer&0ffh
	movwf	fsr0
	bcf	status, 5	;RP0=0, select bank0
	bcf	status, 6	;RP1=0, select bank0
	movf	(??_ISR+0)+0,w
	bsf	status, 7	;select IRP bank3
	movwf	indf
	line	115
	
i1l2819:	
;main.c: 115: if (receiveIndex >= 6) {
	bsf	status, 5	;RP0=1, select bank1
	bcf	status, 6	;RP1=0, select bank1
	movf	(_receiveIndex+1)^080h,w
	xorlw	80h
	movwf	btemp+1
	movlw	(high(06h))^80h
	subwf	btemp+1,w
	skipz
	goto	u325_25
	movlw	low(06h)
	subwf	(_receiveIndex)^080h,w
u325_25:

	skipc
	goto	u325_21
	goto	u325_20
u325_21:
	goto	i1l2853
u325_20:
	line	116
	
i1l2821:	
;main.c: 116: receiveIndex = 0;
	bsf	status, 5	;RP0=1, select bank1
	bcf	status, 6	;RP1=0, select bank1
	clrf	(_receiveIndex)^080h
	clrf	(_receiveIndex+1)^080h
	line	118
	
i1l2823:	
;main.c: 118: if (receivedBuffer[1] == 'A' || receivedBuffer[2] == 'A' || receivedBuffer[3] == 'A') {
	bsf	status, 5	;RP0=1, select bank3
	bsf	status, 6	;RP1=1, select bank3
	movf	0+(_receivedBuffer)^0180h+01h,w
	xorlw	041h
	skipnz
	goto	u326_21
	goto	u326_20
u326_21:
	goto	i1l2829
u326_20:
	
i1l2825:	
	movf	0+(_receivedBuffer)^0180h+02h,w
	xorlw	041h
	skipnz
	goto	u327_21
	goto	u327_20
u327_21:
	goto	i1l2829
u327_20:
	
i1l2827:	
	movf	0+(_receivedBuffer)^0180h+03h,w
	xorlw	041h
	skipz
	goto	u328_21
	goto	u328_20
u328_21:
	goto	i1l2831
u328_20:
	goto	i1l2829
	
i1l130:	
	line	119
	
i1l2829:	
;main.c: 119: send();
	fcall	_send
	line	120
;main.c: 120: } else if (receivedBuffer[0] == '#' && receivedBuffer[1] == '$' && receivedBuffer[2] == ':') {
	goto	i1l2853
	
i1l128:	
	
i1l2831:	
	bsf	status, 5	;RP0=1, select bank3
	bsf	status, 6	;RP1=1, select bank3
	movf	(_receivedBuffer)^0180h,w
	xorlw	023h
	skipz
	goto	u329_21
	goto	u329_20
u329_21:
	goto	i1l2853
u329_20:
	
i1l2833:	
	movf	0+(_receivedBuffer)^0180h+01h,w
	xorlw	024h
	skipz
	goto	u330_21
	goto	u330_20
u330_21:
	goto	i1l2853
u330_20:
	
i1l2835:	
	movf	0+(_receivedBuffer)^0180h+02h,w
	xorlw	03Ah
	skipz
	goto	u331_21
	goto	u331_20
u331_21:
	goto	i1l2853
u331_20:
	line	121
	
i1l2837:	
;main.c: 121: unsigned char checksum = 0x00;
	bcf	status, 5	;RP0=0, select bank0
	bcf	status, 6	;RP1=0, select bank0
	clrf	(ISR@checksum)
	line	122
;main.c: 122: for (unsigned char index = 0; index < 6; index++) {
	clrf	(ISR@index)
	
i1l2839:	
	movlw	(06h)
	subwf	(ISR@index),w
	skipc
	goto	u332_21
	goto	u332_20
u332_21:
	goto	i1l2843
u332_20:
	goto	i1l2849
	
i1l2841:	
	goto	i1l2849
	
i1l133:	
	line	123
	
i1l2843:	
;main.c: 123: checksum ^= receivedBuffer[index];
	movf	(ISR@index),w
	addlw	_receivedBuffer&0ffh
	movwf	fsr0
	bsf	status, 7	;select IRP bank3
	movf	indf,w
	movwf	(??_ISR+0)+0
	movf	(??_ISR+0)+0,w
	xorwf	(ISR@checksum),f
	line	122
	
i1l2845:	
	movlw	(01h)
	movwf	(??_ISR+0)+0
	movf	(??_ISR+0)+0,w
	addwf	(ISR@index),f
	
i1l2847:	
	movlw	(06h)
	subwf	(ISR@index),w
	skipc
	goto	u333_21
	goto	u333_20
u333_21:
	goto	i1l2843
u333_20:
	goto	i1l2849
	
i1l134:	
	line	126
	
i1l2849:	
;main.c: 124: }
;main.c: 126: if (receivedBuffer[6] == checksum) {
	bsf	status, 5	;RP0=1, select bank3
	bsf	status, 6	;RP1=1, select bank3
	movf	0+(_receivedBuffer)^0180h+06h,w
	bcf	status, 5	;RP0=0, select bank0
	bcf	status, 6	;RP1=0, select bank0
	xorwf	(ISR@checksum),w
	skipz
	goto	u334_21
	goto	u334_20
u334_21:
	goto	i1l2853
u334_20:
	line	127
	
i1l2851:	
;main.c: 127: setpoint = (receivedBuffer[3] << 8) + (receivedBuffer[4]);
	bsf	status, 5	;RP0=1, select bank3
	bsf	status, 6	;RP1=1, select bank3
	movf	0+(_receivedBuffer)^0180h+03h,w
	bcf	status, 5	;RP0=0, select bank0
	bcf	status, 6	;RP1=0, select bank0
	movwf	(??_ISR+0)+0
	clrf	(??_ISR+0)+0+1
	movf	(??_ISR+0)+0,w
	movwf	(??_ISR+0)+1
	clrf	(??_ISR+0)+0
	bsf	status, 5	;RP0=1, select bank3
	bsf	status, 6	;RP1=1, select bank3
	movf	0+(_receivedBuffer)^0180h+04h,w
	bcf	status, 5	;RP0=0, select bank0
	bcf	status, 6	;RP1=0, select bank0
	addwf	0+(??_ISR+0)+0,w
	bsf	status, 5	;RP0=1, select bank1
	bcf	status, 6	;RP1=0, select bank1
	movwf	(_setpoint)^080h
	movlw	0
	skipnc
	movlw	1
	bcf	status, 5	;RP0=0, select bank0
	bcf	status, 6	;RP1=0, select bank0
	addwf	1+(??_ISR+0)+0,w
	bsf	status, 5	;RP0=1, select bank1
	bcf	status, 6	;RP1=0, select bank1
	movwf	1+(_setpoint)^080h
	goto	i1l2853
	line	128
	
i1l135:	
	goto	i1l2853
	line	132
	
i1l132:	
	goto	i1l2853
	line	135
	
i1l131:	
	goto	i1l2853
	
i1l127:	
	line	138
	
i1l2853:	
;main.c: 128: }
;main.c: 132: }
;main.c: 135: }
;main.c: 138: PIR1bits.RCIF = 0;
	bcf	status, 5	;RP0=0, select bank0
	bcf	status, 6	;RP1=0, select bank0
	bcf	(12),5	;volatile
	goto	i1l2855
	line	139
	
i1l124:	
	line	142
	
i1l2855:	
;main.c: 139: }
;main.c: 142: if (PIR1bits.ADIF)
	btfss	(12),6	;volatile
	goto	u335_21
	goto	u335_20
u335_21:
	goto	i1l136
u335_20:
	line	147
	
i1l2857:	
;main.c: 143: {
;main.c: 147: PIR1bits.ADIF = 0;
	bcf	(12),6	;volatile
	line	148
	
i1l136:	
	line	152
;main.c: 148: }
;main.c: 152: if (INTCONbits.T0IF)
	btfss	(11),2	;volatile
	goto	u336_21
	goto	u336_20
u336_21:
	goto	i1l2933
u336_20:
	line	155
	
i1l2859:	
;main.c: 153: {
;main.c: 155: TIMER0_Set(238);
	movlw	(0EEh)
	fcall	i1_TIMER0_Set
	line	158
	
i1l2861:	
;main.c: 158: if (contagens_tm0 < 499)
	movlw	high(01F3h)
	bsf	status, 5	;RP0=1, select bank1
	bcf	status, 6	;RP1=0, select bank1
	subwf	(_contagens_tm0+1)^080h,w
	movlw	low(01F3h)
	skipnz
	subwf	(_contagens_tm0)^080h,w
	skipnc
	goto	u337_21
	goto	u337_20
u337_21:
	goto	i1l2867
u337_20:
	line	161
	
i1l2863:	
;main.c: 159: {
;main.c: 161: contagens_tm0++;
	movlw	low(01h)
	addwf	(_contagens_tm0)^080h,f
	skipnc
	incf	(_contagens_tm0+1)^080h,f
	movlw	high(01h)
	addwf	(_contagens_tm0+1)^080h,f
	line	164
	
i1l2865:	
;main.c: 164: PORTBbits.RB6 = 1;
	bcf	status, 5	;RP0=0, select bank0
	bcf	status, 6	;RP1=0, select bank0
	bsf	(6),6	;volatile
	line	165
;main.c: 165: }
	goto	i1l2931
	line	166
	
i1l138:	
	line	169
	
i1l2867:	
;main.c: 166: else
;main.c: 167: {
;main.c: 169: contagens_tm0 = 0;
	bsf	status, 5	;RP0=1, select bank1
	bcf	status, 6	;RP1=0, select bank1
	clrf	(_contagens_tm0)^080h
	clrf	(_contagens_tm0+1)^080h
	line	172
	
i1l2869:	
;main.c: 172: pulsos = (TMR1H << 8) + TMR1L;
	bcf	status, 5	;RP0=0, select bank0
	bcf	status, 6	;RP1=0, select bank0
	movf	(15),w	;volatile
	bsf	status, 5	;RP0=1, select bank1
	bcf	status, 6	;RP1=0, select bank1
	clrf	(_pulsos+1)^080h
	addwf	(_pulsos+1)^080h
	bcf	status, 5	;RP0=0, select bank0
	bcf	status, 6	;RP1=0, select bank0
	movf	(14),w	;volatile
	bsf	status, 5	;RP0=1, select bank1
	bcf	status, 6	;RP1=0, select bank1
	clrf	(_pulsos)^080h
	addwf	(_pulsos)^080h

	line	173
	
i1l2871:	
;main.c: 173: rpm = ((pulsos / 7.0) * 120);
	movf	(_pulsos+1)^080h,w
	clrf	(___lwtoft@c+1)
	addwf	(___lwtoft@c+1)
	movf	(_pulsos)^080h,w
	clrf	(___lwtoft@c)
	addwf	(___lwtoft@c)

	fcall	___lwtoft
	movf	(0+(?___lwtoft)),w
	bcf	status, 5	;RP0=0, select bank0
	bcf	status, 6	;RP1=0, select bank0
	movwf	(___ftdiv@f1)
	movf	(1+(?___lwtoft)),w
	movwf	(___ftdiv@f1+1)
	movf	(2+(?___lwtoft)),w
	movwf	(___ftdiv@f1+2)
	movlw	0x0
	movwf	(___ftdiv@f2)
	movlw	0xe0
	movwf	(___ftdiv@f2+1)
	movlw	0x40
	movwf	(___ftdiv@f2+2)
	fcall	___ftdiv
	bcf	status, 5	;RP0=0, select bank0
	bcf	status, 6	;RP1=0, select bank0
	movf	(0+(?___ftdiv)),w
	movwf	(___ftmul@f2)
	movf	(1+(?___ftdiv)),w
	movwf	(___ftmul@f2+1)
	movf	(2+(?___ftdiv)),w
	movwf	(___ftmul@f2+2)
	movlw	0x0
	movwf	(___ftmul@f1)
	movlw	0xf0
	movwf	(___ftmul@f1+1)
	movlw	0x42
	movwf	(___ftmul@f1+2)
	fcall	___ftmul
	bcf	status, 5	;RP0=0, select bank0
	bcf	status, 6	;RP1=0, select bank0
	movf	(0+(?___ftmul)),w
	movwf	(___fttol@f1)
	movf	(1+(?___ftmul)),w
	movwf	(___fttol@f1+1)
	movf	(2+(?___ftmul)),w
	movwf	(___fttol@f1+2)
	fcall	___fttol
	bcf	status, 5	;RP0=0, select bank0
	bcf	status, 6	;RP1=0, select bank0
	movf	1+(((0+(?___fttol)))),w
	bsf	status, 5	;RP0=1, select bank1
	bcf	status, 6	;RP1=0, select bank1
	clrf	(_rpm+1)^080h
	addwf	(_rpm+1)^080h
	bcf	status, 5	;RP0=0, select bank0
	bcf	status, 6	;RP1=0, select bank0
	movf	0+(((0+(?___fttol)))),w
	bsf	status, 5	;RP0=1, select bank1
	bcf	status, 6	;RP1=0, select bank1
	clrf	(_rpm)^080h
	addwf	(_rpm)^080h

	line	175
	
i1l2873:	
;main.c: 175: erro_anterior = erro_atual;
	movf	(_erro_atual+1)^080h,w
	clrf	(_erro_anterior+1)^080h
	addwf	(_erro_anterior+1)^080h
	movf	(_erro_atual)^080h,w
	clrf	(_erro_anterior)^080h
	addwf	(_erro_anterior)^080h

	line	176
	
i1l2875:	
;main.c: 176: erro_atual = setpoint - rpm;
	comf	(_rpm)^080h,w
	bcf	status, 5	;RP0=0, select bank0
	bcf	status, 6	;RP1=0, select bank0
	movwf	(??_ISR+0)+0
	bsf	status, 5	;RP0=1, select bank1
	bcf	status, 6	;RP1=0, select bank1
	comf	(_rpm+1)^080h,w
	bcf	status, 5	;RP0=0, select bank0
	bcf	status, 6	;RP1=0, select bank0
	movwf	((??_ISR+0)+0+1)
	incf	(??_ISR+0)+0,f
	skipnz
	incf	((??_ISR+0)+0+1),f
	bsf	status, 5	;RP0=1, select bank1
	bcf	status, 6	;RP1=0, select bank1
	movf	(_setpoint)^080h,w
	bcf	status, 5	;RP0=0, select bank0
	bcf	status, 6	;RP1=0, select bank0
	addwf	0+(??_ISR+0)+0,w
	bsf	status, 5	;RP0=1, select bank1
	bcf	status, 6	;RP1=0, select bank1
	movwf	(_erro_atual)^080h
	movf	(_setpoint+1)^080h,w
	skipnc
	incf	(_setpoint+1)^080h,w
	bcf	status, 5	;RP0=0, select bank0
	bcf	status, 6	;RP1=0, select bank0
	addwf	1+(??_ISR+0)+0,w
	bsf	status, 5	;RP0=1, select bank1
	bcf	status, 6	;RP1=0, select bank1
	movwf	1+(_erro_atual)^080h
	line	177
	
i1l2877:	
;main.c: 177: delta = erro_atual - erro_anterior;
	comf	(_erro_anterior)^080h,w
	bcf	status, 5	;RP0=0, select bank0
	bcf	status, 6	;RP1=0, select bank0
	movwf	(??_ISR+0)+0
	bsf	status, 5	;RP0=1, select bank1
	bcf	status, 6	;RP1=0, select bank1
	comf	(_erro_anterior+1)^080h,w
	bcf	status, 5	;RP0=0, select bank0
	bcf	status, 6	;RP1=0, select bank0
	movwf	((??_ISR+0)+0+1)
	incf	(??_ISR+0)+0,f
	skipnz
	incf	((??_ISR+0)+0+1),f
	bsf	status, 5	;RP0=1, select bank1
	bcf	status, 6	;RP1=0, select bank1
	movf	(_erro_atual)^080h,w
	bcf	status, 5	;RP0=0, select bank0
	bcf	status, 6	;RP1=0, select bank0
	addwf	0+(??_ISR+0)+0,w
	bsf	status, 5	;RP0=1, select bank1
	bcf	status, 6	;RP1=0, select bank1
	movwf	(_delta)^080h
	movf	(_erro_atual+1)^080h,w
	skipnc
	incf	(_erro_atual+1)^080h,w
	bcf	status, 5	;RP0=0, select bank0
	bcf	status, 6	;RP1=0, select bank0
	addwf	1+(??_ISR+0)+0,w
	bsf	status, 5	;RP0=1, select bank1
	bcf	status, 6	;RP1=0, select bank1
	movwf	1+(_delta)^080h
	line	179
	
i1l2879:	
;main.c: 179: fuzzy_erro = 1 - trimf(erro_atual, -9900, 0, 9900);
	movlw	0xb0
	bcf	status, 5	;RP0=0, select bank0
	bcf	status, 6	;RP1=0, select bank0
	movwf	(trimf@c)
	movlw	0x1a
	movwf	(trimf@c+1)
	movlw	0x46
	movwf	(trimf@c+2)
	movlw	0x0
	movwf	(trimf@b)
	movlw	0x0
	movwf	(trimf@b+1)
	movlw	0x0
	movwf	(trimf@b+2)
	movlw	0xb0
	movwf	(trimf@a)
	movlw	0x1a
	movwf	(trimf@a+1)
	movlw	0xc6
	movwf	(trimf@a+2)
	bsf	status, 5	;RP0=1, select bank1
	bcf	status, 6	;RP1=0, select bank1
	movf	(_erro_atual+1)^080h,w
	clrf	(___awtoft@c+1)
	addwf	(___awtoft@c+1)
	movf	(_erro_atual)^080h,w
	clrf	(___awtoft@c)
	addwf	(___awtoft@c)

	fcall	___awtoft
	movf	(0+(?___awtoft)),w
	bcf	status, 5	;RP0=0, select bank0
	bcf	status, 6	;RP1=0, select bank0
	movwf	(trimf@x)
	movf	(1+(?___awtoft)),w
	movwf	(trimf@x+1)
	movf	(2+(?___awtoft)),w
	movwf	(trimf@x+2)
	fcall	_trimf
	bcf	status, 5	;RP0=0, select bank0
	bcf	status, 6	;RP1=0, select bank0
	movf	(0+(?_trimf)),w
	movwf	(_ISR$1677)
	movf	(1+(?_trimf)),w
	movwf	(_ISR$1677+1)
	movf	(2+(?_trimf)),w
	movwf	(_ISR$1677+2)
	
i1l2881:	
;main.c: 179: fuzzy_erro = 1 - trimf(erro_atual, -9900, 0, 9900);
	movlw	0x0
	movwf	(___ftadd@f1)
	movlw	0x80
	movwf	(___ftadd@f1+1)
	movlw	0x3f
	movwf	(___ftadd@f1+2)
	movf	(_ISR$1677),w
	movwf	(___ftneg@f1)
	movf	(_ISR$1677+1),w
	movwf	(___ftneg@f1+1)
	movf	(_ISR$1677+2),w
	movwf	(___ftneg@f1+2)
	fcall	___ftneg
	bcf	status, 5	;RP0=0, select bank0
	bcf	status, 6	;RP1=0, select bank0
	movf	(0+(?___ftneg)),w
	movwf	(___ftadd@f2)
	movf	(1+(?___ftneg)),w
	movwf	(___ftadd@f2+1)
	movf	(2+(?___ftneg)),w
	movwf	(___ftadd@f2+2)
	fcall	___ftadd
	bcf	status, 5	;RP0=0, select bank0
	bcf	status, 6	;RP1=0, select bank0
	movf	(0+(?___ftadd)),w
	bsf	status, 5	;RP0=1, select bank1
	bcf	status, 6	;RP1=0, select bank1
	movwf	(_fuzzy_erro)^080h
	bcf	status, 5	;RP0=0, select bank0
	bcf	status, 6	;RP1=0, select bank0
	movf	(1+(?___ftadd)),w
	bsf	status, 5	;RP0=1, select bank1
	bcf	status, 6	;RP1=0, select bank1
	movwf	(_fuzzy_erro+1)^080h
	bcf	status, 5	;RP0=0, select bank0
	bcf	status, 6	;RP1=0, select bank0
	movf	(2+(?___ftadd)),w
	bsf	status, 5	;RP0=1, select bank1
	bcf	status, 6	;RP1=0, select bank1
	movwf	(_fuzzy_erro+2)^080h
	line	180
	
i1l2883:	
;main.c: 180: fuzzy_delta = 1 - trimf(delta, -9900, 0, 9900);
	movlw	0xb0
	bcf	status, 5	;RP0=0, select bank0
	bcf	status, 6	;RP1=0, select bank0
	movwf	(trimf@c)
	movlw	0x1a
	movwf	(trimf@c+1)
	movlw	0x46
	movwf	(trimf@c+2)
	movlw	0x0
	movwf	(trimf@b)
	movlw	0x0
	movwf	(trimf@b+1)
	movlw	0x0
	movwf	(trimf@b+2)
	movlw	0xb0
	movwf	(trimf@a)
	movlw	0x1a
	movwf	(trimf@a+1)
	movlw	0xc6
	movwf	(trimf@a+2)
	bsf	status, 5	;RP0=1, select bank1
	bcf	status, 6	;RP1=0, select bank1
	movf	(_delta+1)^080h,w
	clrf	(___awtoft@c+1)
	addwf	(___awtoft@c+1)
	movf	(_delta)^080h,w
	clrf	(___awtoft@c)
	addwf	(___awtoft@c)

	fcall	___awtoft
	movf	(0+(?___awtoft)),w
	bcf	status, 5	;RP0=0, select bank0
	bcf	status, 6	;RP1=0, select bank0
	movwf	(trimf@x)
	movf	(1+(?___awtoft)),w
	movwf	(trimf@x+1)
	movf	(2+(?___awtoft)),w
	movwf	(trimf@x+2)
	fcall	_trimf
	bcf	status, 5	;RP0=0, select bank0
	bcf	status, 6	;RP1=0, select bank0
	movf	(0+(?_trimf)),w
	movwf	(_ISR$1677)
	movf	(1+(?_trimf)),w
	movwf	(_ISR$1677+1)
	movf	(2+(?_trimf)),w
	movwf	(_ISR$1677+2)
	
i1l2885:	
;main.c: 180: fuzzy_delta = 1 - trimf(delta, -9900, 0, 9900);
	movlw	0x0
	movwf	(___ftadd@f1)
	movlw	0x80
	movwf	(___ftadd@f1+1)
	movlw	0x3f
	movwf	(___ftadd@f1+2)
	movf	(_ISR$1677),w
	movwf	(___ftneg@f1)
	movf	(_ISR$1677+1),w
	movwf	(___ftneg@f1+1)
	movf	(_ISR$1677+2),w
	movwf	(___ftneg@f1+2)
	fcall	___ftneg
	bcf	status, 5	;RP0=0, select bank0
	bcf	status, 6	;RP1=0, select bank0
	movf	(0+(?___ftneg)),w
	movwf	(___ftadd@f2)
	movf	(1+(?___ftneg)),w
	movwf	(___ftadd@f2+1)
	movf	(2+(?___ftneg)),w
	movwf	(___ftadd@f2+2)
	fcall	___ftadd
	bcf	status, 5	;RP0=0, select bank0
	bcf	status, 6	;RP1=0, select bank0
	movf	(0+(?___ftadd)),w
	bsf	status, 5	;RP0=1, select bank1
	bcf	status, 6	;RP1=0, select bank1
	movwf	(_fuzzy_delta)^080h
	bcf	status, 5	;RP0=0, select bank0
	bcf	status, 6	;RP1=0, select bank0
	movf	(1+(?___ftadd)),w
	bsf	status, 5	;RP0=1, select bank1
	bcf	status, 6	;RP1=0, select bank1
	movwf	(_fuzzy_delta+1)^080h
	bcf	status, 5	;RP0=0, select bank0
	bcf	status, 6	;RP1=0, select bank0
	movf	(2+(?___ftadd)),w
	bsf	status, 5	;RP0=1, select bank1
	bcf	status, 6	;RP1=0, select bank1
	movwf	(_fuzzy_delta+2)^080h
	line	182
	
i1l2887:	
;main.c: 182: fuzzy = (((fuzzy_erro)>(fuzzy_delta))?(fuzzy_erro):(fuzzy_delta));
	movf	(_fuzzy_delta)^080h,w
	movwf	(___ftge@ff1)
	movf	(_fuzzy_delta+1)^080h,w
	movwf	(___ftge@ff1+1)
	movf	(_fuzzy_delta+2)^080h,w
	movwf	(___ftge@ff1+2)
	movf	(_fuzzy_erro)^080h,w
	movwf	(___ftge@ff2)
	movf	(_fuzzy_erro+1)^080h,w
	movwf	(___ftge@ff2+1)
	movf	(_fuzzy_erro+2)^080h,w
	movwf	(___ftge@ff2+2)
	fcall	___ftge
	btfss	status,0
	goto	u338_21
	goto	u338_20
u338_21:
	goto	i1l2891
u338_20:
	
i1l2889:	
	bsf	status, 5	;RP0=1, select bank1
	bcf	status, 6	;RP1=0, select bank1
	movf	(_fuzzy_delta)^080h,w
	movwf	(_fuzzy)^080h
	movf	(_fuzzy_delta+1)^080h,w
	movwf	(_fuzzy+1)^080h
	movf	(_fuzzy_delta+2)^080h,w
	movwf	(_fuzzy+2)^080h
	goto	i1l2893
	
i1l141:	
	
i1l2891:	
	bsf	status, 5	;RP0=1, select bank1
	bcf	status, 6	;RP1=0, select bank1
	movf	(_fuzzy_erro)^080h,w
	movwf	(_fuzzy)^080h
	movf	(_fuzzy_erro+1)^080h,w
	movwf	(_fuzzy+1)^080h
	movf	(_fuzzy_erro+2)^080h,w
	movwf	(_fuzzy+2)^080h
	goto	i1l2893
	
i1l143:	
	line	184
	
i1l2893:	
;main.c: 184: variacao_fuzzy = 100 * (erro_atual > 0 ? 1 : -1) * fuzzy;
	movf	(_erro_atual+1)^080h,w
	xorlw	80h
	movwf	btemp+1
	movlw	(high(01h))^80h
	subwf	btemp+1,w
	skipz
	goto	u339_25
	movlw	low(01h)
	subwf	(_erro_atual)^080h,w
u339_25:

	skipnc
	goto	u339_21
	goto	u339_20
u339_21:
	goto	i1l2897
u339_20:
	
i1l2895:	
	movlw	low(-1)
	bcf	status, 5	;RP0=0, select bank0
	bcf	status, 6	;RP1=0, select bank0
	movwf	(_ISR$236)
	movlw	high(-1)
	movwf	((_ISR$236))+1
	goto	i1l2899
	
i1l145:	
	
i1l2897:	
	movlw	low(01h)
	bcf	status, 5	;RP0=0, select bank0
	bcf	status, 6	;RP1=0, select bank0
	movwf	(_ISR$236)
	movlw	high(01h)
	movwf	((_ISR$236))+1
	goto	i1l2899
	
i1l147:	
	
i1l2899:	
	bsf	status, 5	;RP0=1, select bank1
	bcf	status, 6	;RP1=0, select bank1
	movf	(_fuzzy)^080h,w
	bcf	status, 5	;RP0=0, select bank0
	bcf	status, 6	;RP1=0, select bank0
	movwf	(___ftmul@f1)
	bsf	status, 5	;RP0=1, select bank1
	bcf	status, 6	;RP1=0, select bank1
	movf	(_fuzzy+1)^080h,w
	bcf	status, 5	;RP0=0, select bank0
	bcf	status, 6	;RP1=0, select bank0
	movwf	(___ftmul@f1+1)
	bsf	status, 5	;RP0=1, select bank1
	bcf	status, 6	;RP1=0, select bank1
	movf	(_fuzzy+2)^080h,w
	bcf	status, 5	;RP0=0, select bank0
	bcf	status, 6	;RP1=0, select bank0
	movwf	(___ftmul@f1+2)
	movf	(_ISR$236+1),w
	clrf	(i1___wmul@multiplier+1)
	addwf	(i1___wmul@multiplier+1)
	movf	(_ISR$236),w
	clrf	(i1___wmul@multiplier)
	addwf	(i1___wmul@multiplier)

	movlw	low(064h)
	movwf	(i1___wmul@multiplicand)
	movlw	high(064h)
	movwf	((i1___wmul@multiplicand))+1
	fcall	i1___wmul
	movf	(1+(?i1___wmul)),w
	clrf	(___awtoft@c+1)
	addwf	(___awtoft@c+1)
	movf	(0+(?i1___wmul)),w
	clrf	(___awtoft@c)
	addwf	(___awtoft@c)

	fcall	___awtoft
	movf	(0+(?___awtoft)),w
	bcf	status, 5	;RP0=0, select bank0
	bcf	status, 6	;RP1=0, select bank0
	movwf	(___ftmul@f2)
	movf	(1+(?___awtoft)),w
	movwf	(___ftmul@f2+1)
	movf	(2+(?___awtoft)),w
	movwf	(___ftmul@f2+2)
	fcall	___ftmul
	bcf	status, 5	;RP0=0, select bank0
	bcf	status, 6	;RP1=0, select bank0
	movf	(0+(?___ftmul)),w
	bsf	status, 5	;RP0=1, select bank1
	bcf	status, 6	;RP1=0, select bank1
	movwf	(_variacao_fuzzy)^080h
	bcf	status, 5	;RP0=0, select bank0
	bcf	status, 6	;RP1=0, select bank0
	movf	(1+(?___ftmul)),w
	bsf	status, 5	;RP0=1, select bank1
	bcf	status, 6	;RP1=0, select bank1
	movwf	(_variacao_fuzzy+1)^080h
	bcf	status, 5	;RP0=0, select bank0
	bcf	status, 6	;RP1=0, select bank0
	movf	(2+(?___ftmul)),w
	bsf	status, 5	;RP0=1, select bank1
	bcf	status, 6	;RP1=0, select bank1
	movwf	(_variacao_fuzzy+2)^080h
	line	186
	
i1l2901:	
;main.c: 186: if (ligado) {
	movf	(_ligado+1)^080h,w
	iorwf	(_ligado)^080h,w
	skipnz
	goto	u340_21
	goto	u340_20
u340_21:
	goto	i1l2921
u340_20:
	line	187
	
i1l2903:	
;main.c: 187: pwm = ((((((pwm + (int) variacao_fuzzy)<(1023))?(pwm + (int) variacao_fuzzy):(1023)))>(0))?((((pwm + (int) variacao_fuzzy)<(1023))?(pwm + (int) variacao_fuzzy):(1023))):(0));
	movf	(_variacao_fuzzy)^080h,w
	bcf	status, 5	;RP0=0, select bank0
	bcf	status, 6	;RP1=0, select bank0
	movwf	(___fttol@f1)
	bsf	status, 5	;RP0=1, select bank1
	bcf	status, 6	;RP1=0, select bank1
	movf	(_variacao_fuzzy+1)^080h,w
	bcf	status, 5	;RP0=0, select bank0
	bcf	status, 6	;RP1=0, select bank0
	movwf	(___fttol@f1+1)
	bsf	status, 5	;RP0=1, select bank1
	bcf	status, 6	;RP1=0, select bank1
	movf	(_variacao_fuzzy+2)^080h,w
	bcf	status, 5	;RP0=0, select bank0
	bcf	status, 6	;RP1=0, select bank0
	movwf	(___fttol@f1+2)
	fcall	___fttol
	bsf	status, 5	;RP0=1, select bank1
	bcf	status, 6	;RP1=0, select bank1
	movf	(_pwm)^080h,w
	bcf	status, 5	;RP0=0, select bank0
	bcf	status, 6	;RP1=0, select bank0
	addwf	0+(((0+(?___fttol)))),w
	movwf	(??_ISR+0)+0
	bsf	status, 5	;RP0=1, select bank1
	bcf	status, 6	;RP1=0, select bank1
	movf	(_pwm+1)^080h,w
	skipnc
	incf	(_pwm+1)^080h,w
	bcf	status, 5	;RP0=0, select bank0
	bcf	status, 6	;RP1=0, select bank0
	addwf	1+(((0+(?___fttol)))),w
	movwf	1+(??_ISR+0)+0
	movlw	high(03FFh)
	subwf	1+(??_ISR+0)+0,w
	movlw	low(03FFh)
	skipnz
	subwf	0+(??_ISR+0)+0,w
	skipc
	goto	u341_21
	goto	u341_20
u341_21:
	goto	i1l2907
u341_20:
	
i1l2905:	
	movlw	low(03FFh)
	movwf	(_ISR$237)
	movlw	high(03FFh)
	movwf	((_ISR$237))+1
	goto	i1l2909
	
i1l154:	
	
i1l2907:	
	bsf	status, 5	;RP0=1, select bank1
	bcf	status, 6	;RP1=0, select bank1
	movf	(_variacao_fuzzy)^080h,w
	bcf	status, 5	;RP0=0, select bank0
	bcf	status, 6	;RP1=0, select bank0
	movwf	(___fttol@f1)
	bsf	status, 5	;RP0=1, select bank1
	bcf	status, 6	;RP1=0, select bank1
	movf	(_variacao_fuzzy+1)^080h,w
	bcf	status, 5	;RP0=0, select bank0
	bcf	status, 6	;RP1=0, select bank0
	movwf	(___fttol@f1+1)
	bsf	status, 5	;RP0=1, select bank1
	bcf	status, 6	;RP1=0, select bank1
	movf	(_variacao_fuzzy+2)^080h,w
	bcf	status, 5	;RP0=0, select bank0
	bcf	status, 6	;RP1=0, select bank0
	movwf	(___fttol@f1+2)
	fcall	___fttol
	bsf	status, 5	;RP0=1, select bank1
	bcf	status, 6	;RP1=0, select bank1
	movf	(_pwm)^080h,w
	bcf	status, 5	;RP0=0, select bank0
	bcf	status, 6	;RP1=0, select bank0
	addwf	0+(((0+(?___fttol)))),w
	movwf	(_ISR$237)
	bsf	status, 5	;RP0=1, select bank1
	bcf	status, 6	;RP1=0, select bank1
	movf	(_pwm+1)^080h,w
	skipnc
	incf	(_pwm+1)^080h,w
	bcf	status, 5	;RP0=0, select bank0
	bcf	status, 6	;RP1=0, select bank0
	addwf	1+(((0+(?___fttol)))),w
	movwf	1+(_ISR$237)
	goto	i1l2909
	
i1l156:	
	
i1l2909:	
	movf	((_ISR$237+1)),w
	iorwf	((_ISR$237)),w
	skipz
	goto	u342_21
	goto	u342_20
u342_21:
	goto	i1l2913
u342_20:
	
i1l2911:	
	bsf	status, 5	;RP0=1, select bank1
	bcf	status, 6	;RP1=0, select bank1
	clrf	(_pwm)^080h
	clrf	(_pwm+1)^080h
	goto	i1l2923
	
i1l150:	
	
i1l2913:	
	bsf	status, 5	;RP0=1, select bank1
	bcf	status, 6	;RP1=0, select bank1
	movf	(_variacao_fuzzy)^080h,w
	bcf	status, 5	;RP0=0, select bank0
	bcf	status, 6	;RP1=0, select bank0
	movwf	(___fttol@f1)
	bsf	status, 5	;RP0=1, select bank1
	bcf	status, 6	;RP1=0, select bank1
	movf	(_variacao_fuzzy+1)^080h,w
	bcf	status, 5	;RP0=0, select bank0
	bcf	status, 6	;RP1=0, select bank0
	movwf	(___fttol@f1+1)
	bsf	status, 5	;RP0=1, select bank1
	bcf	status, 6	;RP1=0, select bank1
	movf	(_variacao_fuzzy+2)^080h,w
	bcf	status, 5	;RP0=0, select bank0
	bcf	status, 6	;RP1=0, select bank0
	movwf	(___fttol@f1+2)
	fcall	___fttol
	bsf	status, 5	;RP0=1, select bank1
	bcf	status, 6	;RP1=0, select bank1
	movf	(_pwm)^080h,w
	bcf	status, 5	;RP0=0, select bank0
	bcf	status, 6	;RP1=0, select bank0
	addwf	0+(((0+(?___fttol)))),w
	movwf	(??_ISR+0)+0
	bsf	status, 5	;RP0=1, select bank1
	bcf	status, 6	;RP1=0, select bank1
	movf	(_pwm+1)^080h,w
	skipnc
	incf	(_pwm+1)^080h,w
	bcf	status, 5	;RP0=0, select bank0
	bcf	status, 6	;RP1=0, select bank0
	addwf	1+(((0+(?___fttol)))),w
	movwf	1+(??_ISR+0)+0
	movlw	high(03FFh)
	subwf	1+(??_ISR+0)+0,w
	movlw	low(03FFh)
	skipnz
	subwf	0+(??_ISR+0)+0,w
	skipc
	goto	u343_21
	goto	u343_20
u343_21:
	goto	i1l2917
u343_20:
	
i1l2915:	
	movlw	low(03FFh)
	movwf	(_ISR$238)
	movlw	high(03FFh)
	movwf	((_ISR$238))+1
	goto	i1l2919
	
i1l158:	
	
i1l2917:	
	bsf	status, 5	;RP0=1, select bank1
	bcf	status, 6	;RP1=0, select bank1
	movf	(_variacao_fuzzy)^080h,w
	bcf	status, 5	;RP0=0, select bank0
	bcf	status, 6	;RP1=0, select bank0
	movwf	(___fttol@f1)
	bsf	status, 5	;RP0=1, select bank1
	bcf	status, 6	;RP1=0, select bank1
	movf	(_variacao_fuzzy+1)^080h,w
	bcf	status, 5	;RP0=0, select bank0
	bcf	status, 6	;RP1=0, select bank0
	movwf	(___fttol@f1+1)
	bsf	status, 5	;RP0=1, select bank1
	bcf	status, 6	;RP1=0, select bank1
	movf	(_variacao_fuzzy+2)^080h,w
	bcf	status, 5	;RP0=0, select bank0
	bcf	status, 6	;RP1=0, select bank0
	movwf	(___fttol@f1+2)
	fcall	___fttol
	bsf	status, 5	;RP0=1, select bank1
	bcf	status, 6	;RP1=0, select bank1
	movf	(_pwm)^080h,w
	bcf	status, 5	;RP0=0, select bank0
	bcf	status, 6	;RP1=0, select bank0
	addwf	0+(((0+(?___fttol)))),w
	movwf	(_ISR$238)
	bsf	status, 5	;RP0=1, select bank1
	bcf	status, 6	;RP1=0, select bank1
	movf	(_pwm+1)^080h,w
	skipnc
	incf	(_pwm+1)^080h,w
	bcf	status, 5	;RP0=0, select bank0
	bcf	status, 6	;RP1=0, select bank0
	addwf	1+(((0+(?___fttol)))),w
	movwf	1+(_ISR$238)
	goto	i1l2919
	
i1l160:	
	
i1l2919:	
	movf	(_ISR$238+1),w
	bsf	status, 5	;RP0=1, select bank1
	bcf	status, 6	;RP1=0, select bank1
	clrf	(_pwm+1)^080h
	addwf	(_pwm+1)^080h
	bcf	status, 5	;RP0=0, select bank0
	bcf	status, 6	;RP1=0, select bank0
	movf	(_ISR$238),w
	bsf	status, 5	;RP0=1, select bank1
	bcf	status, 6	;RP1=0, select bank1
	clrf	(_pwm)^080h
	addwf	(_pwm)^080h

	goto	i1l2923
	
i1l152:	
	line	188
;main.c: 188: } else {
	goto	i1l2923
	
i1l148:	
	line	189
	
i1l2921:	
;main.c: 189: pwm = 0;
	clrf	(_pwm)^080h
	clrf	(_pwm+1)^080h
	goto	i1l2923
	line	190
	
i1l161:	
	line	192
	
i1l2923:	
;main.c: 190: }
;main.c: 192: PWM_DutyCycle2(pwm);
	movf	(_pwm+1)^080h,w
	clrf	(i1PWM_DutyCycle2@valor+1)
	addwf	(i1PWM_DutyCycle2@valor+1)
	movf	(_pwm)^080h,w
	clrf	(i1PWM_DutyCycle2@valor)
	addwf	(i1PWM_DutyCycle2@valor)

	fcall	i1_PWM_DutyCycle2
	line	195
	
i1l2925:	
;main.c: 195: TMR1L = 0x00;
	bcf	status, 5	;RP0=0, select bank0
	bcf	status, 6	;RP1=0, select bank0
	clrf	(14)	;volatile
	line	196
	
i1l2927:	
;main.c: 196: TMR1H = 0x00;
	clrf	(15)	;volatile
	line	199
	
i1l2929:	
;main.c: 199: PORTBbits.RB6 = 0;
	bcf	(6),6	;volatile
	goto	i1l2931
	line	200
	
i1l139:	
	line	203
	
i1l2931:	
;main.c: 200: }
;main.c: 203: INTCONbits.T0IF = 0;
	bcf	(11),2	;volatile
	goto	i1l2933
	line	204
	
i1l137:	
	line	207
	
i1l2933:	
;main.c: 204: }
;main.c: 207: if (PIR1bits.TMR1IF)
	btfss	(12),0	;volatile
	goto	u344_21
	goto	u344_20
u344_21:
	goto	i1l162
u344_20:
	line	212
	
i1l2935:	
;main.c: 208: {
;main.c: 212: PIR1bits.TMR1IF = 0;
	bcf	(12),0	;volatile
	line	213
	
i1l162:	
	line	216
;main.c: 213: }
;main.c: 216: if (PIR1bits.SSPIF)
	btfss	(12),3	;volatile
	goto	u345_21
	goto	u345_20
u345_21:
	goto	i1l164
u345_20:
	line	221
	
i1l2937:	
;main.c: 217: {
;main.c: 221: PIR1bits.SSPIF = 0;
	bcf	(12),3	;volatile
	goto	i1l164
	line	222
	
i1l163:	
	line	223
	
i1l164:	
	movf	(??_ISR+5),w
	movwf	btemp+1
	movf	(??_ISR+4),w
	movwf	pclath
	movf	(??_ISR+3),w
	movwf	fsr0
	swapf	(??_ISR+2)^00h,w
	movwf	status
	swapf	saved_w,f
	swapf	saved_w,w
	retfie
	opt stack 0
GLOBAL	__end_of_ISR
	__end_of_ISR:
	signat	_ISR,88
	global	i1___wmul

;; *************** function i1___wmul *****************
;; Defined at:
;;		line 15 in file "C:\Program Files (x86)\Microchip\xc8\v1.33\sources\common\Umul16.c"
;; Parameters:    Size  Location     Type
;;  multiplier      2    0[COMMON] unsigned int 
;;  multiplicand    2    2[COMMON] unsigned int 
;; Auto vars:     Size  Location     Type
;;  __wmul          2    4[COMMON] unsigned int 
;; Return value:  Size  Location     Type
;;                  2    0[COMMON] unsigned int 
;; Registers used:
;;		wreg, status,2, status,0
;; Tracked objects:
;;		On entry : 0/0
;;		On exit  : 0/0
;;		Unchanged: 0/0
;; Data sizes:     COMMON   BANK0   BANK1   BANK3   BANK2
;;      Params:         4       0       0       0       0
;;      Locals:         2       0       0       0       0
;;      Temps:          0       0       0       0       0
;;      Totals:         6       0       0       0       0
;;Total ram usage:        6 bytes
;; Hardware stack levels used:    1
;; This function calls:
;;		Nothing
;; This function is called by:
;;		_ISR
;; This function uses a non-reentrant model
;;
psect	text21,local,class=CODE,delta=2,merge=1
	file	"C:\Program Files (x86)\Microchip\xc8\v1.33\sources\common\Umul16.c"
	line	15
global __ptext21
__ptext21:	;psect for function i1___wmul
psect	text21
	file	"C:\Program Files (x86)\Microchip\xc8\v1.33\sources\common\Umul16.c"
	line	15
	global	__size_ofi1___wmul
	__size_ofi1___wmul	equ	__end_ofi1___wmul-i1___wmul
	
i1___wmul:	
;incstack = 0
	opt	stack 4
; Regs used in i1___wmul: [wreg+status,2+status,0]
	line	43
	
i1l2795:	
	clrf	(i1___wmul@product)
	clrf	(i1___wmul@product+1)
	goto	i1l2797
	line	44
	
i1l562:	
	line	45
	
i1l2797:	
	btfss	(i1___wmul@multiplier),(0)&7
	goto	u319_21
	goto	u319_20
u319_21:
	goto	i1l563
u319_20:
	line	46
	
i1l2799:	
	movf	(i1___wmul@multiplicand),w
	addwf	(i1___wmul@product),f
	skipnc
	incf	(i1___wmul@product+1),f
	movf	(i1___wmul@multiplicand+1),w
	addwf	(i1___wmul@product+1),f
	
i1l563:	
	line	47
	movlw	01h
	
u320_25:
	clrc
	rlf	(i1___wmul@multiplicand),f
	rlf	(i1___wmul@multiplicand+1),f
	addlw	-1
	skipz
	goto	u320_25
	line	48
	
i1l2801:	
	movlw	01h
	
u321_25:
	clrc
	rrf	(i1___wmul@multiplier+1),f
	rrf	(i1___wmul@multiplier),f
	addlw	-1
	skipz
	goto	u321_25
	line	49
	movf	((i1___wmul@multiplier+1)),w
	iorwf	((i1___wmul@multiplier)),w
	skipz
	goto	u322_21
	goto	u322_20
u322_21:
	goto	i1l2797
u322_20:
	goto	i1l2803
	
i1l564:	
	line	52
	
i1l2803:	
	movf	(i1___wmul@product+1),w
	clrf	(?i1___wmul+1)
	addwf	(?i1___wmul+1)
	movf	(i1___wmul@product),w
	clrf	(?i1___wmul)
	addwf	(?i1___wmul)

	goto	i1l565
	
i1l2805:	
	line	53
	
i1l565:	
	return
	opt stack 0
GLOBAL	__end_ofi1___wmul
	__end_ofi1___wmul:
	signat	i1___wmul,90
	global	i1_TIMER0_Set

;; *************** function i1_TIMER0_Set *****************
;; Defined at:
;;		line 20 in file "E:\projeto-fuzzy-rpm\firmware\timers.c"
;; Parameters:    Size  Location     Type
;;  contagens       1    wreg     unsigned char 
;; Auto vars:     Size  Location     Type
;;  contagens       1    0[COMMON] unsigned char 
;; Return value:  Size  Location     Type
;;		None               void
;; Registers used:
;;		wreg
;; Tracked objects:
;;		On entry : 0/0
;;		On exit  : 0/0
;;		Unchanged: 0/0
;; Data sizes:     COMMON   BANK0   BANK1   BANK3   BANK2
;;      Params:         0       0       0       0       0
;;      Locals:         1       0       0       0       0
;;      Temps:          0       0       0       0       0
;;      Totals:         1       0       0       0       0
;;Total ram usage:        1 bytes
;; Hardware stack levels used:    1
;; This function calls:
;;		Nothing
;; This function is called by:
;;		_ISR
;; This function uses a non-reentrant model
;;
psect	text22,local,class=CODE,delta=2,merge=1
	file	"E:\projeto-fuzzy-rpm\firmware\timers.c"
	line	20
global __ptext22
__ptext22:	;psect for function i1_TIMER0_Set
psect	text22
	file	"E:\projeto-fuzzy-rpm\firmware\timers.c"
	line	20
	global	__size_ofi1_TIMER0_Set
	__size_ofi1_TIMER0_Set	equ	__end_ofi1_TIMER0_Set-i1_TIMER0_Set
	
i1_TIMER0_Set:	
;incstack = 0
	opt	stack 4
; Regs used in i1_TIMER0_Set: [wreg]
;i1TIMER0_Set@contagens stored from wreg
	movwf	(i1TIMER0_Set@contagens)
	line	22
	
i1l2789:	
;timers.c: 22: TMR0 = contagens;
	movf	(i1TIMER0_Set@contagens),w
	bcf	status, 5	;RP0=0, select bank0
	bcf	status, 6	;RP1=0, select bank0
	movwf	(1)	;volatile
	line	23
	
i1l249:	
	return
	opt stack 0
GLOBAL	__end_ofi1_TIMER0_Set
	__end_ofi1_TIMER0_Set:
	signat	i1_TIMER0_Set,88
	global	i1_PWM_DutyCycle2

;; *************** function i1_PWM_DutyCycle2 *****************
;; Defined at:
;;		line 96 in file "E:\projeto-fuzzy-rpm\firmware\pwm.c"
;; Parameters:    Size  Location     Type
;;  valor           2    0[COMMON] int 
;; Auto vars:     Size  Location     Type
;;		None
;; Return value:  Size  Location     Type
;;		None               void
;; Registers used:
;;		wreg, status,2, status,0
;; Tracked objects:
;;		On entry : 0/0
;;		On exit  : 0/0
;;		Unchanged: 0/0
;; Data sizes:     COMMON   BANK0   BANK1   BANK3   BANK2
;;      Params:         2       0       0       0       0
;;      Locals:         0       0       0       0       0
;;      Temps:          2       0       0       0       0
;;      Totals:         4       0       0       0       0
;;Total ram usage:        4 bytes
;; Hardware stack levels used:    1
;; This function calls:
;;		Nothing
;; This function is called by:
;;		_ISR
;; This function uses a non-reentrant model
;;
psect	text23,local,class=CODE,delta=2,merge=1
	file	"E:\projeto-fuzzy-rpm\firmware\pwm.c"
	line	96
global __ptext23
__ptext23:	;psect for function i1_PWM_DutyCycle2
psect	text23
	file	"E:\projeto-fuzzy-rpm\firmware\pwm.c"
	line	96
	global	__size_ofi1_PWM_DutyCycle2
	__size_ofi1_PWM_DutyCycle2	equ	__end_ofi1_PWM_DutyCycle2-i1_PWM_DutyCycle2
	
i1_PWM_DutyCycle2:	
;incstack = 0
	opt	stack 4
; Regs used in i1_PWM_DutyCycle2: [wreg+status,2+status,0]
	line	98
	
i1l2791:	
;pwm.c: 98: CCPR2L = valor >> 2;
	movf	(i1PWM_DutyCycle2@valor+1),w
	movwf	(??i1_PWM_DutyCycle2+0)+0+1
	movf	(i1PWM_DutyCycle2@valor),w
	movwf	(??i1_PWM_DutyCycle2+0)+0
	rlf	(??i1_PWM_DutyCycle2+0)+1,w
	rrf	(??i1_PWM_DutyCycle2+0)+1,f
	rrf	(??i1_PWM_DutyCycle2+0)+0,f
	rlf	(??i1_PWM_DutyCycle2+0)+1,w
	rrf	(??i1_PWM_DutyCycle2+0)+1,f
	rrf	(??i1_PWM_DutyCycle2+0)+0,f
	movf	0+(??i1_PWM_DutyCycle2+0)+0,w
	bcf	status, 5	;RP0=0, select bank0
	bcf	status, 6	;RP1=0, select bank0
	movwf	(27)	;volatile
	line	99
	
i1l2793:	
;pwm.c: 99: CCP2CON = (valor << 4)|0X0C;
	movf	(i1PWM_DutyCycle2@valor),w
	movwf	(??i1_PWM_DutyCycle2+0)+0
	movlw	(04h)-1
u318_25:
	clrc
	rlf	(??i1_PWM_DutyCycle2+0)+0,f
	addlw	-1
	skipz
	goto	u318_25
	clrc
	rlf	(??i1_PWM_DutyCycle2+0)+0,w
	iorlw	0Ch
	movwf	(29)	;volatile
	line	100
	
i1l403:	
	return
	opt stack 0
GLOBAL	__end_ofi1_PWM_DutyCycle2
	__end_ofi1_PWM_DutyCycle2:
	signat	i1_PWM_DutyCycle2,88
	global	_trimf

;; *************** function _trimf *****************
;; Defined at:
;;		line 59 in file "E:\projeto-fuzzy-rpm\firmware\main.c"
;; Parameters:    Size  Location     Type
;;  x               3   32[BANK0 ] float 
;;  a               3   35[BANK0 ] float 
;;  b               3   38[BANK0 ] float 
;;  c               3   41[BANK0 ] float 
;; Auto vars:     Size  Location     Type
;;  ua              3   44[BANK0 ] float 
;; Return value:  Size  Location     Type
;;                  3   32[BANK0 ] float 
;; Registers used:
;;		wreg, status,2, status,0, pclath, cstack
;; Tracked objects:
;;		On entry : 0/0
;;		On exit  : 0/0
;;		Unchanged: 0/0
;; Data sizes:     COMMON   BANK0   BANK1   BANK3   BANK2
;;      Params:         0      12       0       0       0
;;      Locals:         0       3       0       0       0
;;      Temps:          0       0       0       0       0
;;      Totals:         0      15       0       0       0
;;Total ram usage:       15 bytes
;; Hardware stack levels used:    1
;; Hardware stack levels required when called:    2
;; This function calls:
;;		___ftadd
;;		___ftdiv
;;		___ftge
;;		___ftneg
;; This function is called by:
;;		_ISR
;; This function uses a non-reentrant model
;;
psect	text24,local,class=CODE,delta=2,merge=1
	file	"E:\projeto-fuzzy-rpm\firmware\main.c"
	line	59
global __ptext24
__ptext24:	;psect for function _trimf
psect	text24
	file	"E:\projeto-fuzzy-rpm\firmware\main.c"
	line	59
	global	__size_of_trimf
	__size_of_trimf	equ	__end_of_trimf-_trimf
	
_trimf:	
;incstack = 0
	opt	stack 2
; Regs used in _trimf: [wreg+status,2+status,0+pclath+cstack]
	line	61
	
i1l2361:	
;main.c: 61: float ua = 0;
	movlw	0x0
	bcf	status, 5	;RP0=0, select bank0
	bcf	status, 6	;RP1=0, select bank0
	movwf	(trimf@ua)
	movlw	0x0
	movwf	(trimf@ua+1)
	movlw	0x0
	movwf	(trimf@ua+2)
	line	63
	
i1l2363:	
;main.c: 63: if (x <= a)
	movf	(trimf@a),w
	movwf	(___ftge@ff1)
	movf	(trimf@a+1),w
	movwf	(___ftge@ff1+1)
	movf	(trimf@a+2),w
	movwf	(___ftge@ff1+2)
	movf	(trimf@x),w
	movwf	(___ftge@ff2)
	movf	(trimf@x+1),w
	movwf	(___ftge@ff2+1)
	movf	(trimf@x+2),w
	movwf	(___ftge@ff2+2)
	fcall	___ftge
	btfss	status,0
	goto	u260_21
	goto	u260_20
u260_21:
	goto	i1l2367
u260_20:
	line	64
	
i1l2365:	
;main.c: 64: ua = 0;
	movlw	0x0
	bcf	status, 5	;RP0=0, select bank0
	bcf	status, 6	;RP1=0, select bank0
	movwf	(trimf@ua)
	movlw	0x0
	movwf	(trimf@ua+1)
	movlw	0x0
	movwf	(trimf@ua+2)
	goto	i1l110
	line	65
	
i1l109:	
	
i1l2367:	
;main.c: 65: else if ((a < x) && (x <= b))
	bcf	status, 5	;RP0=0, select bank0
	bcf	status, 6	;RP1=0, select bank0
	movf	(trimf@a),w
	movwf	(___ftge@ff1)
	movf	(trimf@a+1),w
	movwf	(___ftge@ff1+1)
	movf	(trimf@a+2),w
	movwf	(___ftge@ff1+2)
	movf	(trimf@x),w
	movwf	(___ftge@ff2)
	movf	(trimf@x+1),w
	movwf	(___ftge@ff2+1)
	movf	(trimf@x+2),w
	movwf	(___ftge@ff2+2)
	fcall	___ftge
	btfsc	status,0
	goto	u261_21
	goto	u261_20
u261_21:
	goto	i1l2373
u261_20:
	
i1l2369:	
	bcf	status, 5	;RP0=0, select bank0
	bcf	status, 6	;RP1=0, select bank0
	movf	(trimf@b),w
	movwf	(___ftge@ff1)
	movf	(trimf@b+1),w
	movwf	(___ftge@ff1+1)
	movf	(trimf@b+2),w
	movwf	(___ftge@ff1+2)
	movf	(trimf@x),w
	movwf	(___ftge@ff2)
	movf	(trimf@x+1),w
	movwf	(___ftge@ff2+1)
	movf	(trimf@x+2),w
	movwf	(___ftge@ff2+2)
	fcall	___ftge
	btfss	status,0
	goto	u262_21
	goto	u262_20
u262_21:
	goto	i1l2373
u262_20:
	line	66
	
i1l2371:	
;main.c: 66: ua = ((x - a) / (b - a));
	bcf	status, 5	;RP0=0, select bank0
	bcf	status, 6	;RP1=0, select bank0
	movf	(trimf@b),w
	movwf	(___ftadd@f1)
	movf	(trimf@b+1),w
	movwf	(___ftadd@f1+1)
	movf	(trimf@b+2),w
	movwf	(___ftadd@f1+2)
	movf	(trimf@a),w
	movwf	(___ftneg@f1)
	movf	(trimf@a+1),w
	movwf	(___ftneg@f1+1)
	movf	(trimf@a+2),w
	movwf	(___ftneg@f1+2)
	fcall	___ftneg
	bcf	status, 5	;RP0=0, select bank0
	bcf	status, 6	;RP1=0, select bank0
	movf	(0+(?___ftneg)),w
	movwf	(___ftadd@f2)
	movf	(1+(?___ftneg)),w
	movwf	(___ftadd@f2+1)
	movf	(2+(?___ftneg)),w
	movwf	(___ftadd@f2+2)
	fcall	___ftadd
	bcf	status, 5	;RP0=0, select bank0
	bcf	status, 6	;RP1=0, select bank0
	movf	(0+(?___ftadd)),w
	movwf	(___ftdiv@f2)
	movf	(1+(?___ftadd)),w
	movwf	(___ftdiv@f2+1)
	movf	(2+(?___ftadd)),w
	movwf	(___ftdiv@f2+2)
	movf	(trimf@x),w
	movwf	(___ftadd@f1)
	movf	(trimf@x+1),w
	movwf	(___ftadd@f1+1)
	movf	(trimf@x+2),w
	movwf	(___ftadd@f1+2)
	movf	(trimf@a),w
	movwf	(___ftneg@f1)
	movf	(trimf@a+1),w
	movwf	(___ftneg@f1+1)
	movf	(trimf@a+2),w
	movwf	(___ftneg@f1+2)
	fcall	___ftneg
	bcf	status, 5	;RP0=0, select bank0
	bcf	status, 6	;RP1=0, select bank0
	movf	(0+(?___ftneg)),w
	movwf	(___ftadd@f2)
	movf	(1+(?___ftneg)),w
	movwf	(___ftadd@f2+1)
	movf	(2+(?___ftneg)),w
	movwf	(___ftadd@f2+2)
	fcall	___ftadd
	bcf	status, 5	;RP0=0, select bank0
	bcf	status, 6	;RP1=0, select bank0
	movf	(0+(?___ftadd)),w
	movwf	(___ftdiv@f1)
	movf	(1+(?___ftadd)),w
	movwf	(___ftdiv@f1+1)
	movf	(2+(?___ftadd)),w
	movwf	(___ftdiv@f1+2)
	fcall	___ftdiv
	bcf	status, 5	;RP0=0, select bank0
	bcf	status, 6	;RP1=0, select bank0
	movf	(0+(?___ftdiv)),w
	movwf	(trimf@ua)
	movf	(1+(?___ftdiv)),w
	movwf	(trimf@ua+1)
	movf	(2+(?___ftdiv)),w
	movwf	(trimf@ua+2)
	goto	i1l110
	line	67
	
i1l111:	
	
i1l2373:	
;main.c: 67: else if ((b < x) && (x <= c))
	bcf	status, 5	;RP0=0, select bank0
	bcf	status, 6	;RP1=0, select bank0
	movf	(trimf@b),w
	movwf	(___ftge@ff1)
	movf	(trimf@b+1),w
	movwf	(___ftge@ff1+1)
	movf	(trimf@b+2),w
	movwf	(___ftge@ff1+2)
	movf	(trimf@x),w
	movwf	(___ftge@ff2)
	movf	(trimf@x+1),w
	movwf	(___ftge@ff2+1)
	movf	(trimf@x+2),w
	movwf	(___ftge@ff2+2)
	fcall	___ftge
	btfsc	status,0
	goto	u263_21
	goto	u263_20
u263_21:
	goto	i1l2379
u263_20:
	
i1l2375:	
	bcf	status, 5	;RP0=0, select bank0
	bcf	status, 6	;RP1=0, select bank0
	movf	(trimf@c),w
	movwf	(___ftge@ff1)
	movf	(trimf@c+1),w
	movwf	(___ftge@ff1+1)
	movf	(trimf@c+2),w
	movwf	(___ftge@ff1+2)
	movf	(trimf@x),w
	movwf	(___ftge@ff2)
	movf	(trimf@x+1),w
	movwf	(___ftge@ff2+1)
	movf	(trimf@x+2),w
	movwf	(___ftge@ff2+2)
	fcall	___ftge
	btfss	status,0
	goto	u264_21
	goto	u264_20
u264_21:
	goto	i1l2379
u264_20:
	line	68
	
i1l2377:	
;main.c: 68: ua = ((x - c) / (b - c));
	bcf	status, 5	;RP0=0, select bank0
	bcf	status, 6	;RP1=0, select bank0
	movf	(trimf@b),w
	movwf	(___ftadd@f1)
	movf	(trimf@b+1),w
	movwf	(___ftadd@f1+1)
	movf	(trimf@b+2),w
	movwf	(___ftadd@f1+2)
	movf	(trimf@c),w
	movwf	(___ftneg@f1)
	movf	(trimf@c+1),w
	movwf	(___ftneg@f1+1)
	movf	(trimf@c+2),w
	movwf	(___ftneg@f1+2)
	fcall	___ftneg
	bcf	status, 5	;RP0=0, select bank0
	bcf	status, 6	;RP1=0, select bank0
	movf	(0+(?___ftneg)),w
	movwf	(___ftadd@f2)
	movf	(1+(?___ftneg)),w
	movwf	(___ftadd@f2+1)
	movf	(2+(?___ftneg)),w
	movwf	(___ftadd@f2+2)
	fcall	___ftadd
	bcf	status, 5	;RP0=0, select bank0
	bcf	status, 6	;RP1=0, select bank0
	movf	(0+(?___ftadd)),w
	movwf	(___ftdiv@f2)
	movf	(1+(?___ftadd)),w
	movwf	(___ftdiv@f2+1)
	movf	(2+(?___ftadd)),w
	movwf	(___ftdiv@f2+2)
	movf	(trimf@x),w
	movwf	(___ftadd@f1)
	movf	(trimf@x+1),w
	movwf	(___ftadd@f1+1)
	movf	(trimf@x+2),w
	movwf	(___ftadd@f1+2)
	movf	(trimf@c),w
	movwf	(___ftneg@f1)
	movf	(trimf@c+1),w
	movwf	(___ftneg@f1+1)
	movf	(trimf@c+2),w
	movwf	(___ftneg@f1+2)
	fcall	___ftneg
	bcf	status, 5	;RP0=0, select bank0
	bcf	status, 6	;RP1=0, select bank0
	movf	(0+(?___ftneg)),w
	movwf	(___ftadd@f2)
	movf	(1+(?___ftneg)),w
	movwf	(___ftadd@f2+1)
	movf	(2+(?___ftneg)),w
	movwf	(___ftadd@f2+2)
	fcall	___ftadd
	bcf	status, 5	;RP0=0, select bank0
	bcf	status, 6	;RP1=0, select bank0
	movf	(0+(?___ftadd)),w
	movwf	(___ftdiv@f1)
	movf	(1+(?___ftadd)),w
	movwf	(___ftdiv@f1+1)
	movf	(2+(?___ftadd)),w
	movwf	(___ftdiv@f1+2)
	fcall	___ftdiv
	bcf	status, 5	;RP0=0, select bank0
	bcf	status, 6	;RP1=0, select bank0
	movf	(0+(?___ftdiv)),w
	movwf	(trimf@ua)
	movf	(1+(?___ftdiv)),w
	movwf	(trimf@ua+1)
	movf	(2+(?___ftdiv)),w
	movwf	(trimf@ua+2)
	goto	i1l110
	line	69
	
i1l113:	
	
i1l2379:	
;main.c: 69: else if (x > c)
	bcf	status, 5	;RP0=0, select bank0
	bcf	status, 6	;RP1=0, select bank0
	movf	(trimf@c),w
	movwf	(___ftge@ff1)
	movf	(trimf@c+1),w
	movwf	(___ftge@ff1+1)
	movf	(trimf@c+2),w
	movwf	(___ftge@ff1+2)
	movf	(trimf@x),w
	movwf	(___ftge@ff2)
	movf	(trimf@x+1),w
	movwf	(___ftge@ff2+1)
	movf	(trimf@x+2),w
	movwf	(___ftge@ff2+2)
	fcall	___ftge
	btfsc	status,0
	goto	u265_21
	goto	u265_20
u265_21:
	goto	i1l110
u265_20:
	line	70
	
i1l2381:	
;main.c: 70: ua = 0;
	movlw	0x0
	bcf	status, 5	;RP0=0, select bank0
	bcf	status, 6	;RP1=0, select bank0
	movwf	(trimf@ua)
	movlw	0x0
	movwf	(trimf@ua+1)
	movlw	0x0
	movwf	(trimf@ua+2)
	goto	i1l110
	
i1l115:	
	goto	i1l110
	line	72
	
i1l114:	
	goto	i1l110
	
i1l112:	
	
i1l110:	
;main.c: 72: return(ua);
	bcf	status, 5	;RP0=0, select bank0
	bcf	status, 6	;RP1=0, select bank0
	movf	(trimf@ua),w
	movwf	(?_trimf)
	movf	(trimf@ua+1),w
	movwf	(?_trimf+1)
	movf	(trimf@ua+2),w
	movwf	(?_trimf+2)
	goto	i1l116
	
i1l2383:	
	line	73
	
i1l116:	
	return
	opt stack 0
GLOBAL	__end_of_trimf
	__end_of_trimf:
	signat	_trimf,16507
	global	___ftneg

;; *************** function ___ftneg *****************
;; Defined at:
;;		line 15 in file "C:\Program Files (x86)\Microchip\xc8\v1.33\sources\common\ftneg.c"
;; Parameters:    Size  Location     Type
;;  f1              3    0[BANK0 ] float 
;; Auto vars:     Size  Location     Type
;;		None
;; Return value:  Size  Location     Type
;;                  3    0[BANK0 ] float 
;; Registers used:
;;		wreg
;; Tracked objects:
;;		On entry : 0/0
;;		On exit  : 0/0
;;		Unchanged: 0/0
;; Data sizes:     COMMON   BANK0   BANK1   BANK3   BANK2
;;      Params:         0       3       0       0       0
;;      Locals:         0       0       0       0       0
;;      Temps:          0       0       0       0       0
;;      Totals:         0       3       0       0       0
;;Total ram usage:        3 bytes
;; Hardware stack levels used:    1
;; This function calls:
;;		Nothing
;; This function is called by:
;;		_trimf
;;		_ISR
;; This function uses a non-reentrant model
;;
psect	text25,local,class=CODE,delta=2,merge=1
	file	"C:\Program Files (x86)\Microchip\xc8\v1.33\sources\common\ftneg.c"
	line	15
global __ptext25
__ptext25:	;psect for function ___ftneg
psect	text25
	file	"C:\Program Files (x86)\Microchip\xc8\v1.33\sources\common\ftneg.c"
	line	15
	global	__size_of___ftneg
	__size_of___ftneg	equ	__end_of___ftneg-___ftneg
	
___ftneg:	
;incstack = 0
	opt	stack 3
; Regs used in ___ftneg: [wreg]
	line	17
	
i1l2305:	
	bcf	status, 5	;RP0=0, select bank0
	bcf	status, 6	;RP1=0, select bank0
	movf	(___ftneg@f1+2),w
	iorwf	(___ftneg@f1+1),w
	iorwf	(___ftneg@f1),w
	skipnz
	goto	u246_21
	goto	u246_20
u246_21:
	goto	i1l2309
u246_20:
	line	18
	
i1l2307:	
	movlw	080h
	xorwf	(___ftneg@f1+2),f
	goto	i1l2309
	
i1l795:	
	line	19
	
i1l2309:	
	goto	i1l796
	
i1l2311:	
	line	20
	
i1l796:	
	return
	opt stack 0
GLOBAL	__end_of___ftneg
	__end_of___ftneg:
	signat	___ftneg,4219
	global	___ftge

;; *************** function ___ftge *****************
;; Defined at:
;;		line 4 in file "C:\Program Files (x86)\Microchip\xc8\v1.33\sources\common\ftge.c"
;; Parameters:    Size  Location     Type
;;  ff1             3    0[COMMON] float 
;;  ff2             3    3[COMMON] float 
;; Auto vars:     Size  Location     Type
;;		None
;; Return value:  Size  Location     Type
;;		None               void
;; Registers used:
;;		wreg, status,2, status,0
;; Tracked objects:
;;		On entry : 0/0
;;		On exit  : 0/0
;;		Unchanged: 0/0
;; Data sizes:     COMMON   BANK0   BANK1   BANK3   BANK2
;;      Params:         6       0       0       0       0
;;      Locals:         0       0       0       0       0
;;      Temps:          6       0       0       0       0
;;      Totals:        12       0       0       0       0
;;Total ram usage:       12 bytes
;; Hardware stack levels used:    1
;; This function calls:
;;		Nothing
;; This function is called by:
;;		_trimf
;;		_ISR
;; This function uses a non-reentrant model
;;
psect	text26,local,class=CODE,delta=2,merge=1
	file	"C:\Program Files (x86)\Microchip\xc8\v1.33\sources\common\ftge.c"
	line	4
global __ptext26
__ptext26:	;psect for function ___ftge
psect	text26
	file	"C:\Program Files (x86)\Microchip\xc8\v1.33\sources\common\ftge.c"
	line	4
	global	__size_of___ftge
	__size_of___ftge	equ	__end_of___ftge-___ftge
	
___ftge:	
;incstack = 0
	opt	stack 3
; Regs used in ___ftge: [wreg+status,2+status,0]
	line	6
	
i1l2285:	
	btfss	(___ftge@ff1+2),(23)&7
	goto	u241_21
	goto	u241_20
u241_21:
	goto	i1l2289
u241_20:
	line	7
	
i1l2287:	
	movlw	low(0800000h)
	movwf	((??___ftge+0)+0)
	movlw	high(0800000h)
	movwf	((??___ftge+0)+0+1)
	movlw	low highword(0800000h)
	movwf	((??___ftge+0)+0+2)
	comf	(___ftge@ff1),w
	movwf	(??___ftge+3)+0
	comf	(___ftge@ff1+1),w
	movwf	((??___ftge+3)+0+1)
	comf	(___ftge@ff1+2),w
	movwf	((??___ftge+3)+0+2)
	incf	(??___ftge+3)+0,f
	skipnz
	incf	((??___ftge+3)+0+1),f
	skipnz
	incf	((??___ftge+3)+0+2),f
	movf	0+(??___ftge+3)+0,w
	addwf	(??___ftge+0)+0,f
	movf	1+(??___ftge+3)+0,w
	skipnc
	incfsz	1+(??___ftge+3)+0,w
	goto	u242_21
	goto	u242_22
u242_21:
	addwf	(??___ftge+0)+1,f
	
u242_22:
	movf	2+(??___ftge+3)+0,w
	skipnc
	incfsz	2+(??___ftge+3)+0,w
	goto	u242_23
	goto	u242_24
u242_23:
	addwf	(??___ftge+0)+2,f
	
u242_24:
	movf	0+(??___ftge+0)+0,w
	movwf	(___ftge@ff1)
	movf	1+(??___ftge+0)+0,w
	movwf	(___ftge@ff1+1)
	movf	2+(??___ftge+0)+0,w
	movwf	(___ftge@ff1+2)
	goto	i1l2289
	
i1l777:	
	line	8
	
i1l2289:	
	btfss	(___ftge@ff2+2),(23)&7
	goto	u243_21
	goto	u243_20
u243_21:
	goto	i1l2293
u243_20:
	line	9
	
i1l2291:	
	movlw	low(0800000h)
	movwf	((??___ftge+0)+0)
	movlw	high(0800000h)
	movwf	((??___ftge+0)+0+1)
	movlw	low highword(0800000h)
	movwf	((??___ftge+0)+0+2)
	comf	(___ftge@ff2),w
	movwf	(??___ftge+3)+0
	comf	(___ftge@ff2+1),w
	movwf	((??___ftge+3)+0+1)
	comf	(___ftge@ff2+2),w
	movwf	((??___ftge+3)+0+2)
	incf	(??___ftge+3)+0,f
	skipnz
	incf	((??___ftge+3)+0+1),f
	skipnz
	incf	((??___ftge+3)+0+2),f
	movf	0+(??___ftge+3)+0,w
	addwf	(??___ftge+0)+0,f
	movf	1+(??___ftge+3)+0,w
	skipnc
	incfsz	1+(??___ftge+3)+0,w
	goto	u244_21
	goto	u244_22
u244_21:
	addwf	(??___ftge+0)+1,f
	
u244_22:
	movf	2+(??___ftge+3)+0,w
	skipnc
	incfsz	2+(??___ftge+3)+0,w
	goto	u244_23
	goto	u244_24
u244_23:
	addwf	(??___ftge+0)+2,f
	
u244_24:
	movf	0+(??___ftge+0)+0,w
	movwf	(___ftge@ff2)
	movf	1+(??___ftge+0)+0,w
	movwf	(___ftge@ff2+1)
	movf	2+(??___ftge+0)+0,w
	movwf	(___ftge@ff2+2)
	goto	i1l2293
	
i1l778:	
	line	10
	
i1l2293:	
	movlw	080h
	xorwf	(___ftge@ff1+2),f
	line	11
	
i1l2295:	
	movlw	080h
	xorwf	(___ftge@ff2+2),f
	line	12
	
i1l2297:	
	movf	(___ftge@ff2+2),w
	subwf	(___ftge@ff1+2),w
	skipz
	goto	u245_25
	movf	(___ftge@ff2+1),w
	subwf	(___ftge@ff1+1),w
	skipz
	goto	u245_25
	movf	(___ftge@ff2),w
	subwf	(___ftge@ff1),w
u245_25:
	skipnc
	goto	u245_21
	goto	u245_20
u245_21:
	goto	i1l2301
u245_20:
	
i1l2299:	
	clrc
	
	goto	i1l779
	
i1l2045:	
	
i1l2301:	
	setc
	
	goto	i1l779
	
i1l2047:	
	goto	i1l779
	
i1l2303:	
	line	13
	
i1l779:	
	return
	opt stack 0
GLOBAL	__end_of___ftge
	__end_of___ftge:
	signat	___ftge,8312
	global	___ftdiv

;; *************** function ___ftdiv *****************
;; Defined at:
;;		line 49 in file "C:\Program Files (x86)\Microchip\xc8\v1.33\sources\pic\ftdiv.c"
;; Parameters:    Size  Location     Type
;;  f2              3   16[BANK0 ] float 
;;  f1              3   19[BANK0 ] float 
;; Auto vars:     Size  Location     Type
;;  f3              3   27[BANK0 ] float 
;;  sign            1   31[BANK0 ] unsigned char 
;;  exp             1   30[BANK0 ] unsigned char 
;;  cntr            1   26[BANK0 ] unsigned char 
;; Return value:  Size  Location     Type
;;                  3   16[BANK0 ] float 
;; Registers used:
;;		wreg, status,2, status,0, pclath, cstack
;; Tracked objects:
;;		On entry : 0/0
;;		On exit  : 0/0
;;		Unchanged: 0/0
;; Data sizes:     COMMON   BANK0   BANK1   BANK3   BANK2
;;      Params:         0       6       0       0       0
;;      Locals:         0       6       0       0       0
;;      Temps:          0       4       0       0       0
;;      Totals:         0      16       0       0       0
;;Total ram usage:       16 bytes
;; Hardware stack levels used:    1
;; Hardware stack levels required when called:    1
;; This function calls:
;;		___ftpack
;; This function is called by:
;;		_trimf
;;		_ISR
;; This function uses a non-reentrant model
;;
psect	text27,local,class=CODE,delta=2,merge=1
	file	"C:\Program Files (x86)\Microchip\xc8\v1.33\sources\pic\ftdiv.c"
	line	49
global __ptext27
__ptext27:	;psect for function ___ftdiv
psect	text27
	file	"C:\Program Files (x86)\Microchip\xc8\v1.33\sources\pic\ftdiv.c"
	line	49
	global	__size_of___ftdiv
	__size_of___ftdiv	equ	__end_of___ftdiv-___ftdiv
	
___ftdiv:	
;incstack = 0
	opt	stack 2
; Regs used in ___ftdiv: [wreg+status,2+status,0+pclath+cstack]
	line	55
	
i1l2243:	
	bcf	status, 5	;RP0=0, select bank0
	bcf	status, 6	;RP1=0, select bank0
	movf	(___ftdiv@f1),w
	movwf	((??___ftdiv+0)+0)
	movf	(___ftdiv@f1+1),w
	movwf	((??___ftdiv+0)+0+1)
	movf	(___ftdiv@f1+2),w
	movwf	((??___ftdiv+0)+0+2)
	clrc
	rlf	(??___ftdiv+0)+1,w
	rlf	(??___ftdiv+0)+2,w
	movwf	(??___ftdiv+3)+0
	movf	(??___ftdiv+3)+0,w
	movwf	(___ftdiv@exp)
	movf	((___ftdiv@exp)),f
	skipz
	goto	u233_21
	goto	u233_20
u233_21:
	goto	i1l2249
u233_20:
	line	56
	
i1l2245:	
	movlw	0x0
	movwf	(?___ftdiv)
	movlw	0x0
	movwf	(?___ftdiv+1)
	movlw	0x0
	movwf	(?___ftdiv+2)
	goto	i1l770
	
i1l2247:	
	goto	i1l770
	
i1l769:	
	line	57
	
i1l2249:	
	movf	(___ftdiv@f2),w
	movwf	((??___ftdiv+0)+0)
	movf	(___ftdiv@f2+1),w
	movwf	((??___ftdiv+0)+0+1)
	movf	(___ftdiv@f2+2),w
	movwf	((??___ftdiv+0)+0+2)
	clrc
	rlf	(??___ftdiv+0)+1,w
	rlf	(??___ftdiv+0)+2,w
	movwf	(??___ftdiv+3)+0
	movf	(??___ftdiv+3)+0,w
	movwf	(___ftdiv@sign)
	movf	((___ftdiv@sign)),f
	skipz
	goto	u234_21
	goto	u234_20
u234_21:
	goto	i1l2255
u234_20:
	line	58
	
i1l2251:	
	movlw	0x0
	movwf	(?___ftdiv)
	movlw	0x0
	movwf	(?___ftdiv+1)
	movlw	0x0
	movwf	(?___ftdiv+2)
	goto	i1l770
	
i1l2253:	
	goto	i1l770
	
i1l771:	
	line	59
	
i1l2255:	
	movlw	0
	movwf	(___ftdiv@f3)
	movlw	0
	movwf	(___ftdiv@f3+1)
	movlw	0
	movwf	(___ftdiv@f3+2)
	line	60
	
i1l2257:	
	movlw	(089h)
	addwf	(___ftdiv@sign),w
	movwf	(??___ftdiv+0)+0
	movf	0+(??___ftdiv+0)+0,w
	subwf	(___ftdiv@exp),f
	line	61
	
i1l2259:	
	movf	(___ftdiv@f1),w
	movwf	((??___ftdiv+0)+0)
	movf	(___ftdiv@f1+1),w
	movwf	((??___ftdiv+0)+0+1)
	movf	(___ftdiv@f1+2),w
	movwf	((??___ftdiv+0)+0+2)
	movlw	010h
u235_25:
	clrc
	rrf	(??___ftdiv+0)+2,f
	rrf	(??___ftdiv+0)+1,f
	rrf	(??___ftdiv+0)+0,f
u235_20:
	addlw	-1
	skipz
	goto	u235_25
	movf	0+(??___ftdiv+0)+0,w
	movwf	(??___ftdiv+3)+0
	movf	(??___ftdiv+3)+0,w
	movwf	(___ftdiv@sign)
	line	62
	
i1l2261:	
	movf	(___ftdiv@f2),w
	movwf	((??___ftdiv+0)+0)
	movf	(___ftdiv@f2+1),w
	movwf	((??___ftdiv+0)+0+1)
	movf	(___ftdiv@f2+2),w
	movwf	((??___ftdiv+0)+0+2)
	movlw	010h
u236_25:
	clrc
	rrf	(??___ftdiv+0)+2,f
	rrf	(??___ftdiv+0)+1,f
	rrf	(??___ftdiv+0)+0,f
u236_20:
	addlw	-1
	skipz
	goto	u236_25
	movf	0+(??___ftdiv+0)+0,w
	movwf	(??___ftdiv+3)+0
	movf	(??___ftdiv+3)+0,w
	xorwf	(___ftdiv@sign),f
	line	63
	
i1l2263:	
	movlw	(080h)
	movwf	(??___ftdiv+0)+0
	movf	(??___ftdiv+0)+0,w
	andwf	(___ftdiv@sign),f
	line	64
	
i1l2265:	
	bsf	(___ftdiv@f1)+(15/8),(15)&7
	line	65
	movlw	0FFh
	andwf	(___ftdiv@f1),f
	movlw	0FFh
	andwf	(___ftdiv@f1+1),f
	movlw	0
	andwf	(___ftdiv@f1+2),f
	line	66
	
i1l2267:	
	bsf	(___ftdiv@f2)+(15/8),(15)&7
	line	67
	movlw	0FFh
	andwf	(___ftdiv@f2),f
	movlw	0FFh
	andwf	(___ftdiv@f2+1),f
	movlw	0
	andwf	(___ftdiv@f2+2),f
	line	68
	movlw	(018h)
	movwf	(??___ftdiv+0)+0
	movf	(??___ftdiv+0)+0,w
	movwf	(___ftdiv@cntr)
	goto	i1l2269
	line	69
	
i1l772:	
	line	70
	
i1l2269:	
	movlw	01h
u237_25:
	clrc
	rlf	(___ftdiv@f3),f
	rlf	(___ftdiv@f3+1),f
	rlf	(___ftdiv@f3+2),f
	addlw	-1
	skipz
	goto	u237_25
	line	71
	
i1l2271:	
	movf	(___ftdiv@f2+2),w
	subwf	(___ftdiv@f1+2),w
	skipz
	goto	u238_25
	movf	(___ftdiv@f2+1),w
	subwf	(___ftdiv@f1+1),w
	skipz
	goto	u238_25
	movf	(___ftdiv@f2),w
	subwf	(___ftdiv@f1),w
u238_25:
	skipc
	goto	u238_21
	goto	u238_20
u238_21:
	goto	i1l2277
u238_20:
	line	72
	
i1l2273:	
	movf	(___ftdiv@f2),w
	subwf	(___ftdiv@f1),f
	movf	(___ftdiv@f2+1),w
	skipc
	incfsz	(___ftdiv@f2+1),w
	subwf	(___ftdiv@f1+1),f
	movf	(___ftdiv@f2+2),w
	skipc
	incf	(___ftdiv@f2+2),w
	subwf	(___ftdiv@f1+2),f
	line	73
	
i1l2275:	
	bsf	(___ftdiv@f3)+(0/8),(0)&7
	goto	i1l2277
	line	74
	
i1l773:	
	line	75
	
i1l2277:	
	movlw	01h
u239_25:
	clrc
	rlf	(___ftdiv@f1),f
	rlf	(___ftdiv@f1+1),f
	rlf	(___ftdiv@f1+2),f
	addlw	-1
	skipz
	goto	u239_25
	line	76
	
i1l2279:	
	movlw	low(01h)
	subwf	(___ftdiv@cntr),f
	btfss	status,2
	goto	u240_21
	goto	u240_20
u240_21:
	goto	i1l2269
u240_20:
	goto	i1l2281
	
i1l774:	
	line	77
	
i1l2281:	
	movf	(___ftdiv@f3),w
	movwf	(___ftpack@arg)
	movf	(___ftdiv@f3+1),w
	movwf	(___ftpack@arg+1)
	movf	(___ftdiv@f3+2),w
	movwf	(___ftpack@arg+2)
	movf	(___ftdiv@exp),w
	movwf	(??___ftdiv+0)+0
	movf	(??___ftdiv+0)+0,w
	movwf	(___ftpack@exp)
	movf	(___ftdiv@sign),w
	movwf	(??___ftdiv+1)+0
	movf	(??___ftdiv+1)+0,w
	movwf	(___ftpack@sign)
	fcall	___ftpack
	movf	(0+(?___ftpack)),w
	bcf	status, 5	;RP0=0, select bank0
	bcf	status, 6	;RP1=0, select bank0
	movwf	(?___ftdiv)
	movf	(1+(?___ftpack)),w
	movwf	(?___ftdiv+1)
	movf	(2+(?___ftpack)),w
	movwf	(?___ftdiv+2)
	goto	i1l770
	
i1l2283:	
	line	78
	
i1l770:	
	return
	opt stack 0
GLOBAL	__end_of___ftdiv
	__end_of___ftdiv:
	signat	___ftdiv,8315
	global	___ftadd

;; *************** function ___ftadd *****************
;; Defined at:
;;		line 86 in file "C:\Program Files (x86)\Microchip\xc8\v1.33\sources\common\ftadd.c"
;; Parameters:    Size  Location     Type
;;  f1              3    3[BANK0 ] float 
;;  f2              3    6[BANK0 ] float 
;; Auto vars:     Size  Location     Type
;;  exp1            1   15[BANK0 ] unsigned char 
;;  exp2            1   14[BANK0 ] unsigned char 
;;  sign            1   13[BANK0 ] unsigned char 
;; Return value:  Size  Location     Type
;;                  3    3[BANK0 ] float 
;; Registers used:
;;		wreg, status,2, status,0, pclath, cstack
;; Tracked objects:
;;		On entry : 0/0
;;		On exit  : 0/0
;;		Unchanged: 0/0
;; Data sizes:     COMMON   BANK0   BANK1   BANK3   BANK2
;;      Params:         0       6       0       0       0
;;      Locals:         0       3       0       0       0
;;      Temps:          0       4       0       0       0
;;      Totals:         0      13       0       0       0
;;Total ram usage:       13 bytes
;; Hardware stack levels used:    1
;; Hardware stack levels required when called:    1
;; This function calls:
;;		___ftpack
;; This function is called by:
;;		_trimf
;;		_ISR
;; This function uses a non-reentrant model
;;
psect	text28,local,class=CODE,delta=2,merge=1
	file	"C:\Program Files (x86)\Microchip\xc8\v1.33\sources\common\ftadd.c"
	line	86
global __ptext28
__ptext28:	;psect for function ___ftadd
psect	text28
	file	"C:\Program Files (x86)\Microchip\xc8\v1.33\sources\common\ftadd.c"
	line	86
	global	__size_of___ftadd
	__size_of___ftadd	equ	__end_of___ftadd-___ftadd
	
___ftadd:	
;incstack = 0
	opt	stack 2
; Regs used in ___ftadd: [wreg+status,2+status,0+pclath+cstack]
	line	90
	
i1l2171:	
	bcf	status, 5	;RP0=0, select bank0
	bcf	status, 6	;RP1=0, select bank0
	movf	(___ftadd@f1),w
	movwf	((??___ftadd+0)+0)
	movf	(___ftadd@f1+1),w
	movwf	((??___ftadd+0)+0+1)
	movf	(___ftadd@f1+2),w
	movwf	((??___ftadd+0)+0+2)
	clrc
	rlf	(??___ftadd+0)+1,w
	rlf	(??___ftadd+0)+2,w
	movwf	(??___ftadd+3)+0
	movf	(??___ftadd+3)+0,w
	movwf	(___ftadd@exp1)
	line	91
	movf	(___ftadd@f2),w
	movwf	((??___ftadd+0)+0)
	movf	(___ftadd@f2+1),w
	movwf	((??___ftadd+0)+0+1)
	movf	(___ftadd@f2+2),w
	movwf	((??___ftadd+0)+0+2)
	clrc
	rlf	(??___ftadd+0)+1,w
	rlf	(??___ftadd+0)+2,w
	movwf	(??___ftadd+3)+0
	movf	(??___ftadd+3)+0,w
	movwf	(___ftadd@exp2)
	line	92
	
i1l2173:	
	movf	(___ftadd@exp1),w
	skipz
	goto	u209_20
	goto	i1l2179
u209_20:
	
i1l2175:	
	movf	(___ftadd@exp2),w
	subwf	(___ftadd@exp1),w
	skipnc
	goto	u210_21
	goto	u210_20
u210_21:
	goto	i1l2183
u210_20:
	
i1l2177:	
	decf	(___ftadd@exp1),w
	xorlw	0ffh
	addwf	(___ftadd@exp2),w
	movwf	(??___ftadd+0)+0
	movlw	(019h)
	subwf	0+(??___ftadd+0)+0,w
	skipc
	goto	u211_21
	goto	u211_20
u211_21:
	goto	i1l2183
u211_20:
	goto	i1l2179
	
i1l738:	
	line	93
	
i1l2179:	
	movf	(___ftadd@f2),w
	movwf	(?___ftadd)
	movf	(___ftadd@f2+1),w
	movwf	(?___ftadd+1)
	movf	(___ftadd@f2+2),w
	movwf	(?___ftadd+2)
	goto	i1l739
	
i1l2181:	
	goto	i1l739
	
i1l736:	
	line	94
	
i1l2183:	
	movf	(___ftadd@exp2),w
	skipz
	goto	u212_20
	goto	i1l742
u212_20:
	
i1l2185:	
	movf	(___ftadd@exp1),w
	subwf	(___ftadd@exp2),w
	skipnc
	goto	u213_21
	goto	u213_20
u213_21:
	goto	i1l2189
u213_20:
	
i1l2187:	
	decf	(___ftadd@exp2),w
	xorlw	0ffh
	addwf	(___ftadd@exp1),w
	movwf	(??___ftadd+0)+0
	movlw	(019h)
	subwf	0+(??___ftadd+0)+0,w
	skipc
	goto	u214_21
	goto	u214_20
u214_21:
	goto	i1l2189
u214_20:
	
i1l742:	
	line	95
	goto	i1l739
	
i1l740:	
	line	96
	
i1l2189:	
	movlw	(06h)
	movwf	(??___ftadd+0)+0
	movf	(??___ftadd+0)+0,w
	movwf	(___ftadd@sign)
	line	97
	
i1l2191:	
	btfss	(___ftadd@f1+2),(23)&7
	goto	u215_21
	goto	u215_20
u215_21:
	goto	i1l743
u215_20:
	line	98
	
i1l2193:	
	bsf	(___ftadd@sign)+(7/8),(7)&7
	
i1l743:	
	line	99
	btfss	(___ftadd@f2+2),(23)&7
	goto	u216_21
	goto	u216_20
u216_21:
	goto	i1l744
u216_20:
	line	100
	
i1l2195:	
	bsf	(___ftadd@sign)+(6/8),(6)&7
	
i1l744:	
	line	101
	bsf	(___ftadd@f1)+(15/8),(15)&7
	line	102
	
i1l2197:	
	movlw	0FFh
	andwf	(___ftadd@f1),f
	movlw	0FFh
	andwf	(___ftadd@f1+1),f
	movlw	0
	andwf	(___ftadd@f1+2),f
	line	103
	
i1l2199:	
	bsf	(___ftadd@f2)+(15/8),(15)&7
	line	104
	movlw	0FFh
	andwf	(___ftadd@f2),f
	movlw	0FFh
	andwf	(___ftadd@f2+1),f
	movlw	0
	andwf	(___ftadd@f2+2),f
	line	106
	movf	(___ftadd@exp2),w
	subwf	(___ftadd@exp1),w
	skipnc
	goto	u217_21
	goto	u217_20
u217_21:
	goto	i1l2211
u217_20:
	goto	i1l2201
	line	109
	
i1l746:	
	line	110
	
i1l2201:	
	movlw	01h
u218_25:
	clrc
	rlf	(___ftadd@f2),f
	rlf	(___ftadd@f2+1),f
	rlf	(___ftadd@f2+2),f
	addlw	-1
	skipz
	goto	u218_25
	line	111
	movlw	low(01h)
	subwf	(___ftadd@exp2),f
	line	112
	
i1l2203:	
	movf	(___ftadd@exp2),w
	xorwf	(___ftadd@exp1),w
	skipnz
	goto	u219_21
	goto	u219_20
u219_21:
	goto	i1l2209
u219_20:
	
i1l2205:	
	movlw	low(01h)
	subwf	(___ftadd@sign),f
	movf	((___ftadd@sign)),w
	andlw	07h
	btfss	status,2
	goto	u220_21
	goto	u220_20
u220_21:
	goto	i1l2201
u220_20:
	goto	i1l2209
	
i1l748:	
	goto	i1l2209
	
i1l749:	
	line	113
	goto	i1l2209
	
i1l751:	
	line	114
	
i1l2207:	
	movlw	01h
u221_25:
	clrc
	rrf	(___ftadd@f1+2),f
	rrf	(___ftadd@f1+1),f
	rrf	(___ftadd@f1),f
	addlw	-1
	skipz
	goto	u221_25

	line	115
	movlw	(01h)
	movwf	(??___ftadd+0)+0
	movf	(??___ftadd+0)+0,w
	addwf	(___ftadd@exp1),f
	goto	i1l2209
	line	116
	
i1l750:	
	line	113
	
i1l2209:	
	movf	(___ftadd@exp1),w
	xorwf	(___ftadd@exp2),w
	skipz
	goto	u222_21
	goto	u222_20
u222_21:
	goto	i1l2207
u222_20:
	goto	i1l753
	
i1l752:	
	line	117
	goto	i1l753
	
i1l745:	
	
i1l2211:	
	movf	(___ftadd@exp1),w
	subwf	(___ftadd@exp2),w
	skipnc
	goto	u223_21
	goto	u223_20
u223_21:
	goto	i1l753
u223_20:
	goto	i1l2213
	line	120
	
i1l755:	
	line	121
	
i1l2213:	
	movlw	01h
u224_25:
	clrc
	rlf	(___ftadd@f1),f
	rlf	(___ftadd@f1+1),f
	rlf	(___ftadd@f1+2),f
	addlw	-1
	skipz
	goto	u224_25
	line	122
	movlw	low(01h)
	subwf	(___ftadd@exp1),f
	line	123
	
i1l2215:	
	movf	(___ftadd@exp2),w
	xorwf	(___ftadd@exp1),w
	skipnz
	goto	u225_21
	goto	u225_20
u225_21:
	goto	i1l2221
u225_20:
	
i1l2217:	
	movlw	low(01h)
	subwf	(___ftadd@sign),f
	movf	((___ftadd@sign)),w
	andlw	07h
	btfss	status,2
	goto	u226_21
	goto	u226_20
u226_21:
	goto	i1l2213
u226_20:
	goto	i1l2221
	
i1l757:	
	goto	i1l2221
	
i1l758:	
	line	124
	goto	i1l2221
	
i1l760:	
	line	125
	
i1l2219:	
	movlw	01h
u227_25:
	clrc
	rrf	(___ftadd@f2+2),f
	rrf	(___ftadd@f2+1),f
	rrf	(___ftadd@f2),f
	addlw	-1
	skipz
	goto	u227_25

	line	126
	movlw	(01h)
	movwf	(??___ftadd+0)+0
	movf	(??___ftadd+0)+0,w
	addwf	(___ftadd@exp2),f
	goto	i1l2221
	line	127
	
i1l759:	
	line	124
	
i1l2221:	
	movf	(___ftadd@exp1),w
	xorwf	(___ftadd@exp2),w
	skipz
	goto	u228_21
	goto	u228_20
u228_21:
	goto	i1l2219
u228_20:
	goto	i1l753
	
i1l761:	
	goto	i1l753
	line	128
	
i1l754:	
	line	129
	
i1l753:	
	btfss	(___ftadd@sign),(7)&7
	goto	u229_21
	goto	u229_20
u229_21:
	goto	i1l2225
u229_20:
	line	131
	
i1l2223:	
	movlw	0FFh
	xorwf	(___ftadd@f1),f
	movlw	0FFh
	xorwf	(___ftadd@f1+1),f
	movlw	0FFh
	xorwf	(___ftadd@f1+2),f
	line	132
	movlw	01h
	addwf	(___ftadd@f1),f
	movlw	0
	skipnc
movlw 1
	addwf	(___ftadd@f1+1),f
	movlw	0
	skipnc
movlw 1
	addwf	(___ftadd@f1+2),f
	goto	i1l2225
	line	133
	
i1l762:	
	line	134
	
i1l2225:	
	btfss	(___ftadd@sign),(6)&7
	goto	u230_21
	goto	u230_20
u230_21:
	goto	i1l2229
u230_20:
	line	136
	
i1l2227:	
	movlw	0FFh
	xorwf	(___ftadd@f2),f
	movlw	0FFh
	xorwf	(___ftadd@f2+1),f
	movlw	0FFh
	xorwf	(___ftadd@f2+2),f
	line	137
	movlw	01h
	addwf	(___ftadd@f2),f
	movlw	0
	skipnc
movlw 1
	addwf	(___ftadd@f2+1),f
	movlw	0
	skipnc
movlw 1
	addwf	(___ftadd@f2+2),f
	goto	i1l2229
	line	138
	
i1l763:	
	line	139
	
i1l2229:	
	clrf	(___ftadd@sign)
	line	140
	
i1l2231:	
	movf	(___ftadd@f1),w
	addwf	(___ftadd@f2),f
	movf	(___ftadd@f1+1),w
	clrz
	skipnc
	incf	(___ftadd@f1+1),w
	skipnz
	goto	u231_21
	addwf	(___ftadd@f2+1),f
u231_21:
	movf	(___ftadd@f1+2),w
	clrz
	skipnc
	incf	(___ftadd@f1+2),w
	skipnz
	goto	u231_22
	addwf	(___ftadd@f2+2),f
u231_22:

	line	141
	
i1l2233:	
	btfss	(___ftadd@f2+2),(23)&7
	goto	u232_21
	goto	u232_20
u232_21:
	goto	i1l2239
u232_20:
	line	142
	
i1l2235:	
	movlw	0FFh
	xorwf	(___ftadd@f2),f
	movlw	0FFh
	xorwf	(___ftadd@f2+1),f
	movlw	0FFh
	xorwf	(___ftadd@f2+2),f
	line	143
	movlw	01h
	addwf	(___ftadd@f2),f
	movlw	0
	skipnc
movlw 1
	addwf	(___ftadd@f2+1),f
	movlw	0
	skipnc
movlw 1
	addwf	(___ftadd@f2+2),f
	line	144
	
i1l2237:	
	clrf	(___ftadd@sign)
	incf	(___ftadd@sign),f
	goto	i1l2239
	line	145
	
i1l764:	
	line	146
	
i1l2239:	
	movf	(___ftadd@f2),w
	movwf	(___ftpack@arg)
	movf	(___ftadd@f2+1),w
	movwf	(___ftpack@arg+1)
	movf	(___ftadd@f2+2),w
	movwf	(___ftpack@arg+2)
	movf	(___ftadd@exp1),w
	movwf	(??___ftadd+0)+0
	movf	(??___ftadd+0)+0,w
	movwf	(___ftpack@exp)
	movf	(___ftadd@sign),w
	movwf	(??___ftadd+1)+0
	movf	(??___ftadd+1)+0,w
	movwf	(___ftpack@sign)
	fcall	___ftpack
	movf	(0+(?___ftpack)),w
	bcf	status, 5	;RP0=0, select bank0
	bcf	status, 6	;RP1=0, select bank0
	movwf	(?___ftadd)
	movf	(1+(?___ftpack)),w
	movwf	(?___ftadd+1)
	movf	(2+(?___ftpack)),w
	movwf	(?___ftadd+2)
	goto	i1l739
	
i1l2241:	
	line	148
	
i1l739:	
	return
	opt stack 0
GLOBAL	__end_of___ftadd
	__end_of___ftadd:
	signat	___ftadd,8315
	global	_send

;; *************** function _send *****************
;; Defined at:
;;		line 76 in file "E:\projeto-fuzzy-rpm\firmware\main.c"
;; Parameters:    Size  Location     Type
;;		None
;; Auto vars:     Size  Location     Type
;;  index           1    3[COMMON] unsigned char 
;;  checksum        1    2[COMMON] unsigned char 
;; Return value:  Size  Location     Type
;;		None               void
;; Registers used:
;;		wreg, fsr0l, fsr0h, status,2, status,0, pclath, cstack
;; Tracked objects:
;;		On entry : 0/0
;;		On exit  : 0/0
;;		Unchanged: 0/0
;; Data sizes:     COMMON   BANK0   BANK1   BANK3   BANK2
;;      Params:         0       0       0       0       0
;;      Locals:         2       0       0       0       0
;;      Temps:          1       0       0       0       0
;;      Totals:         3       0       0       0       0
;;Total ram usage:        3 bytes
;; Hardware stack levels used:    1
;; Hardware stack levels required when called:    1
;; This function calls:
;;		_USART_WriteChar
;; This function is called by:
;;		_ISR
;; This function uses a non-reentrant model
;;
psect	text29,local,class=CODE,delta=2,merge=1
	file	"E:\projeto-fuzzy-rpm\firmware\main.c"
	line	76
global __ptext29
__ptext29:	;psect for function _send
psect	text29
	file	"E:\projeto-fuzzy-rpm\firmware\main.c"
	line	76
	global	__size_of_send
	__size_of_send	equ	__end_of_send-_send
	
_send:	
;incstack = 0
	opt	stack 3
; Regs used in _send: [wreg-fsr0h+status,2+status,0+pclath+cstack]
	line	80
	
i1l2385:	
;main.c: 80: buffer[0] = '#';
	movlw	(023h)
	movwf	(??_send+0)+0
	movf	(??_send+0)+0,w
	bsf	status, 5	;RP0=1, select bank3
	bsf	status, 6	;RP1=1, select bank3
	movwf	(_buffer)^0180h
	line	81
;main.c: 81: buffer[1] = '$';
	movlw	(024h)
	movwf	(??_send+0)+0
	movf	(??_send+0)+0,w
	movwf	0+(_buffer)^0180h+01h
	line	82
;main.c: 82: buffer[2] = ':';
	movlw	(03Ah)
	movwf	(??_send+0)+0
	movf	(??_send+0)+0,w
	movwf	0+(_buffer)^0180h+02h
	line	85
	
i1l2387:	
;main.c: 85: buffer[3] = (rpm >> 8) & 0xFF;
	bsf	status, 5	;RP0=1, select bank1
	bcf	status, 6	;RP1=0, select bank1
	movf	(_rpm+1)^080h,w
	movwf	(??_send+0)+0
	movf	(??_send+0)+0,w
	bsf	status, 5	;RP0=1, select bank3
	bsf	status, 6	;RP1=1, select bank3
	movwf	0+(_buffer)^0180h+03h
	line	86
	
i1l2389:	
;main.c: 86: buffer[4] = rpm & 0xFF;
	bsf	status, 5	;RP0=1, select bank1
	bcf	status, 6	;RP1=0, select bank1
	movf	(_rpm)^080h,w
	movwf	(??_send+0)+0
	movf	(??_send+0)+0,w
	bsf	status, 5	;RP0=1, select bank3
	bsf	status, 6	;RP1=1, select bank3
	movwf	0+(_buffer)^0180h+04h
	line	87
	
i1l2391:	
;main.c: 87: buffer[5] = 0;
	clrf	0+(_buffer)^0180h+05h
	line	89
	
i1l2393:	
;main.c: 89: unsigned char checksum = 0x00;
	clrf	(send@checksum)
	line	90
	
i1l2395:	
;main.c: 90: for (unsigned char index = 0; index < 6; index++)
	clrf	(send@index)
	movlw	(06h)
	subwf	(send@index),w
	skipc
	goto	u266_21
	goto	u266_20
u266_21:
	goto	i1l2399
u266_20:
	goto	i1l2407
	
i1l2397:	
	goto	i1l2407
	line	91
	
i1l119:	
	line	92
	
i1l2399:	
;main.c: 91: {
;main.c: 92: USART_WriteChar(buffer[index]);
	movf	(send@index),w
	addlw	_buffer&0ffh
	movwf	fsr0
	bsf	status, 7	;select IRP bank3
	movf	indf,w
	fcall	_USART_WriteChar
	line	93
	
i1l2401:	
;main.c: 93: checksum ^= buffer[index];
	movf	(send@index),w
	addlw	_buffer&0ffh
	movwf	fsr0
	bsf	status, 7	;select IRP bank3
	movf	indf,w
	movwf	(??_send+0)+0
	movf	(??_send+0)+0,w
	xorwf	(send@checksum),f
	line	90
	
i1l2403:	
	movlw	(01h)
	movwf	(??_send+0)+0
	movf	(??_send+0)+0,w
	addwf	(send@index),f
	
i1l2405:	
	movlw	(06h)
	subwf	(send@index),w
	skipc
	goto	u267_21
	goto	u267_20
u267_21:
	goto	i1l2399
u267_20:
	goto	i1l2407
	
i1l120:	
	line	95
	
i1l2407:	
;main.c: 94: }
;main.c: 95: buffer[6] = checksum;
	movf	(send@checksum),w
	movwf	(??_send+0)+0
	movf	(??_send+0)+0,w
	bsf	status, 5	;RP0=1, select bank3
	bsf	status, 6	;RP1=1, select bank3
	movwf	0+(_buffer)^0180h+06h
	line	96
	
i1l2409:	
;main.c: 96: USART_WriteChar(buffer[6]);
	movf	0+(_buffer)^0180h+06h,w
	fcall	_USART_WriteChar
	line	97
	
i1l121:	
	return
	opt stack 0
GLOBAL	__end_of_send
	__end_of_send:
	signat	_send,88
	global	___lwtoft

;; *************** function ___lwtoft *****************
;; Defined at:
;;		line 28 in file "C:\Program Files (x86)\Microchip\xc8\v1.33\sources\common\lwtoft.c"
;; Parameters:    Size  Location     Type
;;  c               2    8[COMMON] unsigned int 
;; Auto vars:     Size  Location     Type
;;		None
;; Return value:  Size  Location     Type
;;                  3    8[COMMON] float 
;; Registers used:
;;		wreg, status,2, status,0, pclath, cstack
;; Tracked objects:
;;		On entry : 0/0
;;		On exit  : 0/0
;;		Unchanged: 0/0
;; Data sizes:     COMMON   BANK0   BANK1   BANK3   BANK2
;;      Params:         3       0       0       0       0
;;      Locals:         0       0       0       0       0
;;      Temps:          1       0       0       0       0
;;      Totals:         4       0       0       0       0
;;Total ram usage:        4 bytes
;; Hardware stack levels used:    1
;; Hardware stack levels required when called:    1
;; This function calls:
;;		___ftpack
;; This function is called by:
;;		_ISR
;; This function uses a non-reentrant model
;;
psect	text30,local,class=CODE,delta=2,merge=1
	file	"C:\Program Files (x86)\Microchip\xc8\v1.33\sources\common\lwtoft.c"
	line	28
global __ptext30
__ptext30:	;psect for function ___lwtoft
psect	text30
	file	"C:\Program Files (x86)\Microchip\xc8\v1.33\sources\common\lwtoft.c"
	line	28
	global	__size_of___lwtoft
	__size_of___lwtoft	equ	__end_of___lwtoft-___lwtoft
	
___lwtoft:	
;incstack = 0
	opt	stack 3
; Regs used in ___lwtoft: [wreg+status,2+status,0+pclath+cstack]
	line	30
	
i1l2785:	
	movf	(___lwtoft@c),w
	movwf	(___ftpack@arg)
	movf	(___lwtoft@c+1),w
	movwf	(___ftpack@arg+1)
	clrf	(___ftpack@arg+2)
	movlw	(08Eh)
	movwf	(??___lwtoft+0)+0
	movf	(??___lwtoft+0)+0,w
	movwf	(___ftpack@exp)
	clrf	(___ftpack@sign)
	fcall	___ftpack
	movf	(0+(?___ftpack)),w
	movwf	(?___lwtoft)
	movf	(1+(?___ftpack)),w
	movwf	(?___lwtoft+1)
	movf	(2+(?___ftpack)),w
	movwf	(?___lwtoft+2)
	goto	i1l919
	
i1l2787:	
	line	31
	
i1l919:	
	return
	opt stack 0
GLOBAL	__end_of___lwtoft
	__end_of___lwtoft:
	signat	___lwtoft,4219
	global	___fttol

;; *************** function ___fttol *****************
;; Defined at:
;;		line 44 in file "C:\Program Files (x86)\Microchip\xc8\v1.33\sources\common\fttol.c"
;; Parameters:    Size  Location     Type
;;  f1              3   48[BANK0 ] float 
;; Auto vars:     Size  Location     Type
;;  lval            4   57[BANK0 ] unsigned long 
;;  exp1            1   61[BANK0 ] unsigned char 
;;  sign1           1   56[BANK0 ] unsigned char 
;; Return value:  Size  Location     Type
;;                  4   48[BANK0 ] long 
;; Registers used:
;;		wreg, status,2, status,0
;; Tracked objects:
;;		On entry : 0/0
;;		On exit  : 0/0
;;		Unchanged: 0/0
;; Data sizes:     COMMON   BANK0   BANK1   BANK3   BANK2
;;      Params:         0       4       0       0       0
;;      Locals:         0       6       0       0       0
;;      Temps:          0       4       0       0       0
;;      Totals:         0      14       0       0       0
;;Total ram usage:       14 bytes
;; Hardware stack levels used:    1
;; This function calls:
;;		Nothing
;; This function is called by:
;;		_ISR
;; This function uses a non-reentrant model
;;
psect	text31,local,class=CODE,delta=2,merge=1
	file	"C:\Program Files (x86)\Microchip\xc8\v1.33\sources\common\fttol.c"
	line	44
global __ptext31
__ptext31:	;psect for function ___fttol
psect	text31
	file	"C:\Program Files (x86)\Microchip\xc8\v1.33\sources\common\fttol.c"
	line	44
	global	__size_of___fttol
	__size_of___fttol	equ	__end_of___fttol-___fttol
	
___fttol:	
;incstack = 0
	opt	stack 4
; Regs used in ___fttol: [wreg+status,2+status,0]
	line	49
	
i1l2741:	
	bcf	status, 5	;RP0=0, select bank0
	bcf	status, 6	;RP1=0, select bank0
	movf	(___fttol@f1),w
	movwf	((??___fttol+0)+0)
	movf	(___fttol@f1+1),w
	movwf	((??___fttol+0)+0+1)
	movf	(___fttol@f1+2),w
	movwf	((??___fttol+0)+0+2)
	clrc
	rlf	(??___fttol+0)+1,w
	rlf	(??___fttol+0)+2,w
	movwf	(??___fttol+3)+0
	movf	(??___fttol+3)+0,w
	movwf	(___fttol@exp1)
	movf	((___fttol@exp1)),f
	skipz
	goto	u308_21
	goto	u308_20
u308_21:
	goto	i1l2747
u308_20:
	line	50
	
i1l2743:	
	movlw	0
	movwf	(?___fttol+3)
	movlw	0
	movwf	(?___fttol+2)
	movlw	0
	movwf	(?___fttol+1)
	movlw	0
	movwf	(?___fttol)

	goto	i1l805
	
i1l2745:	
	goto	i1l805
	
i1l804:	
	line	51
	
i1l2747:	
	movf	(___fttol@f1),w
	movwf	((??___fttol+0)+0)
	movf	(___fttol@f1+1),w
	movwf	((??___fttol+0)+0+1)
	movf	(___fttol@f1+2),w
	movwf	((??___fttol+0)+0+2)
	movlw	017h
u309_25:
	clrc
	rrf	(??___fttol+0)+2,f
	rrf	(??___fttol+0)+1,f
	rrf	(??___fttol+0)+0,f
u309_20:
	addlw	-1
	skipz
	goto	u309_25
	movf	0+(??___fttol+0)+0,w
	movwf	(??___fttol+3)+0
	movf	(??___fttol+3)+0,w
	movwf	(___fttol@sign1)
	line	52
	
i1l2749:	
	bsf	(___fttol@f1)+(15/8),(15)&7
	line	53
	
i1l2751:	
	movlw	0FFh
	andwf	(___fttol@f1),f
	movlw	0FFh
	andwf	(___fttol@f1+1),f
	movlw	0
	andwf	(___fttol@f1+2),f
	line	54
	
i1l2753:	
	movf	(___fttol@f1),w
	movwf	(___fttol@lval)
	movf	(___fttol@f1+1),w
	movwf	((___fttol@lval))+1
	movf	(___fttol@f1+2),w
	movwf	((___fttol@lval))+2
	clrf	((___fttol@lval))+3
	line	55
	
i1l2755:	
	movlw	low(08Eh)
	subwf	(___fttol@exp1),f
	line	56
	
i1l2757:	
	btfss	(___fttol@exp1),7
	goto	u310_21
	goto	u310_20
u310_21:
	goto	i1l2767
u310_20:
	line	57
	
i1l2759:	
	movf	(___fttol@exp1),w
	xorlw	80h
	addlw	-((-15)^80h)
	skipnc
	goto	u311_21
	goto	u311_20
u311_21:
	goto	i1l2765
u311_20:
	line	58
	
i1l2761:	
	movlw	0
	movwf	(?___fttol+3)
	movlw	0
	movwf	(?___fttol+2)
	movlw	0
	movwf	(?___fttol+1)
	movlw	0
	movwf	(?___fttol)

	goto	i1l805
	
i1l2763:	
	goto	i1l805
	
i1l807:	
	goto	i1l2765
	line	59
	
i1l808:	
	line	60
	
i1l2765:	
	movlw	01h
u312_25:
	clrc
	rrf	(___fttol@lval+3),f
	rrf	(___fttol@lval+2),f
	rrf	(___fttol@lval+1),f
	rrf	(___fttol@lval),f
	addlw	-1
	skipz
	goto	u312_25

	line	61
	movlw	(01h)
	movwf	(??___fttol+0)+0
	movf	(??___fttol+0)+0,w
	addwf	(___fttol@exp1),f
	btfss	status,2
	goto	u313_21
	goto	u313_20
u313_21:
	goto	i1l2765
u313_20:
	goto	i1l2777
	
i1l809:	
	line	62
	goto	i1l2777
	
i1l806:	
	line	63
	
i1l2767:	
	movlw	(018h)
	subwf	(___fttol@exp1),w
	skipc
	goto	u314_21
	goto	u314_20
u314_21:
	goto	i1l2775
u314_20:
	line	64
	
i1l2769:	
	movlw	0
	movwf	(?___fttol+3)
	movlw	0
	movwf	(?___fttol+2)
	movlw	0
	movwf	(?___fttol+1)
	movlw	0
	movwf	(?___fttol)

	goto	i1l805
	
i1l2771:	
	goto	i1l805
	
i1l811:	
	line	65
	goto	i1l2775
	
i1l813:	
	line	66
	
i1l2773:	
	movlw	01h
	movwf	(??___fttol+0)+0
u315_25:
	clrc
	rlf	(___fttol@lval),f
	rlf	(___fttol@lval+1),f
	rlf	(___fttol@lval+2),f
	rlf	(___fttol@lval+3),f
	decfsz	(??___fttol+0)+0
	goto	u315_25
	line	67
	movlw	low(01h)
	subwf	(___fttol@exp1),f
	goto	i1l2775
	line	68
	
i1l812:	
	line	65
	
i1l2775:	
	movf	(___fttol@exp1),f
	skipz
	goto	u316_21
	goto	u316_20
u316_21:
	goto	i1l2773
u316_20:
	goto	i1l2777
	
i1l814:	
	goto	i1l2777
	line	69
	
i1l810:	
	line	70
	
i1l2777:	
	movf	(___fttol@sign1),w
	skipz
	goto	u317_20
	goto	i1l2781
u317_20:
	line	71
	
i1l2779:	
	comf	(___fttol@lval),f
	comf	(___fttol@lval+1),f
	comf	(___fttol@lval+2),f
	comf	(___fttol@lval+3),f
	incf	(___fttol@lval),f
	skipnz
	incf	(___fttol@lval+1),f
	skipnz
	incf	(___fttol@lval+2),f
	skipnz
	incf	(___fttol@lval+3),f
	goto	i1l2781
	
i1l815:	
	line	72
	
i1l2781:	
	movf	(___fttol@lval+3),w
	movwf	(?___fttol+3)
	movf	(___fttol@lval+2),w
	movwf	(?___fttol+2)
	movf	(___fttol@lval+1),w
	movwf	(?___fttol+1)
	movf	(___fttol@lval),w
	movwf	(?___fttol)

	goto	i1l805
	
i1l2783:	
	line	73
	
i1l805:	
	return
	opt stack 0
GLOBAL	__end_of___fttol
	__end_of___fttol:
	signat	___fttol,4220
	global	___ftmul

;; *************** function ___ftmul *****************
;; Defined at:
;;		line 62 in file "C:\Program Files (x86)\Microchip\xc8\v1.33\sources\common\ftmul.c"
;; Parameters:    Size  Location     Type
;;  f1              3   32[BANK0 ] float 
;;  f2              3   35[BANK0 ] float 
;; Auto vars:     Size  Location     Type
;;  f3_as_produc    3   43[BANK0 ] unsigned um
;;  sign            1   47[BANK0 ] unsigned char 
;;  cntr            1   46[BANK0 ] unsigned char 
;;  exp             1   42[BANK0 ] unsigned char 
;; Return value:  Size  Location     Type
;;                  3   32[BANK0 ] float 
;; Registers used:
;;		wreg, status,2, status,0, pclath, cstack
;; Tracked objects:
;;		On entry : 0/0
;;		On exit  : 0/0
;;		Unchanged: 0/0
;; Data sizes:     COMMON   BANK0   BANK1   BANK3   BANK2
;;      Params:         0       6       0       0       0
;;      Locals:         0       6       0       0       0
;;      Temps:          0       4       0       0       0
;;      Totals:         0      16       0       0       0
;;Total ram usage:       16 bytes
;; Hardware stack levels used:    1
;; Hardware stack levels required when called:    1
;; This function calls:
;;		___ftpack
;; This function is called by:
;;		_ISR
;; This function uses a non-reentrant model
;;
psect	text32,local,class=CODE,delta=2,merge=1
	file	"C:\Program Files (x86)\Microchip\xc8\v1.33\sources\common\ftmul.c"
	line	62
global __ptext32
__ptext32:	;psect for function ___ftmul
psect	text32
	file	"C:\Program Files (x86)\Microchip\xc8\v1.33\sources\common\ftmul.c"
	line	62
	global	__size_of___ftmul
	__size_of___ftmul	equ	__end_of___ftmul-___ftmul
	
___ftmul:	
;incstack = 0
	opt	stack 3
; Regs used in ___ftmul: [wreg+status,2+status,0+pclath+cstack]
	line	67
	
i1l2691:	
	bcf	status, 5	;RP0=0, select bank0
	bcf	status, 6	;RP1=0, select bank0
	movf	(___ftmul@f1),w
	movwf	((??___ftmul+0)+0)
	movf	(___ftmul@f1+1),w
	movwf	((??___ftmul+0)+0+1)
	movf	(___ftmul@f1+2),w
	movwf	((??___ftmul+0)+0+2)
	clrc
	rlf	(??___ftmul+0)+1,w
	rlf	(??___ftmul+0)+2,w
	movwf	(??___ftmul+3)+0
	movf	(??___ftmul+3)+0,w
	movwf	(___ftmul@exp)
	movf	((___ftmul@exp)),f
	skipz
	goto	u294_21
	goto	u294_20
u294_21:
	goto	i1l2697
u294_20:
	line	68
	
i1l2693:	
	movlw	0x0
	movwf	(?___ftmul)
	movlw	0x0
	movwf	(?___ftmul+1)
	movlw	0x0
	movwf	(?___ftmul+2)
	goto	i1l785
	
i1l2695:	
	goto	i1l785
	
i1l784:	
	line	69
	
i1l2697:	
	movf	(___ftmul@f2),w
	movwf	((??___ftmul+0)+0)
	movf	(___ftmul@f2+1),w
	movwf	((??___ftmul+0)+0+1)
	movf	(___ftmul@f2+2),w
	movwf	((??___ftmul+0)+0+2)
	clrc
	rlf	(??___ftmul+0)+1,w
	rlf	(??___ftmul+0)+2,w
	movwf	(??___ftmul+3)+0
	movf	(??___ftmul+3)+0,w
	movwf	(___ftmul@sign)
	movf	((___ftmul@sign)),f
	skipz
	goto	u295_21
	goto	u295_20
u295_21:
	goto	i1l2703
u295_20:
	line	70
	
i1l2699:	
	movlw	0x0
	movwf	(?___ftmul)
	movlw	0x0
	movwf	(?___ftmul+1)
	movlw	0x0
	movwf	(?___ftmul+2)
	goto	i1l785
	
i1l2701:	
	goto	i1l785
	
i1l786:	
	line	71
	
i1l2703:	
	movf	(___ftmul@sign),w
	addlw	07Bh
	movwf	(??___ftmul+0)+0
	movf	(??___ftmul+0)+0,w
	addwf	(___ftmul@exp),f
	line	72
	movf	(___ftmul@f1),w
	movwf	((??___ftmul+0)+0)
	movf	(___ftmul@f1+1),w
	movwf	((??___ftmul+0)+0+1)
	movf	(___ftmul@f1+2),w
	movwf	((??___ftmul+0)+0+2)
	movlw	010h
u296_25:
	clrc
	rrf	(??___ftmul+0)+2,f
	rrf	(??___ftmul+0)+1,f
	rrf	(??___ftmul+0)+0,f
u296_20:
	addlw	-1
	skipz
	goto	u296_25
	movf	0+(??___ftmul+0)+0,w
	movwf	(??___ftmul+3)+0
	movf	(??___ftmul+3)+0,w
	movwf	(___ftmul@sign)
	line	73
	movf	(___ftmul@f2),w
	movwf	((??___ftmul+0)+0)
	movf	(___ftmul@f2+1),w
	movwf	((??___ftmul+0)+0+1)
	movf	(___ftmul@f2+2),w
	movwf	((??___ftmul+0)+0+2)
	movlw	010h
u297_25:
	clrc
	rrf	(??___ftmul+0)+2,f
	rrf	(??___ftmul+0)+1,f
	rrf	(??___ftmul+0)+0,f
u297_20:
	addlw	-1
	skipz
	goto	u297_25
	movf	0+(??___ftmul+0)+0,w
	movwf	(??___ftmul+3)+0
	movf	(??___ftmul+3)+0,w
	xorwf	(___ftmul@sign),f
	line	74
	movlw	(080h)
	movwf	(??___ftmul+0)+0
	movf	(??___ftmul+0)+0,w
	andwf	(___ftmul@sign),f
	line	75
	
i1l2705:	
	bsf	(___ftmul@f1)+(15/8),(15)&7
	line	77
	
i1l2707:	
	bsf	(___ftmul@f2)+(15/8),(15)&7
	line	78
	
i1l2709:	
	movlw	0FFh
	andwf	(___ftmul@f2),f
	movlw	0FFh
	andwf	(___ftmul@f2+1),f
	movlw	0
	andwf	(___ftmul@f2+2),f
	line	79
	
i1l2711:	
	movlw	0
	movwf	(___ftmul@f3_as_product)
	movlw	0
	movwf	(___ftmul@f3_as_product+1)
	movlw	0
	movwf	(___ftmul@f3_as_product+2)
	line	134
	
i1l2713:	
	movlw	(07h)
	movwf	(??___ftmul+0)+0
	movf	(??___ftmul+0)+0,w
	movwf	(___ftmul@cntr)
	goto	i1l2715
	line	135
	
i1l787:	
	line	136
	
i1l2715:	
	btfss	(___ftmul@f1),(0)&7
	goto	u298_21
	goto	u298_20
u298_21:
	goto	i1l2719
u298_20:
	line	137
	
i1l2717:	
	movf	(___ftmul@f2),w
	addwf	(___ftmul@f3_as_product),f
	movf	(___ftmul@f2+1),w
	clrz
	skipnc
	incf	(___ftmul@f2+1),w
	skipnz
	goto	u299_21
	addwf	(___ftmul@f3_as_product+1),f
u299_21:
	movf	(___ftmul@f2+2),w
	clrz
	skipnc
	incf	(___ftmul@f2+2),w
	skipnz
	goto	u299_22
	addwf	(___ftmul@f3_as_product+2),f
u299_22:

	goto	i1l2719
	
i1l788:	
	line	138
	
i1l2719:	
	movlw	01h
u300_25:
	clrc
	rrf	(___ftmul@f1+2),f
	rrf	(___ftmul@f1+1),f
	rrf	(___ftmul@f1),f
	addlw	-1
	skipz
	goto	u300_25

	line	139
	
i1l2721:	
	movlw	01h
u301_25:
	clrc
	rlf	(___ftmul@f2),f
	rlf	(___ftmul@f2+1),f
	rlf	(___ftmul@f2+2),f
	addlw	-1
	skipz
	goto	u301_25
	line	140
	
i1l2723:	
	movlw	low(01h)
	subwf	(___ftmul@cntr),f
	btfss	status,2
	goto	u302_21
	goto	u302_20
u302_21:
	goto	i1l2715
u302_20:
	goto	i1l2725
	
i1l789:	
	line	143
	
i1l2725:	
	movlw	(09h)
	movwf	(??___ftmul+0)+0
	movf	(??___ftmul+0)+0,w
	movwf	(___ftmul@cntr)
	goto	i1l2727
	line	144
	
i1l790:	
	line	145
	
i1l2727:	
	btfss	(___ftmul@f1),(0)&7
	goto	u303_21
	goto	u303_20
u303_21:
	goto	i1l2731
u303_20:
	line	146
	
i1l2729:	
	movf	(___ftmul@f2),w
	addwf	(___ftmul@f3_as_product),f
	movf	(___ftmul@f2+1),w
	clrz
	skipnc
	incf	(___ftmul@f2+1),w
	skipnz
	goto	u304_21
	addwf	(___ftmul@f3_as_product+1),f
u304_21:
	movf	(___ftmul@f2+2),w
	clrz
	skipnc
	incf	(___ftmul@f2+2),w
	skipnz
	goto	u304_22
	addwf	(___ftmul@f3_as_product+2),f
u304_22:

	goto	i1l2731
	
i1l791:	
	line	147
	
i1l2731:	
	movlw	01h
u305_25:
	clrc
	rrf	(___ftmul@f1+2),f
	rrf	(___ftmul@f1+1),f
	rrf	(___ftmul@f1),f
	addlw	-1
	skipz
	goto	u305_25

	line	148
	
i1l2733:	
	movlw	01h
u306_25:
	clrc
	rrf	(___ftmul@f3_as_product+2),f
	rrf	(___ftmul@f3_as_product+1),f
	rrf	(___ftmul@f3_as_product),f
	addlw	-1
	skipz
	goto	u306_25

	line	149
	
i1l2735:	
	movlw	low(01h)
	subwf	(___ftmul@cntr),f
	btfss	status,2
	goto	u307_21
	goto	u307_20
u307_21:
	goto	i1l2727
u307_20:
	goto	i1l2737
	
i1l792:	
	line	156
	
i1l2737:	
	movf	(___ftmul@f3_as_product),w
	movwf	(___ftpack@arg)
	movf	(___ftmul@f3_as_product+1),w
	movwf	(___ftpack@arg+1)
	movf	(___ftmul@f3_as_product+2),w
	movwf	(___ftpack@arg+2)
	movf	(___ftmul@exp),w
	movwf	(??___ftmul+0)+0
	movf	(??___ftmul+0)+0,w
	movwf	(___ftpack@exp)
	movf	(___ftmul@sign),w
	movwf	(??___ftmul+1)+0
	movf	(??___ftmul+1)+0,w
	movwf	(___ftpack@sign)
	fcall	___ftpack
	movf	(0+(?___ftpack)),w
	bcf	status, 5	;RP0=0, select bank0
	bcf	status, 6	;RP1=0, select bank0
	movwf	(?___ftmul)
	movf	(1+(?___ftpack)),w
	movwf	(?___ftmul+1)
	movf	(2+(?___ftpack)),w
	movwf	(?___ftmul+2)
	goto	i1l785
	
i1l2739:	
	line	157
	
i1l785:	
	return
	opt stack 0
GLOBAL	__end_of___ftmul
	__end_of___ftmul:
	signat	___ftmul,8315
	global	___awtoft

;; *************** function ___awtoft *****************
;; Defined at:
;;		line 32 in file "C:\Program Files (x86)\Microchip\xc8\v1.33\sources\common\awtoft.c"
;; Parameters:    Size  Location     Type
;;  c               2    8[COMMON] int 
;; Auto vars:     Size  Location     Type
;;  sign            1   13[COMMON] unsigned char 
;; Return value:  Size  Location     Type
;;                  3    8[COMMON] float 
;; Registers used:
;;		wreg, status,2, status,0, pclath, cstack
;; Tracked objects:
;;		On entry : 0/0
;;		On exit  : 0/0
;;		Unchanged: 0/0
;; Data sizes:     COMMON   BANK0   BANK1   BANK3   BANK2
;;      Params:         3       0       0       0       0
;;      Locals:         1       0       0       0       0
;;      Temps:          2       0       0       0       0
;;      Totals:         6       0       0       0       0
;;Total ram usage:        6 bytes
;; Hardware stack levels used:    1
;; Hardware stack levels required when called:    1
;; This function calls:
;;		___ftpack
;; This function is called by:
;;		_ISR
;; This function uses a non-reentrant model
;;
psect	text33,local,class=CODE,delta=2,merge=1
	file	"C:\Program Files (x86)\Microchip\xc8\v1.33\sources\common\awtoft.c"
	line	32
global __ptext33
__ptext33:	;psect for function ___awtoft
psect	text33
	file	"C:\Program Files (x86)\Microchip\xc8\v1.33\sources\common\awtoft.c"
	line	32
	global	__size_of___awtoft
	__size_of___awtoft	equ	__end_of___awtoft-___awtoft
	
___awtoft:	
;incstack = 0
	opt	stack 3
; Regs used in ___awtoft: [wreg+status,2+status,0+pclath+cstack]
	line	36
	
i1l2679:	
	clrf	(___awtoft@sign)
	line	37
	
i1l2681:	
	btfss	(___awtoft@c+1),7
	goto	u293_21
	goto	u293_20
u293_21:
	goto	i1l2687
u293_20:
	line	38
	
i1l2683:	
	comf	(___awtoft@c),f
	comf	(___awtoft@c+1),f
	incf	(___awtoft@c),f
	skipnz
	incf	(___awtoft@c+1),f
	line	39
	
i1l2685:	
	clrf	(___awtoft@sign)
	incf	(___awtoft@sign),f
	goto	i1l2687
	line	40
	
i1l713:	
	line	41
	
i1l2687:	
	movf	(___awtoft@c),w
	movwf	(___ftpack@arg)
	movf	(___awtoft@c+1),w
	movwf	(___ftpack@arg+1)
	clrf	(___ftpack@arg+2)
	movlw	(08Eh)
	movwf	(??___awtoft+0)+0
	movf	(??___awtoft+0)+0,w
	movwf	(___ftpack@exp)
	movf	(___awtoft@sign),w
	movwf	(??___awtoft+1)+0
	movf	(??___awtoft+1)+0,w
	movwf	(___ftpack@sign)
	fcall	___ftpack
	movf	(0+(?___ftpack)),w
	movwf	(?___awtoft)
	movf	(1+(?___ftpack)),w
	movwf	(?___awtoft+1)
	movf	(2+(?___ftpack)),w
	movwf	(?___awtoft+2)
	goto	i1l714
	
i1l2689:	
	line	42
	
i1l714:	
	return
	opt stack 0
GLOBAL	__end_of___awtoft
	__end_of___awtoft:
	signat	___awtoft,4219
	global	___ftpack

;; *************** function ___ftpack *****************
;; Defined at:
;;		line 62 in file "C:\Program Files (x86)\Microchip\xc8\v1.33\sources\common\float.c"
;; Parameters:    Size  Location     Type
;;  arg             3    0[COMMON] unsigned um
;;  exp             1    3[COMMON] unsigned char 
;;  sign            1    4[COMMON] unsigned char 
;; Auto vars:     Size  Location     Type
;;		None
;; Return value:  Size  Location     Type
;;                  3    0[COMMON] float 
;; Registers used:
;;		wreg, status,2, status,0
;; Tracked objects:
;;		On entry : 0/0
;;		On exit  : 0/0
;;		Unchanged: 0/0
;; Data sizes:     COMMON   BANK0   BANK1   BANK3   BANK2
;;      Params:         5       0       0       0       0
;;      Locals:         0       0       0       0       0
;;      Temps:          3       0       0       0       0
;;      Totals:         8       0       0       0       0
;;Total ram usage:        8 bytes
;; Hardware stack levels used:    1
;; This function calls:
;;		Nothing
;; This function is called by:
;;		___awtoft
;;		___ftadd
;;		___ftdiv
;;		___ftmul
;;		___lwtoft
;; This function uses a non-reentrant model
;;
psect	text34,local,class=CODE,delta=2,merge=1
	file	"C:\Program Files (x86)\Microchip\xc8\v1.33\sources\common\float.c"
	line	62
global __ptext34
__ptext34:	;psect for function ___ftpack
psect	text34
	file	"C:\Program Files (x86)\Microchip\xc8\v1.33\sources\common\float.c"
	line	62
	global	__size_of___ftpack
	__size_of___ftpack	equ	__end_of___ftpack-___ftpack
	
___ftpack:	
;incstack = 0
	opt	stack 2
; Regs used in ___ftpack: [wreg+status,2+status,0]
	line	64
	
i1l2053:	
	movf	(___ftpack@exp),w
	skipz
	goto	u181_20
	goto	i1l2057
u181_20:
	
i1l2055:	
	movf	(___ftpack@arg+2),w
	iorwf	(___ftpack@arg+1),w
	iorwf	(___ftpack@arg),w
	skipz
	goto	u182_21
	goto	u182_20
u182_21:
	goto	i1l2063
u182_20:
	goto	i1l2057
	
i1l719:	
	line	65
	
i1l2057:	
	movlw	0x0
	movwf	(?___ftpack)
	movlw	0x0
	movwf	(?___ftpack+1)
	movlw	0x0
	movwf	(?___ftpack+2)
	goto	i1l720
	
i1l2059:	
	goto	i1l720
	
i1l717:	
	line	66
	goto	i1l2063
	
i1l722:	
	line	67
	
i1l2061:	
	movlw	(01h)
	movwf	(??___ftpack+0)+0
	movf	(??___ftpack+0)+0,w
	addwf	(___ftpack@exp),f
	line	68
	movlw	01h
u183_25:
	clrc
	rrf	(___ftpack@arg+2),f
	rrf	(___ftpack@arg+1),f
	rrf	(___ftpack@arg),f
	addlw	-1
	skipz
	goto	u183_25

	goto	i1l2063
	line	69
	
i1l721:	
	line	66
	
i1l2063:	
	movlw	low highword(0FE0000h)
	andwf	(___ftpack@arg+2),w
	btfss	status,2
	goto	u184_21
	goto	u184_20
u184_21:
	goto	i1l2061
u184_20:
	goto	i1l724
	
i1l723:	
	line	70
	goto	i1l724
	
i1l725:	
	line	71
	
i1l2065:	
	movlw	(01h)
	movwf	(??___ftpack+0)+0
	movf	(??___ftpack+0)+0,w
	addwf	(___ftpack@exp),f
	line	72
	
i1l2067:	
	movlw	01h
	addwf	(___ftpack@arg),f
	movlw	0
	skipnc
movlw 1
	addwf	(___ftpack@arg+1),f
	movlw	0
	skipnc
movlw 1
	addwf	(___ftpack@arg+2),f
	line	73
	
i1l2069:	
	movlw	01h
u185_25:
	clrc
	rrf	(___ftpack@arg+2),f
	rrf	(___ftpack@arg+1),f
	rrf	(___ftpack@arg),f
	addlw	-1
	skipz
	goto	u185_25

	line	74
	
i1l724:	
	line	70
	movlw	low highword(0FF0000h)
	andwf	(___ftpack@arg+2),w
	btfss	status,2
	goto	u186_21
	goto	u186_20
u186_21:
	goto	i1l2065
u186_20:
	goto	i1l2073
	
i1l726:	
	line	75
	goto	i1l2073
	
i1l728:	
	line	76
	
i1l2071:	
	movlw	low(01h)
	subwf	(___ftpack@exp),f
	line	77
	movlw	01h
u187_25:
	clrc
	rlf	(___ftpack@arg),f
	rlf	(___ftpack@arg+1),f
	rlf	(___ftpack@arg+2),f
	addlw	-1
	skipz
	goto	u187_25
	goto	i1l2073
	line	78
	
i1l727:	
	line	75
	
i1l2073:	
	btfss	(___ftpack@arg+1),(15)&7
	goto	u188_21
	goto	u188_20
u188_21:
	goto	i1l2071
u188_20:
	
i1l729:	
	line	79
	btfsc	(___ftpack@exp),(0)&7
	goto	u189_21
	goto	u189_20
u189_21:
	goto	i1l730
u189_20:
	line	80
	
i1l2075:	
	movlw	0FFh
	andwf	(___ftpack@arg),f
	movlw	07Fh
	andwf	(___ftpack@arg+1),f
	movlw	0FFh
	andwf	(___ftpack@arg+2),f
	
i1l730:	
	line	81
	clrc
	rrf	(___ftpack@exp),f

	line	82
	
i1l2077:	
	movf	(___ftpack@exp),w
	movwf	((??___ftpack+0)+0)
	clrf	((??___ftpack+0)+0+1)
	clrf	((??___ftpack+0)+0+2)
	movlw	010h
u190_25:
	clrc
	rlf	(??___ftpack+0)+0,f
	rlf	(??___ftpack+0)+1,f
	rlf	(??___ftpack+0)+2,f
u190_20:
	addlw	-1
	skipz
	goto	u190_25
	movf	0+(??___ftpack+0)+0,w
	iorwf	(___ftpack@arg),f
	movf	1+(??___ftpack+0)+0,w
	iorwf	(___ftpack@arg+1),f
	movf	2+(??___ftpack+0)+0,w
	iorwf	(___ftpack@arg+2),f
	line	83
	
i1l2079:	
	movf	(___ftpack@sign),w
	skipz
	goto	u191_20
	goto	i1l731
u191_20:
	line	84
	
i1l2081:	
	bsf	(___ftpack@arg)+(23/8),(23)&7
	
i1l731:	
	line	85
	line	86
	
i1l720:	
	return
	opt stack 0
GLOBAL	__end_of___ftpack
	__end_of___ftpack:
	signat	___ftpack,12411
	global	_USART_ReceiveChar

;; *************** function _USART_ReceiveChar *****************
;; Defined at:
;;		line 63 in file "E:\projeto-fuzzy-rpm\firmware\usart.c"
;; Parameters:    Size  Location     Type
;;		None
;; Auto vars:     Size  Location     Type
;;  byte            1    4[COMMON] unsigned char 
;; Return value:  Size  Location     Type
;;                  1    wreg      unsigned char 
;; Registers used:
;;		wreg, fsr0l, fsr0h, status,2, status,0, pclath, cstack
;; Tracked objects:
;;		On entry : 0/0
;;		On exit  : 0/0
;;		Unchanged: 0/0
;; Data sizes:     COMMON   BANK0   BANK1   BANK3   BANK2
;;      Params:         0       0       0       0       0
;;      Locals:         1       0       0       0       0
;;      Temps:          1       0       0       0       0
;;      Totals:         2       0       0       0       0
;;Total ram usage:        2 bytes
;; Hardware stack levels used:    1
;; Hardware stack levels required when called:    2
;; This function calls:
;;		_USART_WriteString
;; This function is called by:
;;		_ISR
;; This function uses a non-reentrant model
;;
psect	text35,local,class=CODE,delta=2,merge=1
	file	"E:\projeto-fuzzy-rpm\firmware\usart.c"
	line	63
global __ptext35
__ptext35:	;psect for function _USART_ReceiveChar
psect	text35
	file	"E:\projeto-fuzzy-rpm\firmware\usart.c"
	line	63
	global	__size_of_USART_ReceiveChar
	__size_of_USART_ReceiveChar	equ	__end_of_USART_ReceiveChar-_USART_ReceiveChar
	
_USART_ReceiveChar:	
;incstack = 0
	opt	stack 2
; Regs used in _USART_ReceiveChar: [wreg-fsr0h+status,2+status,0+pclath+cstack]
	line	67
	
i1l2411:	
;usart.c: 65: unsigned char byte;
;usart.c: 67: if (!OERR)
	bcf	status, 5	;RP0=0, select bank0
	bcf	status, 6	;RP1=0, select bank0
	btfsc	(193/8),(193)&7	;volatile
	goto	u268_21
	goto	u268_20
u268_21:
	goto	i1l2417
u268_20:
	line	69
	
i1l2413:	
;usart.c: 68: {
;usart.c: 69: byte = RCREG;
	movf	(26),w	;volatile
	movwf	(??_USART_ReceiveChar+0)+0
	movf	(??_USART_ReceiveChar+0)+0,w
	movwf	(USART_ReceiveChar@byte)
	line	70
	
i1l2415:	
;usart.c: 70: PIR1bits.RCIF = 0;
	bcf	(12),5	;volatile
	line	71
;usart.c: 71: }
	goto	i1l2427
	line	72
	
i1l204:	
	line	74
	
i1l2417:	
;usart.c: 72: else
;usart.c: 73: {
;usart.c: 74: USART_WriteString("\n\r ------- ESTOURO DE PILHA ------- \n\r ");
	movlw	((STR_4)-__stringbase)&0ffh
	fcall	_USART_WriteString
	line	76
	
i1l2419:	
;usart.c: 76: RCSTAbits.CREN = 0;
	bcf	status, 5	;RP0=0, select bank0
	bcf	status, 6	;RP1=0, select bank0
	bcf	(24),4	;volatile
	line	77
	
i1l2421:	
;usart.c: 77: byte = RCREG;
	movf	(26),w	;volatile
	movwf	(??_USART_ReceiveChar+0)+0
	movf	(??_USART_ReceiveChar+0)+0,w
	movwf	(USART_ReceiveChar@byte)
	line	78
	
i1l2423:	
;usart.c: 78: RCSTAbits.CREN = 1;
	bsf	(24),4	;volatile
	line	79
	
i1l2425:	
;usart.c: 79: PIR1bits.RCIF = 0;
	bcf	(12),5	;volatile
	goto	i1l2427
	line	80
	
i1l205:	
	line	82
	
i1l2427:	
;usart.c: 80: }
;usart.c: 82: return(byte);
	movf	(USART_ReceiveChar@byte),w
	goto	i1l206
	
i1l2429:	
	line	83
	
i1l206:	
	return
	opt stack 0
GLOBAL	__end_of_USART_ReceiveChar
	__end_of_USART_ReceiveChar:
	signat	_USART_ReceiveChar,89
	global	_USART_WriteString

;; *************** function _USART_WriteString *****************
;; Defined at:
;;		line 52 in file "E:\projeto-fuzzy-rpm\firmware\usart.c"
;; Parameters:    Size  Location     Type
;;  str             1    wreg     PTR const unsigned char 
;;		 -> STR_4(40), 
;; Auto vars:     Size  Location     Type
;;  str             1    2[COMMON] PTR const unsigned char 
;;		 -> STR_4(40), 
;; Return value:  Size  Location     Type
;;		None               void
;; Registers used:
;;		wreg, fsr0l, fsr0h, status,2, status,0, pclath, cstack
;; Tracked objects:
;;		On entry : 0/0
;;		On exit  : 0/0
;;		Unchanged: 0/0
;; Data sizes:     COMMON   BANK0   BANK1   BANK3   BANK2
;;      Params:         0       0       0       0       0
;;      Locals:         1       0       0       0       0
;;      Temps:          1       0       0       0       0
;;      Totals:         2       0       0       0       0
;;Total ram usage:        2 bytes
;; Hardware stack levels used:    1
;; Hardware stack levels required when called:    1
;; This function calls:
;;		_USART_WriteChar
;; This function is called by:
;;		_USART_ReceiveChar
;; This function uses a non-reentrant model
;;
psect	text36,local,class=CODE,delta=2,merge=1
	line	52
global __ptext36
__ptext36:	;psect for function _USART_WriteString
psect	text36
	file	"E:\projeto-fuzzy-rpm\firmware\usart.c"
	line	52
	global	__size_of_USART_WriteString
	__size_of_USART_WriteString	equ	__end_of_USART_WriteString-_USART_WriteString
	
_USART_WriteString:	
;incstack = 0
	opt	stack 2
; Regs used in _USART_WriteString: [wreg-fsr0h+status,2+status,0+pclath+cstack]
;USART_WriteString@str stored from wreg
	movwf	(USART_WriteString@str)
	line	54
	
i1l2083:	
;usart.c: 54: while(*str != '\0')
	goto	i1l2089
	
i1l199:	
	line	56
	
i1l2085:	
;usart.c: 55: {
;usart.c: 56: USART_WriteChar(*str);
	movf	(USART_WriteString@str),w
	movwf	fsr0
	fcall	stringdir
	fcall	_USART_WriteChar
	line	57
	
i1l2087:	
;usart.c: 57: str++;
	movlw	(01h)
	movwf	(??_USART_WriteString+0)+0
	movf	(??_USART_WriteString+0)+0,w
	addwf	(USART_WriteString@str),f
	goto	i1l2089
	line	58
	
i1l198:	
	line	54
	
i1l2089:	
	movf	(USART_WriteString@str),w
	movwf	fsr0
	fcall	stringdir
	iorlw	0
	skipz
	goto	u192_21
	goto	u192_20
u192_21:
	goto	i1l2085
u192_20:
	goto	i1l201
	
i1l200:	
	line	59
	
i1l201:	
	return
	opt stack 0
GLOBAL	__end_of_USART_WriteString
	__end_of_USART_WriteString:
	signat	_USART_WriteString,4216
	global	_USART_WriteChar

;; *************** function _USART_WriteChar *****************
;; Defined at:
;;		line 44 in file "E:\projeto-fuzzy-rpm\firmware\usart.c"
;; Parameters:    Size  Location     Type
;;  byte            1    wreg     unsigned char 
;; Auto vars:     Size  Location     Type
;;  byte            1    0[COMMON] unsigned char 
;; Return value:  Size  Location     Type
;;		None               void
;; Registers used:
;;		wreg
;; Tracked objects:
;;		On entry : 0/0
;;		On exit  : 0/0
;;		Unchanged: 0/0
;; Data sizes:     COMMON   BANK0   BANK1   BANK3   BANK2
;;      Params:         0       0       0       0       0
;;      Locals:         1       0       0       0       0
;;      Temps:          0       0       0       0       0
;;      Totals:         1       0       0       0       0
;;Total ram usage:        1 bytes
;; Hardware stack levels used:    1
;; This function calls:
;;		Nothing
;; This function is called by:
;;		_send
;;		_USART_WriteString
;; This function uses a non-reentrant model
;;
psect	text37,local,class=CODE,delta=2,merge=1
	line	44
global __ptext37
__ptext37:	;psect for function _USART_WriteChar
psect	text37
	file	"E:\projeto-fuzzy-rpm\firmware\usart.c"
	line	44
	global	__size_of_USART_WriteChar
	__size_of_USART_WriteChar	equ	__end_of_USART_WriteChar-_USART_WriteChar
	
_USART_WriteChar:	
;incstack = 0
	opt	stack 3
; Regs used in _USART_WriteChar: [wreg]
;USART_WriteChar@byte stored from wreg
	movwf	(USART_WriteChar@byte)
	line	46
	
i1l2049:	
;usart.c: 46: while(!PIR1bits.TXIF);
	goto	i1l192
	
i1l193:	
	
i1l192:	
	bcf	status, 5	;RP0=0, select bank0
	bcf	status, 6	;RP1=0, select bank0
	btfss	(12),4	;volatile
	goto	u180_21
	goto	u180_20
u180_21:
	goto	i1l192
u180_20:
	goto	i1l2051
	
i1l194:	
	line	47
	
i1l2051:	
;usart.c: 47: TXREG = byte;
	movf	(USART_WriteChar@byte),w
	movwf	(25)	;volatile
	line	48
	
i1l195:	
	return
	opt stack 0
GLOBAL	__end_of_USART_WriteChar
	__end_of_USART_WriteChar:
	signat	_USART_WriteChar,4216
global	___latbits
___latbits	equ	2
	global	btemp
	btemp set 07Eh

	DABS	1,126,2	;btemp
	global	wtemp
	global	wtemp0
	wtemp set btemp
	wtemp0 set btemp
	global	wtemp1
	wtemp1 set btemp+2
	global	wtemp2
	wtemp2 set btemp+4
	global	wtemp3
	wtemp3 set btemp+6
	global	wtemp4
	wtemp4 set btemp+8
	global	wtemp5
	wtemp5 set btemp+10
	global	wtemp6
	wtemp6 set btemp+1
	global	ttemp
	global	ttemp0
	ttemp set btemp
	ttemp0 set btemp
	global	ttemp1
	ttemp1 set btemp+3
	global	ttemp2
	ttemp2 set btemp+6
	global	ttemp3
	ttemp3 set btemp+9
	global	ttemp4
	ttemp4 set btemp+1
	global	ltemp
	global	ltemp0
	ltemp set btemp
	ltemp0 set btemp
	global	ltemp1
	ltemp1 set btemp+4
	global	ltemp2
	ltemp2 set btemp+8
	global	ltemp3
	ltemp3 set btemp+2
	end
